
lishex:     file format elf64-x86-64


Disassembly of section .init:

0000000000003000 <_init>:
    3000:	f3 0f 1e fa          	endbr64
    3004:	48 83 ec 08          	sub    $0x8,%rsp
    3008:	48 8b 05 c9 4f 01 00 	mov    0x14fc9(%rip),%rax        # 17fd8 <__gmon_start__@Base>
    300f:	48 85 c0             	test   %rax,%rax
    3012:	74 02                	je     3016 <_init+0x16>
    3014:	ff d0                	call   *%rax
    3016:	48 83 c4 08          	add    $0x8,%rsp
    301a:	c3                   	ret

Disassembly of section .plt:

0000000000003020 <_ZNKSt7__cxx1112basic_stringIcSt11char_traitsIcESaIcEE8capacityEv@plt-0x10>:
    3020:	ff 35 ca 4f 01 00    	push   0x14fca(%rip)        # 17ff0 <_GLOBAL_OFFSET_TABLE_+0x8>
    3026:	ff 25 cc 4f 01 00    	jmp    *0x14fcc(%rip)        # 17ff8 <_GLOBAL_OFFSET_TABLE_+0x10>
    302c:	0f 1f 40 00          	nopl   0x0(%rax)

0000000000003030 <_ZNKSt7__cxx1112basic_stringIcSt11char_traitsIcESaIcEE8capacityEv@plt>:
    3030:	ff 25 ca 4f 01 00    	jmp    *0x14fca(%rip)        # 18000 <_ZNKSt7__cxx1112basic_stringIcSt11char_traitsIcESaIcEE8capacityEv@GLIBCXX_3.4.21>
    3036:	68 00 00 00 00       	push   $0x0
    303b:	e9 e0 ff ff ff       	jmp    3020 <_init+0x20>

0000000000003040 <__errno_location@plt>:
    3040:	ff 25 c2 4f 01 00    	jmp    *0x14fc2(%rip)        # 18008 <__errno_location@GLIBC_2.2.5>
    3046:	68 01 00 00 00       	push   $0x1
    304b:	e9 d0 ff ff ff       	jmp    3020 <_init+0x20>

0000000000003050 <printf@plt>:
    3050:	ff 25 ba 4f 01 00    	jmp    *0x14fba(%rip)        # 18010 <printf@GLIBC_2.2.5>
    3056:	68 02 00 00 00       	push   $0x2
    305b:	e9 c0 ff ff ff       	jmp    3020 <_init+0x20>

0000000000003060 <_ZSt7getlineIcSt11char_traitsIcESaIcEERSt13basic_istreamIT_T0_ES7_RNSt7__cxx1112basic_stringIS4_S5_T1_EE@plt>:
    3060:	ff 25 b2 4f 01 00    	jmp    *0x14fb2(%rip)        # 18018 <_ZSt7getlineIcSt11char_traitsIcESaIcEERSt13basic_istreamIT_T0_ES7_RNSt7__cxx1112basic_stringIS4_S5_T1_EE@GLIBCXX_3.4.21>
    3066:	68 03 00 00 00       	push   $0x3
    306b:	e9 b0 ff ff ff       	jmp    3020 <_init+0x20>

0000000000003070 <_ZNSolsEm@plt>:
    3070:	ff 25 aa 4f 01 00    	jmp    *0x14faa(%rip)        # 18020 <_ZNSolsEm@GLIBCXX_3.4>
    3076:	68 04 00 00 00       	push   $0x4
    307b:	e9 a0 ff ff ff       	jmp    3020 <_init+0x20>

0000000000003080 <_ZNSolsEPFRSt8ios_baseS0_E@plt>:
    3080:	ff 25 a2 4f 01 00    	jmp    *0x14fa2(%rip)        # 18028 <_ZNSolsEPFRSt8ios_baseS0_E@GLIBCXX_3.4>
    3086:	68 05 00 00 00       	push   $0x5
    308b:	e9 90 ff ff ff       	jmp    3020 <_init+0x20>

0000000000003090 <_ZSt17__throw_bad_allocv@plt>:
    3090:	ff 25 9a 4f 01 00    	jmp    *0x14f9a(%rip)        # 18030 <_ZSt17__throw_bad_allocv@GLIBCXX_3.4>
    3096:	68 06 00 00 00       	push   $0x6
    309b:	e9 80 ff ff ff       	jmp    3020 <_init+0x20>

00000000000030a0 <__cxa_begin_catch@plt>:
    30a0:	ff 25 92 4f 01 00    	jmp    *0x14f92(%rip)        # 18038 <__cxa_begin_catch@CXXABI_1.3>
    30a6:	68 07 00 00 00       	push   $0x7
    30ab:	e9 70 ff ff ff       	jmp    3020 <_init+0x20>

00000000000030b0 <_ZNKSt7__cxx1112basic_stringIcSt11char_traitsIcESaIcEE5c_strEv@plt>:
    30b0:	ff 25 8a 4f 01 00    	jmp    *0x14f8a(%rip)        # 18040 <_ZNKSt7__cxx1112basic_stringIcSt11char_traitsIcESaIcEE5c_strEv@GLIBCXX_3.4.21>
    30b6:	68 08 00 00 00       	push   $0x8
    30bb:	e9 60 ff ff ff       	jmp    3020 <_init+0x20>

00000000000030c0 <strlen@plt>:
    30c0:	ff 25 82 4f 01 00    	jmp    *0x14f82(%rip)        # 18048 <strlen@GLIBC_2.2.5>
    30c6:	68 09 00 00 00       	push   $0x9
    30cb:	e9 50 ff ff ff       	jmp    3020 <_init+0x20>

00000000000030d0 <memcmp@plt>:
    30d0:	ff 25 7a 4f 01 00    	jmp    *0x14f7a(%rip)        # 18050 <memcmp@GLIBC_2.2.5>
    30d6:	68 0a 00 00 00       	push   $0xa
    30db:	e9 40 ff ff ff       	jmp    3020 <_init+0x20>

00000000000030e0 <_ZNKSt9basic_iosIcSt11char_traitsIcEEntEv@plt>:
    30e0:	ff 25 72 4f 01 00    	jmp    *0x14f72(%rip)        # 18058 <_ZNKSt9basic_iosIcSt11char_traitsIcEEntEv@GLIBCXX_3.4>
    30e6:	68 0b 00 00 00       	push   $0xb
    30eb:	e9 30 ff ff ff       	jmp    3020 <_init+0x20>

00000000000030f0 <_ZNSt7__cxx1119basic_istringstreamIcSt11char_traitsIcESaIcEED1Ev@plt>:
    30f0:	ff 25 6a 4f 01 00    	jmp    *0x14f6a(%rip)        # 18060 <_ZNSt7__cxx1119basic_istringstreamIcSt11char_traitsIcESaIcEED1Ev@GLIBCXX_3.4.21>
    30f6:	68 0c 00 00 00       	push   $0xc
    30fb:	e9 20 ff ff ff       	jmp    3020 <_init+0x20>

0000000000003100 <_ZSt20__throw_length_errorPKc@plt>:
    3100:	ff 25 62 4f 01 00    	jmp    *0x14f62(%rip)        # 18068 <_ZSt20__throw_length_errorPKc@GLIBCXX_3.4>
    3106:	68 0d 00 00 00       	push   $0xd
    310b:	e9 10 ff ff ff       	jmp    3020 <_init+0x20>

0000000000003110 <memset@plt>:
    3110:	ff 25 5a 4f 01 00    	jmp    *0x14f5a(%rip)        # 18070 <memset@GLIBC_2.2.5>
    3116:	68 0e 00 00 00       	push   $0xe
    311b:	e9 00 ff ff ff       	jmp    3020 <_init+0x20>

0000000000003120 <_ZNSt7__cxx1112basic_stringIcSt11char_traitsIcESaIcEEC1EOS4_@plt>:
    3120:	ff 25 52 4f 01 00    	jmp    *0x14f52(%rip)        # 18078 <_ZNSt7__cxx1112basic_stringIcSt11char_traitsIcESaIcEEC1EOS4_@GLIBCXX_3.4.21>
    3126:	68 0f 00 00 00       	push   $0xf
    312b:	e9 f0 fe ff ff       	jmp    3020 <_init+0x20>

0000000000003130 <_ZSt24__throw_invalid_argumentPKc@plt>:
    3130:	ff 25 4a 4f 01 00    	jmp    *0x14f4a(%rip)        # 18080 <_ZSt24__throw_invalid_argumentPKc@GLIBCXX_3.4>
    3136:	68 10 00 00 00       	push   $0x10
    313b:	e9 e0 fe ff ff       	jmp    3020 <_init+0x20>

0000000000003140 <_ZNSt7__cxx1112basic_stringIcSt11char_traitsIcESaIcEEpLEc@plt>:
    3140:	ff 25 42 4f 01 00    	jmp    *0x14f42(%rip)        # 18088 <_ZNSt7__cxx1112basic_stringIcSt11char_traitsIcESaIcEEpLEc@GLIBCXX_3.4.21>
    3146:	68 11 00 00 00       	push   $0x11
    314b:	e9 d0 fe ff ff       	jmp    3020 <_init+0x20>

0000000000003150 <__cxa_guard_abort@plt>:
    3150:	ff 25 3a 4f 01 00    	jmp    *0x14f3a(%rip)        # 18090 <__cxa_guard_abort@CXXABI_1.3>
    3156:	68 12 00 00 00       	push   $0x12
    315b:	e9 c0 fe ff ff       	jmp    3020 <_init+0x20>

0000000000003160 <__cxa_guard_release@plt>:
    3160:	ff 25 32 4f 01 00    	jmp    *0x14f32(%rip)        # 18098 <__cxa_guard_release@CXXABI_1.3>
    3166:	68 13 00 00 00       	push   $0x13
    316b:	e9 b0 fe ff ff       	jmp    3020 <_init+0x20>

0000000000003170 <_ZNSt7__cxx1112basic_stringIcSt11char_traitsIcESaIcEE13_M_set_lengthEm@plt>:
    3170:	ff 25 2a 4f 01 00    	jmp    *0x14f2a(%rip)        # 180a0 <_ZNSt7__cxx1112basic_stringIcSt11char_traitsIcESaIcEE13_M_set_lengthEm@GLIBCXX_3.4.21>
    3176:	68 14 00 00 00       	push   $0x14
    317b:	e9 a0 fe ff ff       	jmp    3020 <_init+0x20>

0000000000003180 <_ZNKSt7__cxx1112basic_stringIcSt11char_traitsIcESaIcEE4sizeEv@plt>:
    3180:	ff 25 22 4f 01 00    	jmp    *0x14f22(%rip)        # 180a8 <_ZNKSt7__cxx1112basic_stringIcSt11char_traitsIcESaIcEE4sizeEv@GLIBCXX_3.4.21>
    3186:	68 15 00 00 00       	push   $0x15
    318b:	e9 90 fe ff ff       	jmp    3020 <_init+0x20>

0000000000003190 <_ZNKSt8__detail20_Prime_rehash_policy11_M_next_bktEm@plt>:
    3190:	ff 25 1a 4f 01 00    	jmp    *0x14f1a(%rip)        # 180b0 <_ZNKSt8__detail20_Prime_rehash_policy11_M_next_bktEm@GLIBCXX_3.4.18>
    3196:	68 16 00 00 00       	push   $0x16
    319b:	e9 80 fe ff ff       	jmp    3020 <_init+0x20>

00000000000031a0 <_ZSt19__throw_logic_errorPKc@plt>:
    31a0:	ff 25 12 4f 01 00    	jmp    *0x14f12(%rip)        # 180b8 <_ZSt19__throw_logic_errorPKc@GLIBCXX_3.4>
    31a6:	68 17 00 00 00       	push   $0x17
    31ab:	e9 70 fe ff ff       	jmp    3020 <_init+0x20>

00000000000031b0 <_ZSt28__throw_bad_array_new_lengthv@plt>:
    31b0:	ff 25 0a 4f 01 00    	jmp    *0x14f0a(%rip)        # 180c0 <_ZSt28__throw_bad_array_new_lengthv@GLIBCXX_3.4.29>
    31b6:	68 18 00 00 00       	push   $0x18
    31bb:	e9 60 fe ff ff       	jmp    3020 <_init+0x20>

00000000000031c0 <_ZNSt7__cxx1112basic_stringIcSt11char_traitsIcESaIcEE13_M_local_dataEv@plt>:
    31c0:	ff 25 02 4f 01 00    	jmp    *0x14f02(%rip)        # 180c8 <_ZNSt7__cxx1112basic_stringIcSt11char_traitsIcESaIcEE13_M_local_dataEv@GLIBCXX_3.4.21>
    31c6:	68 19 00 00 00       	push   $0x19
    31cb:	e9 50 fe ff ff       	jmp    3020 <_init+0x20>

00000000000031d0 <memcpy@plt>:
    31d0:	ff 25 fa 4e 01 00    	jmp    *0x14efa(%rip)        # 180d0 <memcpy@GLIBC_2.14>
    31d6:	68 1a 00 00 00       	push   $0x1a
    31db:	e9 40 fe ff ff       	jmp    3020 <_init+0x20>

00000000000031e0 <_ZNSt7__cxx1112basic_stringIcSt11char_traitsIcESaIcEE7_M_dataEPc@plt>:
    31e0:	ff 25 f2 4e 01 00    	jmp    *0x14ef2(%rip)        # 180d8 <_ZNSt7__cxx1112basic_stringIcSt11char_traitsIcESaIcEE7_M_dataEPc@GLIBCXX_3.4.21>
    31e6:	68 1b 00 00 00       	push   $0x1b
    31eb:	e9 30 fe ff ff       	jmp    3020 <_init+0x20>

00000000000031f0 <_ZNSt7__cxx1112basic_stringIcSt11char_traitsIcESaIcEE9push_backEc@plt>:
    31f0:	ff 25 ea 4e 01 00    	jmp    *0x14eea(%rip)        # 180e0 <_ZNSt7__cxx1112basic_stringIcSt11char_traitsIcESaIcEE9push_backEc@GLIBCXX_3.4.21>
    31f6:	68 1c 00 00 00       	push   $0x1c
    31fb:	e9 20 fe ff ff       	jmp    3020 <_init+0x20>

0000000000003200 <__cxa_atexit@plt>:
    3200:	ff 25 e2 4e 01 00    	jmp    *0x14ee2(%rip)        # 180e8 <__cxa_atexit@GLIBC_2.2.5>
    3206:	68 1d 00 00 00       	push   $0x1d
    320b:	e9 10 fe ff ff       	jmp    3020 <_init+0x20>

0000000000003210 <_ZStlsIcSt11char_traitsIcESaIcEERSt13basic_ostreamIT_T0_ES7_RKNSt7__cxx1112basic_stringIS4_S5_T1_EE@plt>:
    3210:	ff 25 da 4e 01 00    	jmp    *0x14eda(%rip)        # 180f0 <_ZStlsIcSt11char_traitsIcESaIcEERSt13basic_ostreamIT_T0_ES7_RKNSt7__cxx1112basic_stringIS4_S5_T1_EE@GLIBCXX_3.4.21>
    3216:	68 1e 00 00 00       	push   $0x1e
    321b:	e9 00 fe ff ff       	jmp    3020 <_init+0x20>

0000000000003220 <_ZStlsISt11char_traitsIcEERSt13basic_ostreamIcT_ES5_PKc@plt>:
    3220:	ff 25 d2 4e 01 00    	jmp    *0x14ed2(%rip)        # 180f8 <_ZStlsISt11char_traitsIcEERSt13basic_ostreamIcT_ES5_PKc@GLIBCXX_3.4>
    3226:	68 1f 00 00 00       	push   $0x1f
    322b:	e9 f0 fd ff ff       	jmp    3020 <_init+0x20>

0000000000003230 <_Znwm@plt>:
    3230:	ff 25 ca 4e 01 00    	jmp    *0x14eca(%rip)        # 18100 <_Znwm@GLIBCXX_3.4>
    3236:	68 20 00 00 00       	push   $0x20
    323b:	e9 e0 fd ff ff       	jmp    3020 <_init+0x20>

0000000000003240 <_ZdlPvm@plt>:
    3240:	ff 25 c2 4e 01 00    	jmp    *0x14ec2(%rip)        # 18108 <_ZdlPvm@CXXABI_1.3.9>
    3246:	68 21 00 00 00       	push   $0x21
    324b:	e9 d0 fd ff ff       	jmp    3020 <_init+0x20>

0000000000003250 <_ZNSolsEPFRSoS_E@plt>:
    3250:	ff 25 ba 4e 01 00    	jmp    *0x14eba(%rip)        # 18110 <_ZNSolsEPFRSoS_E@GLIBCXX_3.4>
    3256:	68 22 00 00 00       	push   $0x22
    325b:	e9 c0 fd ff ff       	jmp    3020 <_init+0x20>

0000000000003260 <_ZNSt7__cxx1112basic_stringIcSt11char_traitsIcESaIcEE12_Alloc_hiderC1EPcRKS3_@plt>:
    3260:	ff 25 b2 4e 01 00    	jmp    *0x14eb2(%rip)        # 18118 <_ZNSt7__cxx1112basic_stringIcSt11char_traitsIcESaIcEE12_Alloc_hiderC1EPcRKS3_@GLIBCXX_3.4.21>
    3266:	68 23 00 00 00       	push   $0x23
    326b:	e9 b0 fd ff ff       	jmp    3020 <_init+0x20>

0000000000003270 <_ZNKSt7__cxx1112basic_stringIcSt11char_traitsIcESaIcEE7_M_dataEv@plt>:
    3270:	ff 25 aa 4e 01 00    	jmp    *0x14eaa(%rip)        # 18120 <_ZNKSt7__cxx1112basic_stringIcSt11char_traitsIcESaIcEE7_M_dataEv@GLIBCXX_3.4.21>
    3276:	68 24 00 00 00       	push   $0x24
    327b:	e9 a0 fd ff ff       	jmp    3020 <_init+0x20>

0000000000003280 <_ZNKSt7__cxx1112basic_stringIcSt11char_traitsIcESaIcEEixEm@plt>:
    3280:	ff 25 a2 4e 01 00    	jmp    *0x14ea2(%rip)        # 18128 <_ZNKSt7__cxx1112basic_stringIcSt11char_traitsIcESaIcEEixEm@GLIBCXX_3.4.21>
    3286:	68 25 00 00 00       	push   $0x25
    328b:	e9 90 fd ff ff       	jmp    3020 <_init+0x20>

0000000000003290 <_ZNSt7__cxx1112basic_stringIcSt11char_traitsIcESaIcEE13_S_copy_charsEPcPKcS7_@plt>:
    3290:	ff 25 9a 4e 01 00    	jmp    *0x14e9a(%rip)        # 18130 <_ZNSt7__cxx1112basic_stringIcSt11char_traitsIcESaIcEE13_S_copy_charsEPcPKcS7_@GLIBCXX_3.4.21>
    3296:	68 26 00 00 00       	push   $0x26
    329b:	e9 80 fd ff ff       	jmp    3020 <_init+0x20>

00000000000032a0 <__stack_chk_fail@plt>:
    32a0:	ff 25 92 4e 01 00    	jmp    *0x14e92(%rip)        # 18138 <__stack_chk_fail@GLIBC_2.4>
    32a6:	68 27 00 00 00       	push   $0x27
    32ab:	e9 70 fd ff ff       	jmp    3020 <_init+0x20>

00000000000032b0 <_ZNSt7__cxx1112basic_stringIcSt11char_traitsIcESaIcEEC1ESt16initializer_listIcERKS3_@plt>:
    32b0:	ff 25 8a 4e 01 00    	jmp    *0x14e8a(%rip)        # 18140 <_ZNSt7__cxx1112basic_stringIcSt11char_traitsIcESaIcEEC1ESt16initializer_listIcERKS3_@GLIBCXX_3.4.21>
    32b6:	68 28 00 00 00       	push   $0x28
    32bb:	e9 60 fd ff ff       	jmp    3020 <_init+0x20>

00000000000032c0 <_ZStlsISt11char_traitsIcEERSt13basic_ostreamIcT_ES5_c@plt>:
    32c0:	ff 25 82 4e 01 00    	jmp    *0x14e82(%rip)        # 18148 <_ZStlsISt11char_traitsIcEERSt13basic_ostreamIcT_ES5_c@GLIBCXX_3.4>
    32c6:	68 29 00 00 00       	push   $0x29
    32cb:	e9 50 fd ff ff       	jmp    3020 <_init+0x20>

00000000000032d0 <exit@plt>:
    32d0:	ff 25 7a 4e 01 00    	jmp    *0x14e7a(%rip)        # 18150 <exit@GLIBC_2.2.5>
    32d6:	68 2a 00 00 00       	push   $0x2a
    32db:	e9 40 fd ff ff       	jmp    3020 <_init+0x20>

00000000000032e0 <_ZNSt7__cxx1112basic_stringIcSt11char_traitsIcESaIcEE10_M_disposeEv@plt>:
    32e0:	ff 25 72 4e 01 00    	jmp    *0x14e72(%rip)        # 18158 <_ZNSt7__cxx1112basic_stringIcSt11char_traitsIcESaIcEE10_M_disposeEv@GLIBCXX_3.4.21>
    32e6:	68 2b 00 00 00       	push   $0x2b
    32eb:	e9 30 fd ff ff       	jmp    3020 <_init+0x20>

00000000000032f0 <_ZStrsIcSt11char_traitsIcESaIcEERSt13basic_istreamIT_T0_ES7_RNSt7__cxx1112basic_stringIS4_S5_T1_EE@plt>:
    32f0:	ff 25 6a 4e 01 00    	jmp    *0x14e6a(%rip)        # 18160 <_ZStrsIcSt11char_traitsIcESaIcEERSt13basic_istreamIT_T0_ES7_RNSt7__cxx1112basic_stringIS4_S5_T1_EE@GLIBCXX_3.4.21>
    32f6:	68 2c 00 00 00       	push   $0x2c
    32fb:	e9 20 fd ff ff       	jmp    3020 <_init+0x20>

0000000000003300 <_ZNKSt7__cxx1112basic_stringIcSt11char_traitsIcESaIcEE4dataEv@plt>:
    3300:	ff 25 62 4e 01 00    	jmp    *0x14e62(%rip)        # 18168 <_ZNKSt7__cxx1112basic_stringIcSt11char_traitsIcESaIcEE4dataEv@GLIBCXX_3.4.21>
    3306:	68 2d 00 00 00       	push   $0x2d
    330b:	e9 10 fd ff ff       	jmp    3020 <_init+0x20>

0000000000003310 <_ZNKSt7__cxx1112basic_stringIcSt11char_traitsIcESaIcEE4findEcm@plt>:
    3310:	ff 25 5a 4e 01 00    	jmp    *0x14e5a(%rip)        # 18170 <_ZNKSt7__cxx1112basic_stringIcSt11char_traitsIcESaIcEE4findEcm@GLIBCXX_3.4.21>
    3316:	68 2e 00 00 00       	push   $0x2e
    331b:	e9 00 fd ff ff       	jmp    3020 <_init+0x20>

0000000000003320 <_ZNSt7__cxx1112basic_stringIcSt11char_traitsIcESaIcEE5clearEv@plt>:
    3320:	ff 25 52 4e 01 00    	jmp    *0x14e52(%rip)        # 18178 <_ZNSt7__cxx1112basic_stringIcSt11char_traitsIcESaIcEE5clearEv@GLIBCXX_3.4.21>
    3326:	68 2f 00 00 00       	push   $0x2f
    332b:	e9 f0 fc ff ff       	jmp    3020 <_init+0x20>

0000000000003330 <_ZNKSt8__detail20_Prime_rehash_policy14_M_need_rehashEmmm@plt>:
    3330:	ff 25 4a 4e 01 00    	jmp    *0x14e4a(%rip)        # 18180 <_ZNKSt8__detail20_Prime_rehash_policy14_M_need_rehashEmmm@GLIBCXX_3.4.18>
    3336:	68 30 00 00 00       	push   $0x30
    333b:	e9 e0 fc ff ff       	jmp    3020 <_init+0x20>

0000000000003340 <_ZNSt7__cxx1112basic_stringIcSt11char_traitsIcESaIcEEC1Ev@plt>:
    3340:	ff 25 42 4e 01 00    	jmp    *0x14e42(%rip)        # 18188 <_ZNSt7__cxx1112basic_stringIcSt11char_traitsIcESaIcEEC1Ev@GLIBCXX_3.4.21>
    3346:	68 31 00 00 00       	push   $0x31
    334b:	e9 d0 fc ff ff       	jmp    3020 <_init+0x20>

0000000000003350 <_ZSt20__throw_out_of_rangePKc@plt>:
    3350:	ff 25 3a 4e 01 00    	jmp    *0x14e3a(%rip)        # 18190 <_ZSt20__throw_out_of_rangePKc@GLIBCXX_3.4>
    3356:	68 32 00 00 00       	push   $0x32
    335b:	e9 c0 fc ff ff       	jmp    3020 <_init+0x20>

0000000000003360 <__cxa_rethrow@plt>:
    3360:	ff 25 32 4e 01 00    	jmp    *0x14e32(%rip)        # 18198 <__cxa_rethrow@CXXABI_1.3>
    3366:	68 33 00 00 00       	push   $0x33
    336b:	e9 b0 fc ff ff       	jmp    3020 <_init+0x20>

0000000000003370 <_ZNSt7__cxx1112basic_stringIcSt11char_traitsIcESaIcEE6insertEmRKS4_@plt>:
    3370:	ff 25 2a 4e 01 00    	jmp    *0x14e2a(%rip)        # 181a0 <_ZNSt7__cxx1112basic_stringIcSt11char_traitsIcESaIcEE6insertEmRKS4_@GLIBCXX_3.4.21>
    3376:	68 34 00 00 00       	push   $0x34
    337b:	e9 a0 fc ff ff       	jmp    3020 <_init+0x20>

0000000000003380 <__cxa_end_catch@plt>:
    3380:	ff 25 22 4e 01 00    	jmp    *0x14e22(%rip)        # 181a8 <__cxa_end_catch@CXXABI_1.3>
    3386:	68 35 00 00 00       	push   $0x35
    338b:	e9 90 fc ff ff       	jmp    3020 <_init+0x20>

0000000000003390 <_ZNKSt7__cxx1112basic_stringIcSt11char_traitsIcESaIcEE5emptyEv@plt>:
    3390:	ff 25 1a 4e 01 00    	jmp    *0x14e1a(%rip)        # 181b0 <_ZNKSt7__cxx1112basic_stringIcSt11char_traitsIcESaIcEE5emptyEv@GLIBCXX_3.4.21>
    3396:	68 36 00 00 00       	push   $0x36
    339b:	e9 80 fc ff ff       	jmp    3020 <_init+0x20>

00000000000033a0 <_ZNSirsEPFRSt8ios_baseS0_E@plt>:
    33a0:	ff 25 12 4e 01 00    	jmp    *0x14e12(%rip)        # 181b8 <_ZNSirsEPFRSt8ios_baseS0_E@GLIBCXX_3.4>
    33a6:	68 37 00 00 00       	push   $0x37
    33ab:	e9 70 fc ff ff       	jmp    3020 <_init+0x20>

00000000000033b0 <_ZNSt7__cxx1119basic_istringstreamIcSt11char_traitsIcESaIcEEC1ERKNS_12basic_stringIcS2_S3_EESt13_Ios_Openmode@plt>:
    33b0:	ff 25 0a 4e 01 00    	jmp    *0x14e0a(%rip)        # 181c0 <_ZNSt7__cxx1119basic_istringstreamIcSt11char_traitsIcESaIcEEC1ERKNS_12basic_stringIcS2_S3_EESt13_Ios_Openmode@GLIBCXX_3.4.21>
    33b6:	68 38 00 00 00       	push   $0x38
    33bb:	e9 60 fc ff ff       	jmp    3020 <_init+0x20>

00000000000033c0 <_ZNSolsEi@plt>:
    33c0:	ff 25 02 4e 01 00    	jmp    *0x14e02(%rip)        # 181c8 <_ZNSolsEi@GLIBCXX_3.4>
    33c6:	68 39 00 00 00       	push   $0x39
    33cb:	e9 50 fc ff ff       	jmp    3020 <_init+0x20>

00000000000033d0 <_Unwind_Resume@plt>:
    33d0:	ff 25 fa 4d 01 00    	jmp    *0x14dfa(%rip)        # 181d0 <_Unwind_Resume@GCC_3.0>
    33d6:	68 3a 00 00 00       	push   $0x3a
    33db:	e9 40 fc ff ff       	jmp    3020 <_init+0x20>

00000000000033e0 <_ZNSt7__cxx1112basic_stringIcSt11char_traitsIcESaIcEE9_M_createERmm@plt>:
    33e0:	ff 25 f2 4d 01 00    	jmp    *0x14df2(%rip)        # 181d8 <_ZNSt7__cxx1112basic_stringIcSt11char_traitsIcESaIcEE9_M_createERmm@GLIBCXX_3.4.21>
    33e6:	68 3b 00 00 00       	push   $0x3b
    33eb:	e9 30 fc ff ff       	jmp    3020 <_init+0x20>

00000000000033f0 <__cxa_guard_acquire@plt>:
    33f0:	ff 25 ea 4d 01 00    	jmp    *0x14dea(%rip)        # 181e0 <__cxa_guard_acquire@CXXABI_1.3>
    33f6:	68 3c 00 00 00       	push   $0x3c
    33fb:	e9 20 fc ff ff       	jmp    3020 <_init+0x20>

0000000000003400 <_ZNSt7__cxx1112basic_stringIcSt11char_traitsIcESaIcEE6appendERKS4_@plt>:
    3400:	ff 25 e2 4d 01 00    	jmp    *0x14de2(%rip)        # 181e8 <_ZNSt7__cxx1112basic_stringIcSt11char_traitsIcESaIcEE6appendERKS4_@GLIBCXX_3.4.21>
    3406:	68 3d 00 00 00       	push   $0x3d
    340b:	e9 10 fc ff ff       	jmp    3020 <_init+0x20>

0000000000003410 <_ZNSt7__cxx1112basic_stringIcSt11char_traitsIcESaIcEE11_M_capacityEm@plt>:
    3410:	ff 25 da 4d 01 00    	jmp    *0x14dda(%rip)        # 181f0 <_ZNSt7__cxx1112basic_stringIcSt11char_traitsIcESaIcEE11_M_capacityEm@GLIBCXX_3.4.21>
    3416:	68 3e 00 00 00       	push   $0x3e
    341b:	e9 00 fc ff ff       	jmp    3020 <_init+0x20>

0000000000003420 <_ZNSt7__cxx1112basic_stringIcSt11char_traitsIcESaIcEEixEm@plt>:
    3420:	ff 25 d2 4d 01 00    	jmp    *0x14dd2(%rip)        # 181f8 <_ZNSt7__cxx1112basic_stringIcSt11char_traitsIcESaIcEEixEm@GLIBCXX_3.4.21>
    3426:	68 3f 00 00 00       	push   $0x3f
    342b:	e9 f0 fb ff ff       	jmp    3020 <_init+0x20>

Disassembly of section .plt.got:

0000000000003430 <_ZNSt7__cxx1112basic_stringIcSt11char_traitsIcESaIcEED1Ev@plt>:
    3430:	ff 25 82 4b 01 00    	jmp    *0x14b82(%rip)        # 17fb8 <_ZNSt7__cxx1112basic_stringIcSt11char_traitsIcESaIcEED1Ev@GLIBCXX_3.4.21>
    3436:	66 90                	xchg   %ax,%ax

Disassembly of section .text:

0000000000003440 <_start>:
    3440:	f3 0f 1e fa          	endbr64
    3444:	31 ed                	xor    %ebp,%ebp
    3446:	49 89 d1             	mov    %rdx,%r9
    3449:	5e                   	pop    %rsi
    344a:	48 89 e2             	mov    %rsp,%rdx
    344d:	48 83 e4 f0          	and    $0xfffffffffffffff0,%rsp
    3451:	50                   	push   %rax
    3452:	54                   	push   %rsp
    3453:	45 31 c0             	xor    %r8d,%r8d
    3456:	31 c9                	xor    %ecx,%ecx
    3458:	48 8d 3d b1 8e 00 00 	lea    0x8eb1(%rip),%rdi        # c310 <main>
    345f:	ff 15 5b 4b 01 00    	call   *0x14b5b(%rip)        # 17fc0 <__libc_start_main@GLIBC_2.34>
    3465:	f4                   	hlt
    3466:	66 2e 0f 1f 84 00 00 	cs nopw 0x0(%rax,%rax,1)
    346d:	00 00 00 
    3470:	48 8d 3d b1 51 01 00 	lea    0x151b1(%rip),%rdi        # 18628 <__TMC_END__>
    3477:	48 8d 05 aa 51 01 00 	lea    0x151aa(%rip),%rax        # 18628 <__TMC_END__>
    347e:	48 39 f8             	cmp    %rdi,%rax
    3481:	74 15                	je     3498 <_start+0x58>
    3483:	48 8b 05 46 4b 01 00 	mov    0x14b46(%rip),%rax        # 17fd0 <_ITM_deregisterTMCloneTable@Base>
    348a:	48 85 c0             	test   %rax,%rax
    348d:	74 09                	je     3498 <_start+0x58>
    348f:	ff e0                	jmp    *%rax
    3491:	0f 1f 80 00 00 00 00 	nopl   0x0(%rax)
    3498:	c3                   	ret
    3499:	0f 1f 80 00 00 00 00 	nopl   0x0(%rax)
    34a0:	48 8d 3d 81 51 01 00 	lea    0x15181(%rip),%rdi        # 18628 <__TMC_END__>
    34a7:	48 8d 35 7a 51 01 00 	lea    0x1517a(%rip),%rsi        # 18628 <__TMC_END__>
    34ae:	48 29 fe             	sub    %rdi,%rsi
    34b1:	48 89 f0             	mov    %rsi,%rax
    34b4:	48 c1 ee 3f          	shr    $0x3f,%rsi
    34b8:	48 c1 f8 03          	sar    $0x3,%rax
    34bc:	48 01 c6             	add    %rax,%rsi
    34bf:	48 d1 fe             	sar    %rsi
    34c2:	74 14                	je     34d8 <_start+0x98>
    34c4:	48 8b 05 15 4b 01 00 	mov    0x14b15(%rip),%rax        # 17fe0 <_ITM_registerTMCloneTable@Base>
    34cb:	48 85 c0             	test   %rax,%rax
    34ce:	74 08                	je     34d8 <_start+0x98>
    34d0:	ff e0                	jmp    *%rax
    34d2:	66 0f 1f 44 00 00    	nopw   0x0(%rax,%rax,1)
    34d8:	c3                   	ret
    34d9:	0f 1f 80 00 00 00 00 	nopl   0x0(%rax)
    34e0:	f3 0f 1e fa          	endbr64
    34e4:	80 3d 8d 53 01 00 00 	cmpb   $0x0,0x1538d(%rip)        # 18878 <_ZSt3cin@GLIBCXX_3.4+0x118>
    34eb:	75 33                	jne    3520 <_start+0xe0>
    34ed:	55                   	push   %rbp
    34ee:	48 83 3d b2 4a 01 00 	cmpq   $0x0,0x14ab2(%rip)        # 17fa8 <__cxa_finalize@GLIBC_2.2.5>
    34f5:	00 
    34f6:	48 89 e5             	mov    %rsp,%rbp
    34f9:	74 0d                	je     3508 <_start+0xc8>
    34fb:	48 8b 3d 06 4d 01 00 	mov    0x14d06(%rip),%rdi        # 18208 <__dso_handle>
    3502:	ff 15 a0 4a 01 00    	call   *0x14aa0(%rip)        # 17fa8 <__cxa_finalize@GLIBC_2.2.5>
    3508:	e8 63 ff ff ff       	call   3470 <_start+0x30>
    350d:	c6 05 64 53 01 00 01 	movb   $0x1,0x15364(%rip)        # 18878 <_ZSt3cin@GLIBCXX_3.4+0x118>
    3514:	5d                   	pop    %rbp
    3515:	c3                   	ret
    3516:	66 2e 0f 1f 84 00 00 	cs nopw 0x0(%rax,%rax,1)
    351d:	00 00 00 
    3520:	c3                   	ret
    3521:	66 66 2e 0f 1f 84 00 	data16 cs nopw 0x0(%rax,%rax,1)
    3528:	00 00 00 00 
    352c:	0f 1f 40 00          	nopl   0x0(%rax)
    3530:	f3 0f 1e fa          	endbr64
    3534:	e9 67 ff ff ff       	jmp    34a0 <_start+0x60>

0000000000003539 <_Z17init_leap_attacksv>:
    3539:	55                   	push   %rbp
    353a:	48 89 e5             	mov    %rsp,%rbp
    353d:	48 83 ec 20          	sub    $0x20,%rsp
    3541:	c7 45 ec 00 00 00 00 	movl   $0x0,-0x14(%rbp)
    3548:	eb 3b                	jmp    3585 <_Z17init_leap_attacksv+0x4c>
    354a:	8b 45 ec             	mov    -0x14(%rbp),%eax
    354d:	48 98                	cltq
    354f:	48 8d 14 c5 00 00 00 	lea    0x0(,%rax,8),%rdx
    3556:	00 
    3557:	48 8d 05 22 57 01 00 	lea    0x15722(%rip),%rax        # 18c80 <knight_attacks>
    355e:	48 c7 04 02 00 00 00 	movq   $0x0,(%rdx,%rax,1)
    3565:	00 
    3566:	8b 45 ec             	mov    -0x14(%rbp),%eax
    3569:	48 98                	cltq
    356b:	48 8d 14 c5 00 00 00 	lea    0x0(,%rax,8),%rdx
    3572:	00 
    3573:	48 8d 05 06 59 01 00 	lea    0x15906(%rip),%rax        # 18e80 <king_attacks>
    357a:	48 c7 04 02 00 00 00 	movq   $0x0,(%rdx,%rax,1)
    3581:	00 
    3582:	ff 45 ec             	incl   -0x14(%rbp)
    3585:	83 7d ec 3f          	cmpl   $0x3f,-0x14(%rbp)
    3589:	7e bf                	jle    354a <_Z17init_leap_attacksv+0x11>
    358b:	c7 45 f0 00 00 00 00 	movl   $0x0,-0x10(%rbp)
    3592:	e9 2c 02 00 00       	jmp    37c3 <_Z17init_leap_attacksv+0x28a>
    3597:	8b 45 f0             	mov    -0x10(%rbp),%eax
    359a:	ba 01 00 00 00       	mov    $0x1,%edx
    359f:	c4 e2 f9 f7 c2       	shlx   %rax,%rdx,%rax
    35a4:	48 89 45 f8          	mov    %rax,-0x8(%rbp)
    35a8:	48 8b 45 f8          	mov    -0x8(%rbp),%rax
    35ac:	48 89 c7             	mov    %rax,%rdi
    35af:	e8 1b 0c 00 00       	call   41cf <_Z7n_shiftm>
    35b4:	8b 55 f0             	mov    -0x10(%rbp),%edx
    35b7:	48 63 d2             	movslq %edx,%rdx
    35ba:	48 8d 0c d5 00 00 00 	lea    0x0(,%rdx,8),%rcx
    35c1:	00 
    35c2:	48 8d 15 b7 58 01 00 	lea    0x158b7(%rip),%rdx        # 18e80 <king_attacks>
    35c9:	48 8b 14 11          	mov    (%rcx,%rdx,1),%rdx
    35cd:	48 09 d0             	or     %rdx,%rax
    35d0:	48 89 c1             	mov    %rax,%rcx
    35d3:	8b 45 f0             	mov    -0x10(%rbp),%eax
    35d6:	48 98                	cltq
    35d8:	48 8d 14 c5 00 00 00 	lea    0x0(,%rax,8),%rdx
    35df:	00 
    35e0:	48 8d 05 99 58 01 00 	lea    0x15899(%rip),%rax        # 18e80 <king_attacks>
    35e7:	48 89 0c 02          	mov    %rcx,(%rdx,%rax,1)
    35eb:	48 8b 45 f8          	mov    -0x8(%rbp),%rax
    35ef:	48 89 c7             	mov    %rax,%rdi
    35f2:	e8 3c 0c 00 00       	call   4233 <_Z8ne_shiftm>
    35f7:	8b 55 f0             	mov    -0x10(%rbp),%edx
    35fa:	48 63 d2             	movslq %edx,%rdx
    35fd:	48 8d 0c d5 00 00 00 	lea    0x0(,%rdx,8),%rcx
    3604:	00 
    3605:	48 8d 15 74 58 01 00 	lea    0x15874(%rip),%rdx        # 18e80 <king_attacks>
    360c:	48 8b 14 11          	mov    (%rcx,%rdx,1),%rdx
    3610:	48 09 d0             	or     %rdx,%rax
    3613:	48 89 c1             	mov    %rax,%rcx
    3616:	8b 45 f0             	mov    -0x10(%rbp),%eax
    3619:	48 98                	cltq
    361b:	48 8d 14 c5 00 00 00 	lea    0x0(,%rax,8),%rdx
    3622:	00 
    3623:	48 8d 05 56 58 01 00 	lea    0x15856(%rip),%rax        # 18e80 <king_attacks>
    362a:	48 89 0c 02          	mov    %rcx,(%rdx,%rax,1)
    362e:	48 8b 45 f8          	mov    -0x8(%rbp),%rax
    3632:	48 89 c7             	mov    %rax,%rdi
    3635:	e8 b9 0b 00 00       	call   41f3 <_Z7e_shiftm>
    363a:	8b 55 f0             	mov    -0x10(%rbp),%edx
    363d:	48 63 d2             	movslq %edx,%rdx
    3640:	48 8d 0c d5 00 00 00 	lea    0x0(,%rdx,8),%rcx
    3647:	00 
    3648:	48 8d 15 31 58 01 00 	lea    0x15831(%rip),%rdx        # 18e80 <king_attacks>
    364f:	48 8b 14 11          	mov    (%rcx,%rdx,1),%rdx
    3653:	48 09 d0             	or     %rdx,%rax
    3656:	48 89 c1             	mov    %rax,%rcx
    3659:	8b 45 f0             	mov    -0x10(%rbp),%eax
    365c:	48 98                	cltq
    365e:	48 8d 14 c5 00 00 00 	lea    0x0(,%rax,8),%rdx
    3665:	00 
    3666:	48 8d 05 13 58 01 00 	lea    0x15813(%rip),%rax        # 18e80 <king_attacks>
    366d:	48 89 0c 02          	mov    %rcx,(%rdx,%rax,1)
    3671:	48 8b 45 f8          	mov    -0x8(%rbp),%rax
    3675:	48 89 c7             	mov    %rax,%rdi
    3678:	e8 d8 0b 00 00       	call   4255 <_Z8se_shiftm>
    367d:	8b 55 f0             	mov    -0x10(%rbp),%edx
    3680:	48 63 d2             	movslq %edx,%rdx
    3683:	48 8d 0c d5 00 00 00 	lea    0x0(,%rdx,8),%rcx
    368a:	00 
    368b:	48 8d 15 ee 57 01 00 	lea    0x157ee(%rip),%rdx        # 18e80 <king_attacks>
    3692:	48 8b 14 11          	mov    (%rcx,%rdx,1),%rdx
    3696:	48 09 d0             	or     %rdx,%rax
    3699:	48 89 c1             	mov    %rax,%rcx
    369c:	8b 45 f0             	mov    -0x10(%rbp),%eax
    369f:	48 98                	cltq
    36a1:	48 8d 14 c5 00 00 00 	lea    0x0(,%rax,8),%rdx
    36a8:	00 
    36a9:	48 8d 05 d0 57 01 00 	lea    0x157d0(%rip),%rax        # 18e80 <king_attacks>
    36b0:	48 89 0c 02          	mov    %rcx,(%rdx,%rax,1)
    36b4:	48 8b 45 f8          	mov    -0x8(%rbp),%rax
    36b8:	48 89 c7             	mov    %rax,%rdi
    36bb:	e8 21 0b 00 00       	call   41e1 <_Z7s_shiftm>
    36c0:	8b 55 f0             	mov    -0x10(%rbp),%edx
    36c3:	48 63 d2             	movslq %edx,%rdx
    36c6:	48 8d 0c d5 00 00 00 	lea    0x0(,%rdx,8),%rcx
    36cd:	00 
    36ce:	48 8d 15 ab 57 01 00 	lea    0x157ab(%rip),%rdx        # 18e80 <king_attacks>
    36d5:	48 8b 14 11          	mov    (%rcx,%rdx,1),%rdx
    36d9:	48 09 d0             	or     %rdx,%rax
    36dc:	48 89 c1             	mov    %rax,%rcx
    36df:	8b 45 f0             	mov    -0x10(%rbp),%eax
    36e2:	48 98                	cltq
    36e4:	48 8d 14 c5 00 00 00 	lea    0x0(,%rax,8),%rdx
    36eb:	00 
    36ec:	48 8d 05 8d 57 01 00 	lea    0x1578d(%rip),%rax        # 18e80 <king_attacks>
    36f3:	48 89 0c 02          	mov    %rcx,(%rdx,%rax,1)
    36f7:	48 8b 45 f8          	mov    -0x8(%rbp),%rax
    36fb:	48 89 c7             	mov    %rax,%rdi
    36fe:	e8 74 0b 00 00       	call   4277 <_Z8sw_shiftm>
    3703:	8b 55 f0             	mov    -0x10(%rbp),%edx
    3706:	48 63 d2             	movslq %edx,%rdx
    3709:	48 8d 0c d5 00 00 00 	lea    0x0(,%rdx,8),%rcx
    3710:	00 
    3711:	48 8d 15 68 57 01 00 	lea    0x15768(%rip),%rdx        # 18e80 <king_attacks>
    3718:	48 8b 14 11          	mov    (%rcx,%rdx,1),%rdx
    371c:	48 09 d0             	or     %rdx,%rax
    371f:	48 89 c1             	mov    %rax,%rcx
    3722:	8b 45 f0             	mov    -0x10(%rbp),%eax
    3725:	48 98                	cltq
    3727:	48 8d 14 c5 00 00 00 	lea    0x0(,%rax,8),%rdx
    372e:	00 
    372f:	48 8d 05 4a 57 01 00 	lea    0x1574a(%rip),%rax        # 18e80 <king_attacks>
    3736:	48 89 0c 02          	mov    %rcx,(%rdx,%rax,1)
    373a:	48 8b 45 f8          	mov    -0x8(%rbp),%rax
    373e:	48 89 c7             	mov    %rax,%rdi
    3741:	e8 cc 0a 00 00       	call   4212 <_Z7w_shiftm>
    3746:	8b 55 f0             	mov    -0x10(%rbp),%edx
    3749:	48 63 d2             	movslq %edx,%rdx
    374c:	48 8d 0c d5 00 00 00 	lea    0x0(,%rdx,8),%rcx
    3753:	00 
    3754:	48 8d 15 25 57 01 00 	lea    0x15725(%rip),%rdx        # 18e80 <king_attacks>
    375b:	48 8b 14 11          	mov    (%rcx,%rdx,1),%rdx
    375f:	48 09 d0             	or     %rdx,%rax
    3762:	48 89 c1             	mov    %rax,%rcx
    3765:	8b 45 f0             	mov    -0x10(%rbp),%eax
    3768:	48 98                	cltq
    376a:	48 8d 14 c5 00 00 00 	lea    0x0(,%rax,8),%rdx
    3771:	00 
    3772:	48 8d 05 07 57 01 00 	lea    0x15707(%rip),%rax        # 18e80 <king_attacks>
    3779:	48 89 0c 02          	mov    %rcx,(%rdx,%rax,1)
    377d:	48 8b 45 f8          	mov    -0x8(%rbp),%rax
    3781:	48 89 c7             	mov    %rax,%rdi
    3784:	e8 10 0b 00 00       	call   4299 <_Z8nw_shiftm>
    3789:	8b 55 f0             	mov    -0x10(%rbp),%edx
    378c:	48 63 d2             	movslq %edx,%rdx
    378f:	48 8d 0c d5 00 00 00 	lea    0x0(,%rdx,8),%rcx
    3796:	00 
    3797:	48 8d 15 e2 56 01 00 	lea    0x156e2(%rip),%rdx        # 18e80 <king_attacks>
    379e:	48 8b 14 11          	mov    (%rcx,%rdx,1),%rdx
    37a2:	48 09 d0             	or     %rdx,%rax
    37a5:	48 89 c1             	mov    %rax,%rcx
    37a8:	8b 45 f0             	mov    -0x10(%rbp),%eax
    37ab:	48 98                	cltq
    37ad:	48 8d 14 c5 00 00 00 	lea    0x0(,%rax,8),%rdx
    37b4:	00 
    37b5:	48 8d 05 c4 56 01 00 	lea    0x156c4(%rip),%rax        # 18e80 <king_attacks>
    37bc:	48 89 0c 02          	mov    %rcx,(%rdx,%rax,1)
    37c0:	ff 45 f0             	incl   -0x10(%rbp)
    37c3:	83 7d f0 3f          	cmpl   $0x3f,-0x10(%rbp)
    37c7:	0f 8e ca fd ff ff    	jle    3597 <_Z17init_leap_attacksv+0x5e>
    37cd:	c7 45 f4 00 00 00 00 	movl   $0x0,-0xc(%rbp)
    37d4:	e9 6c 02 00 00       	jmp    3a45 <_Z17init_leap_attacksv+0x50c>
    37d9:	8b 45 f4             	mov    -0xc(%rbp),%eax
    37dc:	ba 01 00 00 00       	mov    $0x1,%edx
    37e1:	c4 e2 f9 f7 c2       	shlx   %rax,%rdx,%rax
    37e6:	48 89 45 f8          	mov    %rax,-0x8(%rbp)
    37ea:	48 8b 45 f8          	mov    -0x8(%rbp),%rax
    37ee:	48 89 c7             	mov    %rax,%rdi
    37f1:	e8 d9 09 00 00       	call   41cf <_Z7n_shiftm>
    37f6:	48 89 c7             	mov    %rax,%rdi
    37f9:	e8 35 0a 00 00       	call   4233 <_Z8ne_shiftm>
    37fe:	8b 55 f4             	mov    -0xc(%rbp),%edx
    3801:	48 63 d2             	movslq %edx,%rdx
    3804:	48 8d 0c d5 00 00 00 	lea    0x0(,%rdx,8),%rcx
    380b:	00 
    380c:	48 8d 15 6d 54 01 00 	lea    0x1546d(%rip),%rdx        # 18c80 <knight_attacks>
    3813:	48 8b 14 11          	mov    (%rcx,%rdx,1),%rdx
    3817:	48 09 d0             	or     %rdx,%rax
    381a:	48 89 c1             	mov    %rax,%rcx
    381d:	8b 45 f4             	mov    -0xc(%rbp),%eax
    3820:	48 98                	cltq
    3822:	48 8d 14 c5 00 00 00 	lea    0x0(,%rax,8),%rdx
    3829:	00 
    382a:	48 8d 05 4f 54 01 00 	lea    0x1544f(%rip),%rax        # 18c80 <knight_attacks>
    3831:	48 89 0c 02          	mov    %rcx,(%rdx,%rax,1)
    3835:	48 8b 45 f8          	mov    -0x8(%rbp),%rax
    3839:	48 89 c7             	mov    %rax,%rdi
    383c:	e8 b2 09 00 00       	call   41f3 <_Z7e_shiftm>
    3841:	48 89 c7             	mov    %rax,%rdi
    3844:	e8 ea 09 00 00       	call   4233 <_Z8ne_shiftm>
    3849:	8b 55 f4             	mov    -0xc(%rbp),%edx
    384c:	48 63 d2             	movslq %edx,%rdx
    384f:	48 8d 0c d5 00 00 00 	lea    0x0(,%rdx,8),%rcx
    3856:	00 
    3857:	48 8d 15 22 54 01 00 	lea    0x15422(%rip),%rdx        # 18c80 <knight_attacks>
    385e:	48 8b 14 11          	mov    (%rcx,%rdx,1),%rdx
    3862:	48 09 d0             	or     %rdx,%rax
    3865:	48 89 c1             	mov    %rax,%rcx
    3868:	8b 45 f4             	mov    -0xc(%rbp),%eax
    386b:	48 98                	cltq
    386d:	48 8d 14 c5 00 00 00 	lea    0x0(,%rax,8),%rdx
    3874:	00 
    3875:	48 8d 05 04 54 01 00 	lea    0x15404(%rip),%rax        # 18c80 <knight_attacks>
    387c:	48 89 0c 02          	mov    %rcx,(%rdx,%rax,1)
    3880:	48 8b 45 f8          	mov    -0x8(%rbp),%rax
    3884:	48 89 c7             	mov    %rax,%rdi
    3887:	e8 67 09 00 00       	call   41f3 <_Z7e_shiftm>
    388c:	48 89 c7             	mov    %rax,%rdi
    388f:	e8 c1 09 00 00       	call   4255 <_Z8se_shiftm>
    3894:	8b 55 f4             	mov    -0xc(%rbp),%edx
    3897:	48 63 d2             	movslq %edx,%rdx
    389a:	48 8d 0c d5 00 00 00 	lea    0x0(,%rdx,8),%rcx
    38a1:	00 
    38a2:	48 8d 15 d7 53 01 00 	lea    0x153d7(%rip),%rdx        # 18c80 <knight_attacks>
    38a9:	48 8b 14 11          	mov    (%rcx,%rdx,1),%rdx
    38ad:	48 09 d0             	or     %rdx,%rax
    38b0:	48 89 c1             	mov    %rax,%rcx
    38b3:	8b 45 f4             	mov    -0xc(%rbp),%eax
    38b6:	48 98                	cltq
    38b8:	48 8d 14 c5 00 00 00 	lea    0x0(,%rax,8),%rdx
    38bf:	00 
    38c0:	48 8d 05 b9 53 01 00 	lea    0x153b9(%rip),%rax        # 18c80 <knight_attacks>
    38c7:	48 89 0c 02          	mov    %rcx,(%rdx,%rax,1)
    38cb:	48 8b 45 f8          	mov    -0x8(%rbp),%rax
    38cf:	48 89 c7             	mov    %rax,%rdi
    38d2:	e8 0a 09 00 00       	call   41e1 <_Z7s_shiftm>
    38d7:	48 89 c7             	mov    %rax,%rdi
    38da:	e8 76 09 00 00       	call   4255 <_Z8se_shiftm>
    38df:	8b 55 f4             	mov    -0xc(%rbp),%edx
    38e2:	48 63 d2             	movslq %edx,%rdx
    38e5:	48 8d 0c d5 00 00 00 	lea    0x0(,%rdx,8),%rcx
    38ec:	00 
    38ed:	48 8d 15 8c 53 01 00 	lea    0x1538c(%rip),%rdx        # 18c80 <knight_attacks>
    38f4:	48 8b 14 11          	mov    (%rcx,%rdx,1),%rdx
    38f8:	48 09 d0             	or     %rdx,%rax
    38fb:	48 89 c1             	mov    %rax,%rcx
    38fe:	8b 45 f4             	mov    -0xc(%rbp),%eax
    3901:	48 98                	cltq
    3903:	48 8d 14 c5 00 00 00 	lea    0x0(,%rax,8),%rdx
    390a:	00 
    390b:	48 8d 05 6e 53 01 00 	lea    0x1536e(%rip),%rax        # 18c80 <knight_attacks>
    3912:	48 89 0c 02          	mov    %rcx,(%rdx,%rax,1)
    3916:	48 8b 45 f8          	mov    -0x8(%rbp),%rax
    391a:	48 89 c7             	mov    %rax,%rdi
    391d:	e8 bf 08 00 00       	call   41e1 <_Z7s_shiftm>
    3922:	48 89 c7             	mov    %rax,%rdi
    3925:	e8 4d 09 00 00       	call   4277 <_Z8sw_shiftm>
    392a:	8b 55 f4             	mov    -0xc(%rbp),%edx
    392d:	48 63 d2             	movslq %edx,%rdx
    3930:	48 8d 0c d5 00 00 00 	lea    0x0(,%rdx,8),%rcx
    3937:	00 
    3938:	48 8d 15 41 53 01 00 	lea    0x15341(%rip),%rdx        # 18c80 <knight_attacks>
    393f:	48 8b 14 11          	mov    (%rcx,%rdx,1),%rdx
    3943:	48 09 d0             	or     %rdx,%rax
    3946:	48 89 c1             	mov    %rax,%rcx
    3949:	8b 45 f4             	mov    -0xc(%rbp),%eax
    394c:	48 98                	cltq
    394e:	48 8d 14 c5 00 00 00 	lea    0x0(,%rax,8),%rdx
    3955:	00 
    3956:	48 8d 05 23 53 01 00 	lea    0x15323(%rip),%rax        # 18c80 <knight_attacks>
    395d:	48 89 0c 02          	mov    %rcx,(%rdx,%rax,1)
    3961:	48 8b 45 f8          	mov    -0x8(%rbp),%rax
    3965:	48 89 c7             	mov    %rax,%rdi
    3968:	e8 a5 08 00 00       	call   4212 <_Z7w_shiftm>
    396d:	48 89 c7             	mov    %rax,%rdi
    3970:	e8 02 09 00 00       	call   4277 <_Z8sw_shiftm>
    3975:	8b 55 f4             	mov    -0xc(%rbp),%edx
    3978:	48 63 d2             	movslq %edx,%rdx
    397b:	48 8d 0c d5 00 00 00 	lea    0x0(,%rdx,8),%rcx
    3982:	00 
    3983:	48 8d 15 f6 52 01 00 	lea    0x152f6(%rip),%rdx        # 18c80 <knight_attacks>
    398a:	48 8b 14 11          	mov    (%rcx,%rdx,1),%rdx
    398e:	48 09 d0             	or     %rdx,%rax
    3991:	48 89 c1             	mov    %rax,%rcx
    3994:	8b 45 f4             	mov    -0xc(%rbp),%eax
    3997:	48 98                	cltq
    3999:	48 8d 14 c5 00 00 00 	lea    0x0(,%rax,8),%rdx
    39a0:	00 
    39a1:	48 8d 05 d8 52 01 00 	lea    0x152d8(%rip),%rax        # 18c80 <knight_attacks>
    39a8:	48 89 0c 02          	mov    %rcx,(%rdx,%rax,1)
    39ac:	48 8b 45 f8          	mov    -0x8(%rbp),%rax
    39b0:	48 89 c7             	mov    %rax,%rdi
    39b3:	e8 5a 08 00 00       	call   4212 <_Z7w_shiftm>
    39b8:	48 89 c7             	mov    %rax,%rdi
    39bb:	e8 d9 08 00 00       	call   4299 <_Z8nw_shiftm>
    39c0:	8b 55 f4             	mov    -0xc(%rbp),%edx
    39c3:	48 63 d2             	movslq %edx,%rdx
    39c6:	48 8d 0c d5 00 00 00 	lea    0x0(,%rdx,8),%rcx
    39cd:	00 
    39ce:	48 8d 15 ab 52 01 00 	lea    0x152ab(%rip),%rdx        # 18c80 <knight_attacks>
    39d5:	48 8b 14 11          	mov    (%rcx,%rdx,1),%rdx
    39d9:	48 09 d0             	or     %rdx,%rax
    39dc:	48 89 c1             	mov    %rax,%rcx
    39df:	8b 45 f4             	mov    -0xc(%rbp),%eax
    39e2:	48 98                	cltq
    39e4:	48 8d 14 c5 00 00 00 	lea    0x0(,%rax,8),%rdx
    39eb:	00 
    39ec:	48 8d 05 8d 52 01 00 	lea    0x1528d(%rip),%rax        # 18c80 <knight_attacks>
    39f3:	48 89 0c 02          	mov    %rcx,(%rdx,%rax,1)
    39f7:	48 8b 45 f8          	mov    -0x8(%rbp),%rax
    39fb:	48 89 c7             	mov    %rax,%rdi
    39fe:	e8 cc 07 00 00       	call   41cf <_Z7n_shiftm>
    3a03:	48 89 c7             	mov    %rax,%rdi
    3a06:	e8 8e 08 00 00       	call   4299 <_Z8nw_shiftm>
    3a0b:	8b 55 f4             	mov    -0xc(%rbp),%edx
    3a0e:	48 63 d2             	movslq %edx,%rdx
    3a11:	48 8d 0c d5 00 00 00 	lea    0x0(,%rdx,8),%rcx
    3a18:	00 
    3a19:	48 8d 15 60 52 01 00 	lea    0x15260(%rip),%rdx        # 18c80 <knight_attacks>
    3a20:	48 8b 14 11          	mov    (%rcx,%rdx,1),%rdx
    3a24:	48 09 d0             	or     %rdx,%rax
    3a27:	48 89 c1             	mov    %rax,%rcx
    3a2a:	8b 45 f4             	mov    -0xc(%rbp),%eax
    3a2d:	48 98                	cltq
    3a2f:	48 8d 14 c5 00 00 00 	lea    0x0(,%rax,8),%rdx
    3a36:	00 
    3a37:	48 8d 05 42 52 01 00 	lea    0x15242(%rip),%rax        # 18c80 <knight_attacks>
    3a3e:	48 89 0c 02          	mov    %rcx,(%rdx,%rax,1)
    3a42:	ff 45 f4             	incl   -0xc(%rbp)
    3a45:	83 7d f4 3f          	cmpl   $0x3f,-0xc(%rbp)
    3a49:	0f 8e 8a fd ff ff    	jle    37d9 <_Z17init_leap_attacksv+0x2a0>
    3a4f:	90                   	nop
    3a50:	90                   	nop
    3a51:	c9                   	leave
    3a52:	c3                   	ret

0000000000003a53 <_Z23init_bishop_occupanciesv>:
    3a53:	55                   	push   %rbp
    3a54:	48 89 e5             	mov    %rsp,%rbp
    3a57:	48 83 ec 20          	sub    $0x20,%rsp
    3a5b:	48 c7 45 e8 00 00 00 	movq   $0x0,-0x18(%rbp)
    3a62:	00 
    3a63:	c7 45 e4 00 00 00 00 	movl   $0x0,-0x1c(%rbp)
    3a6a:	e9 fb 00 00 00       	jmp    3b6a <_Z23init_bishop_occupanciesv+0x117>
    3a6f:	48 c7 45 e8 00 00 00 	movq   $0x0,-0x18(%rbp)
    3a76:	00 
    3a77:	8b 45 e4             	mov    -0x1c(%rbp),%eax
    3a7a:	ba 01 00 00 00       	mov    $0x1,%edx
    3a7f:	c4 e2 f9 f7 c2       	shlx   %rax,%rdx,%rax
    3a84:	48 89 45 f8          	mov    %rax,-0x8(%rbp)
    3a88:	48 8b 45 f8          	mov    -0x8(%rbp),%rax
    3a8c:	48 89 45 f0          	mov    %rax,-0x10(%rbp)
    3a90:	eb 08                	jmp    3a9a <_Z23init_bishop_occupanciesv+0x47>
    3a92:	48 8b 45 f0          	mov    -0x10(%rbp),%rax
    3a96:	48 09 45 e8          	or     %rax,-0x18(%rbp)
    3a9a:	48 8b 45 f0          	mov    -0x10(%rbp),%rax
    3a9e:	48 89 c7             	mov    %rax,%rdi
    3aa1:	e8 8d 07 00 00       	call   4233 <_Z8ne_shiftm>
    3aa6:	48 89 45 f0          	mov    %rax,-0x10(%rbp)
    3aaa:	48 83 7d f0 00       	cmpq   $0x0,-0x10(%rbp)
    3aaf:	0f 95 c0             	setne  %al
    3ab2:	84 c0                	test   %al,%al
    3ab4:	75 dc                	jne    3a92 <_Z23init_bishop_occupanciesv+0x3f>
    3ab6:	48 8b 45 f8          	mov    -0x8(%rbp),%rax
    3aba:	48 89 45 f0          	mov    %rax,-0x10(%rbp)
    3abe:	eb 08                	jmp    3ac8 <_Z23init_bishop_occupanciesv+0x75>
    3ac0:	48 8b 45 f0          	mov    -0x10(%rbp),%rax
    3ac4:	48 09 45 e8          	or     %rax,-0x18(%rbp)
    3ac8:	48 8b 45 f0          	mov    -0x10(%rbp),%rax
    3acc:	48 89 c7             	mov    %rax,%rdi
    3acf:	e8 81 07 00 00       	call   4255 <_Z8se_shiftm>
    3ad4:	48 89 45 f0          	mov    %rax,-0x10(%rbp)
    3ad8:	48 83 7d f0 00       	cmpq   $0x0,-0x10(%rbp)
    3add:	0f 95 c0             	setne  %al
    3ae0:	84 c0                	test   %al,%al
    3ae2:	75 dc                	jne    3ac0 <_Z23init_bishop_occupanciesv+0x6d>
    3ae4:	48 8b 45 f8          	mov    -0x8(%rbp),%rax
    3ae8:	48 89 45 f0          	mov    %rax,-0x10(%rbp)
    3aec:	eb 08                	jmp    3af6 <_Z23init_bishop_occupanciesv+0xa3>
    3aee:	48 8b 45 f0          	mov    -0x10(%rbp),%rax
    3af2:	48 09 45 e8          	or     %rax,-0x18(%rbp)
    3af6:	48 8b 45 f0          	mov    -0x10(%rbp),%rax
    3afa:	48 89 c7             	mov    %rax,%rdi
    3afd:	e8 75 07 00 00       	call   4277 <_Z8sw_shiftm>
    3b02:	48 89 45 f0          	mov    %rax,-0x10(%rbp)
    3b06:	48 83 7d f0 00       	cmpq   $0x0,-0x10(%rbp)
    3b0b:	0f 95 c0             	setne  %al
    3b0e:	84 c0                	test   %al,%al
    3b10:	75 dc                	jne    3aee <_Z23init_bishop_occupanciesv+0x9b>
    3b12:	48 8b 45 f8          	mov    -0x8(%rbp),%rax
    3b16:	48 89 45 f0          	mov    %rax,-0x10(%rbp)
    3b1a:	eb 08                	jmp    3b24 <_Z23init_bishop_occupanciesv+0xd1>
    3b1c:	48 8b 45 f0          	mov    -0x10(%rbp),%rax
    3b20:	48 09 45 e8          	or     %rax,-0x18(%rbp)
    3b24:	48 8b 45 f0          	mov    -0x10(%rbp),%rax
    3b28:	48 89 c7             	mov    %rax,%rdi
    3b2b:	e8 69 07 00 00       	call   4299 <_Z8nw_shiftm>
    3b30:	48 89 45 f0          	mov    %rax,-0x10(%rbp)
    3b34:	48 83 7d f0 00       	cmpq   $0x0,-0x10(%rbp)
    3b39:	0f 95 c0             	setne  %al
    3b3c:	84 c0                	test   %al,%al
    3b3e:	75 dc                	jne    3b1c <_Z23init_bishop_occupanciesv+0xc9>
    3b40:	48 b8 00 7e 7e 7e 7e 	movabs $0x7e7e7e7e7e7e00,%rax
    3b47:	7e 7e 00 
    3b4a:	48 23 45 e8          	and    -0x18(%rbp),%rax
    3b4e:	8b 55 e4             	mov    -0x1c(%rbp),%edx
    3b51:	48 63 d2             	movslq %edx,%rdx
    3b54:	48 8d 0c d5 00 00 00 	lea    0x0(,%rdx,8),%rcx
    3b5b:	00 
    3b5c:	48 8d 15 1d 55 01 00 	lea    0x1551d(%rip),%rdx        # 19080 <bishop_occupancies>
    3b63:	48 89 04 11          	mov    %rax,(%rcx,%rdx,1)
    3b67:	ff 45 e4             	incl   -0x1c(%rbp)
    3b6a:	83 7d e4 3f          	cmpl   $0x3f,-0x1c(%rbp)
    3b6e:	0f 8e fb fe ff ff    	jle    3a6f <_Z23init_bishop_occupanciesv+0x1c>
    3b74:	90                   	nop
    3b75:	90                   	nop
    3b76:	c9                   	leave
    3b77:	c3                   	ret

0000000000003b78 <_Z21init_rook_occupanciesv>:
    3b78:	55                   	push   %rbp
    3b79:	48 89 e5             	mov    %rsp,%rbp
    3b7c:	48 83 ec 20          	sub    $0x20,%rsp
    3b80:	48 c7 45 e8 00 00 00 	movq   $0x0,-0x18(%rbp)
    3b87:	00 
    3b88:	c7 45 e4 00 00 00 00 	movl   $0x0,-0x1c(%rbp)
    3b8f:	e9 10 01 00 00       	jmp    3ca4 <_Z21init_rook_occupanciesv+0x12c>
    3b94:	48 c7 45 e8 00 00 00 	movq   $0x0,-0x18(%rbp)
    3b9b:	00 
    3b9c:	8b 45 e4             	mov    -0x1c(%rbp),%eax
    3b9f:	ba 01 00 00 00       	mov    $0x1,%edx
    3ba4:	c4 e2 f9 f7 c2       	shlx   %rax,%rdx,%rax
    3ba9:	48 89 45 f8          	mov    %rax,-0x8(%rbp)
    3bad:	48 8b 45 f8          	mov    -0x8(%rbp),%rax
    3bb1:	48 89 45 f0          	mov    %rax,-0x10(%rbp)
    3bb5:	eb 12                	jmp    3bc9 <_Z21init_rook_occupanciesv+0x51>
    3bb7:	48 b8 ff ff ff ff ff 	movabs $0xffffffffffffff,%rax
    3bbe:	ff ff 00 
    3bc1:	48 23 45 f0          	and    -0x10(%rbp),%rax
    3bc5:	48 09 45 e8          	or     %rax,-0x18(%rbp)
    3bc9:	48 8b 45 f0          	mov    -0x10(%rbp),%rax
    3bcd:	48 89 c7             	mov    %rax,%rdi
    3bd0:	e8 fa 05 00 00       	call   41cf <_Z7n_shiftm>
    3bd5:	48 89 45 f0          	mov    %rax,-0x10(%rbp)
    3bd9:	48 83 7d f0 00       	cmpq   $0x0,-0x10(%rbp)
    3bde:	0f 95 c0             	setne  %al
    3be1:	84 c0                	test   %al,%al
    3be3:	75 d2                	jne    3bb7 <_Z21init_rook_occupanciesv+0x3f>
    3be5:	48 8b 45 f8          	mov    -0x8(%rbp),%rax
    3be9:	48 89 45 f0          	mov    %rax,-0x10(%rbp)
    3bed:	eb 12                	jmp    3c01 <_Z21init_rook_occupanciesv+0x89>
    3bef:	48 b8 7f 7f 7f 7f 7f 	movabs $0x7f7f7f7f7f7f7f7f,%rax
    3bf6:	7f 7f 7f 
    3bf9:	48 23 45 f0          	and    -0x10(%rbp),%rax
    3bfd:	48 09 45 e8          	or     %rax,-0x18(%rbp)
    3c01:	48 8b 45 f0          	mov    -0x10(%rbp),%rax
    3c05:	48 89 c7             	mov    %rax,%rdi
    3c08:	e8 e6 05 00 00       	call   41f3 <_Z7e_shiftm>
    3c0d:	48 89 45 f0          	mov    %rax,-0x10(%rbp)
    3c11:	48 83 7d f0 00       	cmpq   $0x0,-0x10(%rbp)
    3c16:	0f 95 c0             	setne  %al
    3c19:	84 c0                	test   %al,%al
    3c1b:	75 d2                	jne    3bef <_Z21init_rook_occupanciesv+0x77>
    3c1d:	48 8b 45 f8          	mov    -0x8(%rbp),%rax
    3c21:	48 89 45 f0          	mov    %rax,-0x10(%rbp)
    3c25:	eb 0a                	jmp    3c31 <_Z21init_rook_occupanciesv+0xb9>
    3c27:	48 8b 45 f0          	mov    -0x10(%rbp),%rax
    3c2b:	b0 00                	mov    $0x0,%al
    3c2d:	48 09 45 e8          	or     %rax,-0x18(%rbp)
    3c31:	48 8b 45 f0          	mov    -0x10(%rbp),%rax
    3c35:	48 89 c7             	mov    %rax,%rdi
    3c38:	e8 a4 05 00 00       	call   41e1 <_Z7s_shiftm>
    3c3d:	48 89 45 f0          	mov    %rax,-0x10(%rbp)
    3c41:	48 83 7d f0 00       	cmpq   $0x0,-0x10(%rbp)
    3c46:	0f 95 c0             	setne  %al
    3c49:	84 c0                	test   %al,%al
    3c4b:	75 da                	jne    3c27 <_Z21init_rook_occupanciesv+0xaf>
    3c4d:	48 8b 45 f8          	mov    -0x8(%rbp),%rax
    3c51:	48 89 45 f0          	mov    %rax,-0x10(%rbp)
    3c55:	eb 12                	jmp    3c69 <_Z21init_rook_occupanciesv+0xf1>
    3c57:	48 b8 fe fe fe fe fe 	movabs $0xfefefefefefefefe,%rax
    3c5e:	fe fe fe 
    3c61:	48 23 45 f0          	and    -0x10(%rbp),%rax
    3c65:	48 09 45 e8          	or     %rax,-0x18(%rbp)
    3c69:	48 8b 45 f0          	mov    -0x10(%rbp),%rax
    3c6d:	48 89 c7             	mov    %rax,%rdi
    3c70:	e8 9d 05 00 00       	call   4212 <_Z7w_shiftm>
    3c75:	48 89 45 f0          	mov    %rax,-0x10(%rbp)
    3c79:	48 83 7d f0 00       	cmpq   $0x0,-0x10(%rbp)
    3c7e:	0f 95 c0             	setne  %al
    3c81:	84 c0                	test   %al,%al
    3c83:	75 d2                	jne    3c57 <_Z21init_rook_occupanciesv+0xdf>
    3c85:	8b 45 e4             	mov    -0x1c(%rbp),%eax
    3c88:	48 98                	cltq
    3c8a:	48 8d 14 c5 00 00 00 	lea    0x0(,%rax,8),%rdx
    3c91:	00 
    3c92:	48 8d 05 e7 55 01 00 	lea    0x155e7(%rip),%rax        # 19280 <rook_occupancies>
    3c99:	48 8b 4d e8          	mov    -0x18(%rbp),%rcx
    3c9d:	48 89 0c 02          	mov    %rcx,(%rdx,%rax,1)
    3ca1:	ff 45 e4             	incl   -0x1c(%rbp)
    3ca4:	83 7d e4 3f          	cmpl   $0x3f,-0x1c(%rbp)
    3ca8:	0f 8e e6 fe ff ff    	jle    3b94 <_Z21init_rook_occupanciesv+0x1c>
    3cae:	90                   	nop
    3caf:	90                   	nop
    3cb0:	c9                   	leave
    3cb1:	c3                   	ret

0000000000003cb2 <_Z16generate_attacksILi3EEmim>:
    3cb2:	55                   	push   %rbp
    3cb3:	48 89 e5             	mov    %rsp,%rbp
    3cb6:	48 83 ec 30          	sub    $0x30,%rsp
    3cba:	89 7d dc             	mov    %edi,-0x24(%rbp)
    3cbd:	48 89 75 d0          	mov    %rsi,-0x30(%rbp)
    3cc1:	48 c7 45 e8 00 00 00 	movq   $0x0,-0x18(%rbp)
    3cc8:	00 
    3cc9:	8b 45 dc             	mov    -0x24(%rbp),%eax
    3ccc:	ba 01 00 00 00       	mov    $0x1,%edx
    3cd1:	c4 e2 f9 f7 c2       	shlx   %rax,%rdx,%rax
    3cd6:	48 89 45 f8          	mov    %rax,-0x8(%rbp)
    3cda:	48 8b 45 f8          	mov    -0x8(%rbp),%rax
    3cde:	48 89 45 f0          	mov    %rax,-0x10(%rbp)
    3ce2:	eb 15                	jmp    3cf9 <_Z16generate_attacksILi3EEmim+0x47>
    3ce4:	48 8b 45 f0          	mov    -0x10(%rbp),%rax
    3ce8:	48 09 45 e8          	or     %rax,-0x18(%rbp)
    3cec:	48 8b 45 f0          	mov    -0x10(%rbp),%rax
    3cf0:	48 23 45 d0          	and    -0x30(%rbp),%rax
    3cf4:	48 85 c0             	test   %rax,%rax
    3cf7:	75 1e                	jne    3d17 <_Z16generate_attacksILi3EEmim+0x65>
    3cf9:	48 8b 45 f0          	mov    -0x10(%rbp),%rax
    3cfd:	48 89 c7             	mov    %rax,%rdi
    3d00:	e8 2e 05 00 00       	call   4233 <_Z8ne_shiftm>
    3d05:	48 89 45 f0          	mov    %rax,-0x10(%rbp)
    3d09:	48 83 7d f0 00       	cmpq   $0x0,-0x10(%rbp)
    3d0e:	0f 95 c0             	setne  %al
    3d11:	84 c0                	test   %al,%al
    3d13:	75 cf                	jne    3ce4 <_Z16generate_attacksILi3EEmim+0x32>
    3d15:	eb 01                	jmp    3d18 <_Z16generate_attacksILi3EEmim+0x66>
    3d17:	90                   	nop
    3d18:	48 8b 45 f8          	mov    -0x8(%rbp),%rax
    3d1c:	48 89 45 f0          	mov    %rax,-0x10(%rbp)
    3d20:	eb 15                	jmp    3d37 <_Z16generate_attacksILi3EEmim+0x85>
    3d22:	48 8b 45 f0          	mov    -0x10(%rbp),%rax
    3d26:	48 09 45 e8          	or     %rax,-0x18(%rbp)
    3d2a:	48 8b 45 f0          	mov    -0x10(%rbp),%rax
    3d2e:	48 23 45 d0          	and    -0x30(%rbp),%rax
    3d32:	48 85 c0             	test   %rax,%rax
    3d35:	75 1e                	jne    3d55 <_Z16generate_attacksILi3EEmim+0xa3>
    3d37:	48 8b 45 f0          	mov    -0x10(%rbp),%rax
    3d3b:	48 89 c7             	mov    %rax,%rdi
    3d3e:	e8 12 05 00 00       	call   4255 <_Z8se_shiftm>
    3d43:	48 89 45 f0          	mov    %rax,-0x10(%rbp)
    3d47:	48 83 7d f0 00       	cmpq   $0x0,-0x10(%rbp)
    3d4c:	0f 95 c0             	setne  %al
    3d4f:	84 c0                	test   %al,%al
    3d51:	75 cf                	jne    3d22 <_Z16generate_attacksILi3EEmim+0x70>
    3d53:	eb 01                	jmp    3d56 <_Z16generate_attacksILi3EEmim+0xa4>
    3d55:	90                   	nop
    3d56:	48 8b 45 f8          	mov    -0x8(%rbp),%rax
    3d5a:	48 89 45 f0          	mov    %rax,-0x10(%rbp)
    3d5e:	eb 15                	jmp    3d75 <_Z16generate_attacksILi3EEmim+0xc3>
    3d60:	48 8b 45 f0          	mov    -0x10(%rbp),%rax
    3d64:	48 09 45 e8          	or     %rax,-0x18(%rbp)
    3d68:	48 8b 45 f0          	mov    -0x10(%rbp),%rax
    3d6c:	48 23 45 d0          	and    -0x30(%rbp),%rax
    3d70:	48 85 c0             	test   %rax,%rax
    3d73:	75 1e                	jne    3d93 <_Z16generate_attacksILi3EEmim+0xe1>
    3d75:	48 8b 45 f0          	mov    -0x10(%rbp),%rax
    3d79:	48 89 c7             	mov    %rax,%rdi
    3d7c:	e8 f6 04 00 00       	call   4277 <_Z8sw_shiftm>
    3d81:	48 89 45 f0          	mov    %rax,-0x10(%rbp)
    3d85:	48 83 7d f0 00       	cmpq   $0x0,-0x10(%rbp)
    3d8a:	0f 95 c0             	setne  %al
    3d8d:	84 c0                	test   %al,%al
    3d8f:	75 cf                	jne    3d60 <_Z16generate_attacksILi3EEmim+0xae>
    3d91:	eb 01                	jmp    3d94 <_Z16generate_attacksILi3EEmim+0xe2>
    3d93:	90                   	nop
    3d94:	48 8b 45 f8          	mov    -0x8(%rbp),%rax
    3d98:	48 89 45 f0          	mov    %rax,-0x10(%rbp)
    3d9c:	eb 15                	jmp    3db3 <_Z16generate_attacksILi3EEmim+0x101>
    3d9e:	48 8b 45 f0          	mov    -0x10(%rbp),%rax
    3da2:	48 09 45 e8          	or     %rax,-0x18(%rbp)
    3da6:	48 8b 45 f0          	mov    -0x10(%rbp),%rax
    3daa:	48 23 45 d0          	and    -0x30(%rbp),%rax
    3dae:	48 85 c0             	test   %rax,%rax
    3db1:	75 1e                	jne    3dd1 <_Z16generate_attacksILi3EEmim+0x11f>
    3db3:	48 8b 45 f0          	mov    -0x10(%rbp),%rax
    3db7:	48 89 c7             	mov    %rax,%rdi
    3dba:	e8 da 04 00 00       	call   4299 <_Z8nw_shiftm>
    3dbf:	48 89 45 f0          	mov    %rax,-0x10(%rbp)
    3dc3:	48 83 7d f0 00       	cmpq   $0x0,-0x10(%rbp)
    3dc8:	0f 95 c0             	setne  %al
    3dcb:	84 c0                	test   %al,%al
    3dcd:	75 cf                	jne    3d9e <_Z16generate_attacksILi3EEmim+0xec>
    3dcf:	eb 01                	jmp    3dd2 <_Z16generate_attacksILi3EEmim+0x120>
    3dd1:	90                   	nop
    3dd2:	48 8b 45 e8          	mov    -0x18(%rbp),%rax
    3dd6:	c9                   	leave
    3dd7:	c3                   	ret

0000000000003dd8 <_Z16generate_attacksILi4EEmim>:
    3dd8:	55                   	push   %rbp
    3dd9:	48 89 e5             	mov    %rsp,%rbp
    3ddc:	48 83 ec 30          	sub    $0x30,%rsp
    3de0:	89 7d dc             	mov    %edi,-0x24(%rbp)
    3de3:	48 89 75 d0          	mov    %rsi,-0x30(%rbp)
    3de7:	48 c7 45 e8 00 00 00 	movq   $0x0,-0x18(%rbp)
    3dee:	00 
    3def:	8b 45 dc             	mov    -0x24(%rbp),%eax
    3df2:	ba 01 00 00 00       	mov    $0x1,%edx
    3df7:	c4 e2 f9 f7 c2       	shlx   %rax,%rdx,%rax
    3dfc:	48 89 45 f8          	mov    %rax,-0x8(%rbp)
    3e00:	48 8b 45 f8          	mov    -0x8(%rbp),%rax
    3e04:	48 89 45 f0          	mov    %rax,-0x10(%rbp)
    3e08:	eb 15                	jmp    3e1f <_Z16generate_attacksILi4EEmim+0x47>
    3e0a:	48 8b 45 f0          	mov    -0x10(%rbp),%rax
    3e0e:	48 09 45 e8          	or     %rax,-0x18(%rbp)
    3e12:	48 8b 45 f0          	mov    -0x10(%rbp),%rax
    3e16:	48 23 45 d0          	and    -0x30(%rbp),%rax
    3e1a:	48 85 c0             	test   %rax,%rax
    3e1d:	75 1e                	jne    3e3d <_Z16generate_attacksILi4EEmim+0x65>
    3e1f:	48 8b 45 f0          	mov    -0x10(%rbp),%rax
    3e23:	48 89 c7             	mov    %rax,%rdi
    3e26:	e8 a4 03 00 00       	call   41cf <_Z7n_shiftm>
    3e2b:	48 89 45 f0          	mov    %rax,-0x10(%rbp)
    3e2f:	48 83 7d f0 00       	cmpq   $0x0,-0x10(%rbp)
    3e34:	0f 95 c0             	setne  %al
    3e37:	84 c0                	test   %al,%al
    3e39:	75 cf                	jne    3e0a <_Z16generate_attacksILi4EEmim+0x32>
    3e3b:	eb 01                	jmp    3e3e <_Z16generate_attacksILi4EEmim+0x66>
    3e3d:	90                   	nop
    3e3e:	48 8b 45 f8          	mov    -0x8(%rbp),%rax
    3e42:	48 89 45 f0          	mov    %rax,-0x10(%rbp)
    3e46:	eb 15                	jmp    3e5d <_Z16generate_attacksILi4EEmim+0x85>
    3e48:	48 8b 45 f0          	mov    -0x10(%rbp),%rax
    3e4c:	48 09 45 e8          	or     %rax,-0x18(%rbp)
    3e50:	48 8b 45 f0          	mov    -0x10(%rbp),%rax
    3e54:	48 23 45 d0          	and    -0x30(%rbp),%rax
    3e58:	48 85 c0             	test   %rax,%rax
    3e5b:	75 1e                	jne    3e7b <_Z16generate_attacksILi4EEmim+0xa3>
    3e5d:	48 8b 45 f0          	mov    -0x10(%rbp),%rax
    3e61:	48 89 c7             	mov    %rax,%rdi
    3e64:	e8 8a 03 00 00       	call   41f3 <_Z7e_shiftm>
    3e69:	48 89 45 f0          	mov    %rax,-0x10(%rbp)
    3e6d:	48 83 7d f0 00       	cmpq   $0x0,-0x10(%rbp)
    3e72:	0f 95 c0             	setne  %al
    3e75:	84 c0                	test   %al,%al
    3e77:	75 cf                	jne    3e48 <_Z16generate_attacksILi4EEmim+0x70>
    3e79:	eb 01                	jmp    3e7c <_Z16generate_attacksILi4EEmim+0xa4>
    3e7b:	90                   	nop
    3e7c:	48 8b 45 f8          	mov    -0x8(%rbp),%rax
    3e80:	48 89 45 f0          	mov    %rax,-0x10(%rbp)
    3e84:	eb 15                	jmp    3e9b <_Z16generate_attacksILi4EEmim+0xc3>
    3e86:	48 8b 45 f0          	mov    -0x10(%rbp),%rax
    3e8a:	48 09 45 e8          	or     %rax,-0x18(%rbp)
    3e8e:	48 8b 45 f0          	mov    -0x10(%rbp),%rax
    3e92:	48 23 45 d0          	and    -0x30(%rbp),%rax
    3e96:	48 85 c0             	test   %rax,%rax
    3e99:	75 1e                	jne    3eb9 <_Z16generate_attacksILi4EEmim+0xe1>
    3e9b:	48 8b 45 f0          	mov    -0x10(%rbp),%rax
    3e9f:	48 89 c7             	mov    %rax,%rdi
    3ea2:	e8 3a 03 00 00       	call   41e1 <_Z7s_shiftm>
    3ea7:	48 89 45 f0          	mov    %rax,-0x10(%rbp)
    3eab:	48 83 7d f0 00       	cmpq   $0x0,-0x10(%rbp)
    3eb0:	0f 95 c0             	setne  %al
    3eb3:	84 c0                	test   %al,%al
    3eb5:	75 cf                	jne    3e86 <_Z16generate_attacksILi4EEmim+0xae>
    3eb7:	eb 01                	jmp    3eba <_Z16generate_attacksILi4EEmim+0xe2>
    3eb9:	90                   	nop
    3eba:	48 8b 45 f8          	mov    -0x8(%rbp),%rax
    3ebe:	48 89 45 f0          	mov    %rax,-0x10(%rbp)
    3ec2:	eb 15                	jmp    3ed9 <_Z16generate_attacksILi4EEmim+0x101>
    3ec4:	48 8b 45 f0          	mov    -0x10(%rbp),%rax
    3ec8:	48 09 45 e8          	or     %rax,-0x18(%rbp)
    3ecc:	48 8b 45 f0          	mov    -0x10(%rbp),%rax
    3ed0:	48 23 45 d0          	and    -0x30(%rbp),%rax
    3ed4:	48 85 c0             	test   %rax,%rax
    3ed7:	75 1e                	jne    3ef7 <_Z16generate_attacksILi4EEmim+0x11f>
    3ed9:	48 8b 45 f0          	mov    -0x10(%rbp),%rax
    3edd:	48 89 c7             	mov    %rax,%rdi
    3ee0:	e8 2d 03 00 00       	call   4212 <_Z7w_shiftm>
    3ee5:	48 89 45 f0          	mov    %rax,-0x10(%rbp)
    3ee9:	48 83 7d f0 00       	cmpq   $0x0,-0x10(%rbp)
    3eee:	0f 95 c0             	setne  %al
    3ef1:	84 c0                	test   %al,%al
    3ef3:	75 cf                	jne    3ec4 <_Z16generate_attacksILi4EEmim+0xec>
    3ef5:	eb 01                	jmp    3ef8 <_Z16generate_attacksILi4EEmim+0x120>
    3ef7:	90                   	nop
    3ef8:	48 8b 45 e8          	mov    -0x18(%rbp),%rax
    3efc:	c9                   	leave
    3efd:	c3                   	ret

0000000000003efe <_Z19init_slider_attacksv>:
    3efe:	55                   	push   %rbp
    3eff:	48 89 e5             	mov    %rsp,%rbp
    3f02:	c7 45 fc 00 00 00 00 	movl   $0x0,-0x4(%rbp)
    3f09:	eb 3b                	jmp    3f46 <_Z19init_slider_attacksv+0x48>
    3f0b:	8b 45 fc             	mov    -0x4(%rbp),%eax
    3f0e:	48 98                	cltq
    3f10:	48 8d 14 c5 00 00 00 	lea    0x0(,%rax,8),%rdx
    3f17:	00 
    3f18:	48 8d 05 61 55 01 00 	lea    0x15561(%rip),%rax        # 19480 <bishop_attacks>
    3f1f:	48 c7 04 02 00 00 00 	movq   $0x0,(%rdx,%rax,1)
    3f26:	00 
    3f27:	8b 45 fc             	mov    -0x4(%rbp),%eax
    3f2a:	48 98                	cltq
    3f2c:	48 8d 14 c5 00 00 00 	lea    0x0(,%rax,8),%rdx
    3f33:	00 
    3f34:	48 8d 05 45 f9 01 00 	lea    0x1f945(%rip),%rax        # 23880 <rook_attacks>
    3f3b:	48 c7 04 02 00 00 00 	movq   $0x0,(%rdx,%rax,1)
    3f42:	00 
    3f43:	ff 45 fc             	incl   -0x4(%rbp)
    3f46:	83 7d fc 3f          	cmpl   $0x3f,-0x4(%rbp)
    3f4a:	7e bf                	jle    3f0b <_Z19init_slider_attacksv+0xd>
    3f4c:	90                   	nop
    3f4d:	90                   	nop
    3f4e:	5d                   	pop    %rbp
    3f4f:	c3                   	ret

0000000000003f50 <_Z41__static_initialization_and_destruction_0v>:
    3f50:	55                   	push   %rbp
    3f51:	48 89 e5             	mov    %rsp,%rbp
    3f54:	41 52                	push   %r10
    3f56:	53                   	push   %rbx
    3f57:	48 83 c4 80          	add    $0xffffffffffffff80,%rsp
    3f5b:	4c 8d 55 10          	lea    0x10(%rbp),%r10
    3f5f:	64 48 8b 0c 25 28 00 	mov    %fs:0x28,%rcx
    3f66:	00 00 
    3f68:	48 89 4d e8          	mov    %rcx,-0x18(%rbp)
    3f6c:	31 c9                	xor    %ecx,%ecx
    3f6e:	48 8d 0d 43 89 0e 00 	lea    0xe8943(%rip),%rcx        # ec8b8 <_ZGV13char_to_piece>
    3f75:	0f b6 09             	movzbl (%rcx),%ecx
    3f78:	84 c9                	test   %cl,%cl
    3f7a:	0f 85 71 01 00 00    	jne    40f1 <_Z41__static_initialization_and_destruction_0v+0x1a1>
    3f80:	48 8d 0d 31 89 0e 00 	lea    0xe8931(%rip),%rcx        # ec8b8 <_ZGV13char_to_piece>
    3f87:	c6 01 01             	movb   $0x1,(%rcx)
    3f8a:	c5 f9 ef c0          	vpxor  %xmm0,%xmm0,%xmm0
    3f8e:	c5 fe 7f 45 80       	vmovdqu %ymm0,-0x80(%rbp)
    3f93:	c5 fe 7f 45 a0       	vmovdqu %ymm0,-0x60(%rbp)
    3f98:	c5 fe 7f 45 c0       	vmovdqu %ymm0,-0x40(%rbp)
    3f9d:	c5 f9 d6 45 e0       	vmovq  %xmm0,-0x20(%rbp)
    3fa2:	c6 45 80 30          	movb   $0x30,-0x80(%rbp)
    3fa6:	c6 45 88 50          	movb   $0x50,-0x78(%rbp)
    3faa:	c7 45 8c 01 00 00 00 	movl   $0x1,-0x74(%rbp)
    3fb1:	c6 45 90 52          	movb   $0x52,-0x70(%rbp)
    3fb5:	c7 45 94 04 00 00 00 	movl   $0x4,-0x6c(%rbp)
    3fbc:	c6 45 98 4e          	movb   $0x4e,-0x68(%rbp)
    3fc0:	c7 45 9c 02 00 00 00 	movl   $0x2,-0x64(%rbp)
    3fc7:	c6 45 a0 42          	movb   $0x42,-0x60(%rbp)
    3fcb:	c7 45 a4 03 00 00 00 	movl   $0x3,-0x5c(%rbp)
    3fd2:	c6 45 a8 51          	movb   $0x51,-0x58(%rbp)
    3fd6:	c7 45 ac 05 00 00 00 	movl   $0x5,-0x54(%rbp)
    3fdd:	c6 45 b0 4b          	movb   $0x4b,-0x50(%rbp)
    3fe1:	c7 45 b4 06 00 00 00 	movl   $0x6,-0x4c(%rbp)
    3fe8:	c6 45 b8 70          	movb   $0x70,-0x48(%rbp)
    3fec:	c7 45 bc 09 00 00 00 	movl   $0x9,-0x44(%rbp)
    3ff3:	c6 45 c0 6e          	movb   $0x6e,-0x40(%rbp)
    3ff7:	c7 45 c4 0a 00 00 00 	movl   $0xa,-0x3c(%rbp)
    3ffe:	c6 45 c8 72          	movb   $0x72,-0x38(%rbp)
    4002:	c7 45 cc 0c 00 00 00 	movl   $0xc,-0x34(%rbp)
    4009:	c6 45 d0 62          	movb   $0x62,-0x30(%rbp)
    400d:	c7 45 d4 0b 00 00 00 	movl   $0xb,-0x2c(%rbp)
    4014:	c6 45 d8 71          	movb   $0x71,-0x28(%rbp)
    4018:	c7 45 dc 0d 00 00 00 	movl   $0xd,-0x24(%rbp)
    401f:	c6 45 e0 6b          	movb   $0x6b,-0x20(%rbp)
    4023:	c7 45 e4 0e 00 00 00 	movl   $0xe,-0x1c(%rbp)
    402a:	48 8d 4d 80          	lea    -0x80(%rbp),%rcx
    402e:	48 89 c8             	mov    %rcx,%rax
    4031:	ba 0d 00 00 00       	mov    $0xd,%edx
    4036:	48 8d 8d 77 ff ff ff 	lea    -0x89(%rbp),%rcx
    403d:	48 89 8d 78 ff ff ff 	mov    %rcx,-0x88(%rbp)
    4044:	90                   	nop
    4045:	90                   	nop
    4046:	48 8d b5 76 ff ff ff 	lea    -0x8a(%rbp),%rsi
    404d:	48 8d 8d 75 ff ff ff 	lea    -0x8b(%rbp),%rcx
    4054:	49 89 c0             	mov    %rax,%r8
    4057:	49 89 d1             	mov    %rdx,%r9
    405a:	4c 89 c7             	mov    %r8,%rdi
    405d:	48 83 ec 08          	sub    $0x8,%rsp
    4061:	48 8d 85 77 ff ff ff 	lea    -0x89(%rbp),%rax
    4068:	50                   	push   %rax
    4069:	49 89 f1             	mov    %rsi,%r9
    406c:	49 89 c8             	mov    %rcx,%r8
    406f:	b9 00 00 00 00       	mov    $0x0,%ecx
    4074:	48 89 fe             	mov    %rdi,%rsi
    4077:	48 8d 05 02 88 0e 00 	lea    0xe8802(%rip),%rax        # ec880 <char_to_piece>
    407e:	48 89 c7             	mov    %rax,%rdi
    4081:	e8 36 02 00 00       	call   42bc <_ZNSt13unordered_mapIciSt4hashIcESt8equal_toIcESaISt4pairIKciEEEC1ESt16initializer_listIS6_EmRKS1_RKS3_RKS7_>
    4086:	48 83 c4 10          	add    $0x10,%rsp
    408a:	48 8d 85 77 ff ff ff 	lea    -0x89(%rbp),%rax
    4091:	48 89 c7             	mov    %rax,%rdi
    4094:	e8 8f 02 00 00       	call   4328 <_ZNSt15__new_allocatorISt4pairIKciEED1Ev>
    4099:	90                   	nop
    409a:	48 8d 05 67 41 01 00 	lea    0x14167(%rip),%rax        # 18208 <__dso_handle>
    40a1:	48 89 c2             	mov    %rax,%rdx
    40a4:	48 8d 05 d5 87 0e 00 	lea    0xe87d5(%rip),%rax        # ec880 <char_to_piece>
    40ab:	48 89 c6             	mov    %rax,%rsi
    40ae:	48 8d 05 ff 1f 00 00 	lea    0x1fff(%rip),%rax        # 60b4 <_ZNSt13unordered_mapIciSt4hashIcESt8equal_toIcESaISt4pairIKciEEED1Ev>
    40b5:	48 89 c7             	mov    %rax,%rdi
    40b8:	e8 43 f1 ff ff       	call   3200 <__cxa_atexit@plt>
    40bd:	eb 32                	jmp    40f1 <_Z41__static_initialization_and_destruction_0v+0x1a1>
    40bf:	48 89 c3             	mov    %rax,%rbx
    40c2:	48 8d 85 77 ff ff ff 	lea    -0x89(%rbp),%rax
    40c9:	48 89 c7             	mov    %rax,%rdi
    40cc:	e8 57 02 00 00       	call   4328 <_ZNSt15__new_allocatorISt4pairIKciEED1Ev>
    40d1:	90                   	nop
    40d2:	48 89 d8             	mov    %rbx,%rax
    40d5:	48 8b 55 e8          	mov    -0x18(%rbp),%rdx
    40d9:	64 48 2b 14 25 28 00 	sub    %fs:0x28,%rdx
    40e0:	00 00 
    40e2:	74 05                	je     40e9 <_Z41__static_initialization_and_destruction_0v+0x199>
    40e4:	e8 b7 f1 ff ff       	call   32a0 <__stack_chk_fail@plt>
    40e9:	48 89 c7             	mov    %rax,%rdi
    40ec:	e8 df f2 ff ff       	call   33d0 <_Unwind_Resume@plt>
    40f1:	90                   	nop
    40f2:	48 8b 45 e8          	mov    -0x18(%rbp),%rax
    40f6:	64 48 2b 04 25 28 00 	sub    %fs:0x28,%rax
    40fd:	00 00 
    40ff:	74 05                	je     4106 <_Z41__static_initialization_and_destruction_0v+0x1b6>
    4101:	e8 9a f1 ff ff       	call   32a0 <__stack_chk_fail@plt>
    4106:	48 8d 65 f0          	lea    -0x10(%rbp),%rsp
    410a:	5b                   	pop    %rbx
    410b:	41 5a                	pop    %r10
    410d:	5d                   	pop    %rbp
    410e:	c3                   	ret

000000000000410f <_GLOBAL__sub_I_pawn_attacks>:
    410f:	55                   	push   %rbp
    4110:	48 89 e5             	mov    %rsp,%rbp
    4113:	e8 38 fe ff ff       	call   3f50 <_Z41__static_initialization_and_destruction_0v>
    4118:	5d                   	pop    %rbp
    4119:	c3                   	ret

000000000000411a <_ZnwmPv>:
    411a:	55                   	push   %rbp
    411b:	48 89 e5             	mov    %rsp,%rbp
    411e:	48 89 7d f8          	mov    %rdi,-0x8(%rbp)
    4122:	48 89 75 f0          	mov    %rsi,-0x10(%rbp)
    4126:	48 8b 45 f0          	mov    -0x10(%rbp),%rax
    412a:	5d                   	pop    %rbp
    412b:	c3                   	ret

000000000000412c <_ZNKSt4hashIcEclEc>:
    412c:	55                   	push   %rbp
    412d:	48 89 e5             	mov    %rsp,%rbp
    4130:	48 89 7d f8          	mov    %rdi,-0x8(%rbp)
    4134:	89 f0                	mov    %esi,%eax
    4136:	88 45 f4             	mov    %al,-0xc(%rbp)
    4139:	48 0f be 45 f4       	movsbq -0xc(%rbp),%rax
    413e:	5d                   	pop    %rbp
    413f:	c3                   	ret

0000000000004140 <_ZNSt8__detail15_Hash_node_baseC1Ev>:
    4140:	55                   	push   %rbp
    4141:	48 89 e5             	mov    %rsp,%rbp
    4144:	48 89 7d f8          	mov    %rdi,-0x8(%rbp)
    4148:	48 8b 45 f8          	mov    -0x8(%rbp),%rax
    414c:	48 c7 00 00 00 00 00 	movq   $0x0,(%rax)
    4153:	90                   	nop
    4154:	5d                   	pop    %rbp
    4155:	c3                   	ret

0000000000004156 <_ZNKSt8__detail18_Mod_range_hashingclEmm>:
    4156:	55                   	push   %rbp
    4157:	48 89 e5             	mov    %rsp,%rbp
    415a:	48 89 7d f8          	mov    %rdi,-0x8(%rbp)
    415e:	48 89 75 f0          	mov    %rsi,-0x10(%rbp)
    4162:	48 89 55 e8          	mov    %rdx,-0x18(%rbp)
    4166:	48 8b 45 f0          	mov    -0x10(%rbp),%rax
    416a:	ba 00 00 00 00       	mov    $0x0,%edx
    416f:	48 f7 75 e8          	divq   -0x18(%rbp)
    4173:	48 89 d0             	mov    %rdx,%rax
    4176:	5d                   	pop    %rbp
    4177:	c3                   	ret

0000000000004178 <_ZNSt8__detail20_Prime_rehash_policyC1Ef>:
    4178:	55                   	push   %rbp
    4179:	48 89 e5             	mov    %rsp,%rbp
    417c:	48 89 7d f8          	mov    %rdi,-0x8(%rbp)
    4180:	c5 fa 11 45 f4       	vmovss %xmm0,-0xc(%rbp)
    4185:	48 8b 45 f8          	mov    -0x8(%rbp),%rax
    4189:	c5 fa 10 45 f4       	vmovss -0xc(%rbp),%xmm0
    418e:	c5 fa 11 00          	vmovss %xmm0,(%rax)
    4192:	48 8b 45 f8          	mov    -0x8(%rbp),%rax
    4196:	48 c7 40 08 00 00 00 	movq   $0x0,0x8(%rax)
    419d:	00 
    419e:	90                   	nop
    419f:	5d                   	pop    %rbp
    41a0:	c3                   	ret
    41a1:	90                   	nop

00000000000041a2 <_ZNKSt8__detail20_Prime_rehash_policy8_M_stateEv>:
    41a2:	55                   	push   %rbp
    41a3:	48 89 e5             	mov    %rsp,%rbp
    41a6:	48 89 7d f8          	mov    %rdi,-0x8(%rbp)
    41aa:	48 8b 45 f8          	mov    -0x8(%rbp),%rax
    41ae:	48 8b 40 08          	mov    0x8(%rax),%rax
    41b2:	5d                   	pop    %rbp
    41b3:	c3                   	ret

00000000000041b4 <_ZNSt8__detail20_Prime_rehash_policy8_M_resetEm>:
    41b4:	55                   	push   %rbp
    41b5:	48 89 e5             	mov    %rsp,%rbp
    41b8:	48 89 7d f8          	mov    %rdi,-0x8(%rbp)
    41bc:	48 89 75 f0          	mov    %rsi,-0x10(%rbp)
    41c0:	48 8b 45 f8          	mov    -0x8(%rbp),%rax
    41c4:	48 8b 55 f0          	mov    -0x10(%rbp),%rdx
    41c8:	48 89 50 08          	mov    %rdx,0x8(%rax)
    41cc:	90                   	nop
    41cd:	5d                   	pop    %rbp
    41ce:	c3                   	ret

00000000000041cf <_Z7n_shiftm>:
    41cf:	55                   	push   %rbp
    41d0:	48 89 e5             	mov    %rsp,%rbp
    41d3:	48 89 7d f8          	mov    %rdi,-0x8(%rbp)
    41d7:	48 8b 45 f8          	mov    -0x8(%rbp),%rax
    41db:	48 c1 e0 08          	shl    $0x8,%rax
    41df:	5d                   	pop    %rbp
    41e0:	c3                   	ret

00000000000041e1 <_Z7s_shiftm>:
    41e1:	55                   	push   %rbp
    41e2:	48 89 e5             	mov    %rsp,%rbp
    41e5:	48 89 7d f8          	mov    %rdi,-0x8(%rbp)
    41e9:	48 8b 45 f8          	mov    -0x8(%rbp),%rax
    41ed:	48 c1 e8 08          	shr    $0x8,%rax
    41f1:	5d                   	pop    %rbp
    41f2:	c3                   	ret

00000000000041f3 <_Z7e_shiftm>:
    41f3:	55                   	push   %rbp
    41f4:	48 89 e5             	mov    %rsp,%rbp
    41f7:	48 89 7d f8          	mov    %rdi,-0x8(%rbp)
    41fb:	48 8b 45 f8          	mov    -0x8(%rbp),%rax
    41ff:	48 8d 14 00          	lea    (%rax,%rax,1),%rdx
    4203:	48 b8 fe fe fe fe fe 	movabs $0xfefefefefefefefe,%rax
    420a:	fe fe fe 
    420d:	48 21 d0             	and    %rdx,%rax
    4210:	5d                   	pop    %rbp
    4211:	c3                   	ret

0000000000004212 <_Z7w_shiftm>:
    4212:	55                   	push   %rbp
    4213:	48 89 e5             	mov    %rsp,%rbp
    4216:	48 89 7d f8          	mov    %rdi,-0x8(%rbp)
    421a:	48 8b 45 f8          	mov    -0x8(%rbp),%rax
    421e:	48 d1 e8             	shr    %rax
    4221:	48 89 c2             	mov    %rax,%rdx
    4224:	48 b8 7f 7f 7f 7f 7f 	movabs $0x7f7f7f7f7f7f7f7f,%rax
    422b:	7f 7f 7f 
    422e:	48 21 d0             	and    %rdx,%rax
    4231:	5d                   	pop    %rbp
    4232:	c3                   	ret

0000000000004233 <_Z8ne_shiftm>:
    4233:	55                   	push   %rbp
    4234:	48 89 e5             	mov    %rsp,%rbp
    4237:	48 89 7d f8          	mov    %rdi,-0x8(%rbp)
    423b:	48 8b 45 f8          	mov    -0x8(%rbp),%rax
    423f:	48 c1 e0 09          	shl    $0x9,%rax
    4243:	48 89 c2             	mov    %rax,%rdx
    4246:	48 b8 00 fe fe fe fe 	movabs $0xfefefefefefefe00,%rax
    424d:	fe fe fe 
    4250:	48 21 d0             	and    %rdx,%rax
    4253:	5d                   	pop    %rbp
    4254:	c3                   	ret

0000000000004255 <_Z8se_shiftm>:
    4255:	55                   	push   %rbp
    4256:	48 89 e5             	mov    %rsp,%rbp
    4259:	48 89 7d f8          	mov    %rdi,-0x8(%rbp)
    425d:	48 8b 45 f8          	mov    -0x8(%rbp),%rax
    4261:	48 c1 e8 07          	shr    $0x7,%rax
    4265:	48 89 c2             	mov    %rax,%rdx
    4268:	48 b8 fe fe fe fe fe 	movabs $0xfefefefefefefe,%rax
    426f:	fe fe 00 
    4272:	48 21 d0             	and    %rdx,%rax
    4275:	5d                   	pop    %rbp
    4276:	c3                   	ret

0000000000004277 <_Z8sw_shiftm>:
    4277:	55                   	push   %rbp
    4278:	48 89 e5             	mov    %rsp,%rbp
    427b:	48 89 7d f8          	mov    %rdi,-0x8(%rbp)
    427f:	48 8b 45 f8          	mov    -0x8(%rbp),%rax
    4283:	48 c1 e8 09          	shr    $0x9,%rax
    4287:	48 89 c2             	mov    %rax,%rdx
    428a:	48 b8 7f 7f 7f 7f 7f 	movabs $0x7f7f7f7f7f7f7f,%rax
    4291:	7f 7f 00 
    4294:	48 21 d0             	and    %rdx,%rax
    4297:	5d                   	pop    %rbp
    4298:	c3                   	ret

0000000000004299 <_Z8nw_shiftm>:
    4299:	55                   	push   %rbp
    429a:	48 89 e5             	mov    %rsp,%rbp
    429d:	48 89 7d f8          	mov    %rdi,-0x8(%rbp)
    42a1:	48 8b 45 f8          	mov    -0x8(%rbp),%rax
    42a5:	48 c1 e0 07          	shl    $0x7,%rax
    42a9:	48 89 c2             	mov    %rax,%rdx
    42ac:	48 b8 00 7f 7f 7f 7f 	movabs $0x7f7f7f7f7f7f7f00,%rax
    42b3:	7f 7f 7f 
    42b6:	48 21 d0             	and    %rdx,%rax
    42b9:	5d                   	pop    %rbp
    42ba:	c3                   	ret
    42bb:	90                   	nop

00000000000042bc <_ZNSt13unordered_mapIciSt4hashIcESt8equal_toIcESaISt4pairIKciEEEC1ESt16initializer_listIS6_EmRKS1_RKS3_RKS7_>:
    42bc:	55                   	push   %rbp
    42bd:	48 89 e5             	mov    %rsp,%rbp
    42c0:	48 83 ec 30          	sub    $0x30,%rsp
    42c4:	48 89 7d f8          	mov    %rdi,-0x8(%rbp)
    42c8:	48 89 f0             	mov    %rsi,%rax
    42cb:	48 89 d6             	mov    %rdx,%rsi
    42ce:	48 89 f2             	mov    %rsi,%rdx
    42d1:	48 89 45 e0          	mov    %rax,-0x20(%rbp)
    42d5:	48 89 55 e8          	mov    %rdx,-0x18(%rbp)
    42d9:	48 89 4d f0          	mov    %rcx,-0x10(%rbp)
    42dd:	4c 89 45 d8          	mov    %r8,-0x28(%rbp)
    42e1:	4c 89 4d d0          	mov    %r9,-0x30(%rbp)
    42e5:	48 8b 45 f8          	mov    -0x8(%rbp),%rax
    42e9:	4c 8b 45 d0          	mov    -0x30(%rbp),%r8
    42ed:	48 8b 7d d8          	mov    -0x28(%rbp),%rdi
    42f1:	48 8b 4d f0          	mov    -0x10(%rbp),%rcx
    42f5:	48 8b 75 e0          	mov    -0x20(%rbp),%rsi
    42f9:	48 8b 55 e8          	mov    -0x18(%rbp),%rdx
    42fd:	48 83 ec 08          	sub    $0x8,%rsp
    4301:	ff 75 10             	push   0x10(%rbp)
    4304:	4d 89 c1             	mov    %r8,%r9
    4307:	49 89 f8             	mov    %rdi,%r8
    430a:	48 89 c7             	mov    %rax,%rdi
    430d:	e8 22 00 00 00       	call   4334 <_ZNSt10_HashtableIcSt4pairIKciESaIS2_ENSt8__detail10_Select1stESt8equal_toIcESt4hashIcENS4_18_Mod_range_hashingENS4_20_Default_ranged_hashENS4_20_Prime_rehash_policyENS4_17_Hashtable_traitsILb0ELb0ELb1EEEEC1ESt16initializer_listIS2_EmRKS9_RKS7_RKS3_>
    4312:	48 83 c4 10          	add    $0x10,%rsp
    4316:	90                   	nop
    4317:	c9                   	leave
    4318:	c3                   	ret

0000000000004319 <_ZSt7forwardIbEOT_RNSt16remove_referenceIS0_E4typeE>:
    4319:	55                   	push   %rbp
    431a:	48 89 e5             	mov    %rsp,%rbp
    431d:	48 89 7d f8          	mov    %rdi,-0x8(%rbp)
    4321:	48 8b 45 f8          	mov    -0x8(%rbp),%rax
    4325:	5d                   	pop    %rbp
    4326:	c3                   	ret
    4327:	90                   	nop

0000000000004328 <_ZNSt15__new_allocatorISt4pairIKciEED1Ev>:
    4328:	55                   	push   %rbp
    4329:	48 89 e5             	mov    %rsp,%rbp
    432c:	48 89 7d f8          	mov    %rdi,-0x8(%rbp)
    4330:	90                   	nop
    4331:	5d                   	pop    %rbp
    4332:	c3                   	ret
    4333:	90                   	nop

0000000000004334 <_ZNSt10_HashtableIcSt4pairIKciESaIS2_ENSt8__detail10_Select1stESt8equal_toIcESt4hashIcENS4_18_Mod_range_hashingENS4_20_Default_ranged_hashENS4_20_Prime_rehash_policyENS4_17_Hashtable_traitsILb0ELb0ELb1EEEEC1ESt16initializer_listIS2_EmRKS9_RKS7_RKS3_>:
    4334:	55                   	push   %rbp
    4335:	48 89 e5             	mov    %rsp,%rbp
    4338:	53                   	push   %rbx
    4339:	48 83 ec 38          	sub    $0x38,%rsp
    433d:	48 89 7d e8          	mov    %rdi,-0x18(%rbp)
    4341:	48 89 f0             	mov    %rsi,%rax
    4344:	48 89 d6             	mov    %rdx,%rsi
    4347:	48 89 f2             	mov    %rsi,%rdx
    434a:	48 89 45 d0          	mov    %rax,-0x30(%rbp)
    434e:	48 89 55 d8          	mov    %rdx,-0x28(%rbp)
    4352:	48 89 4d e0          	mov    %rcx,-0x20(%rbp)
    4356:	4c 89 45 c8          	mov    %r8,-0x38(%rbp)
    435a:	4c 89 4d c0          	mov    %r9,-0x40(%rbp)
    435e:	48 8d 45 d0          	lea    -0x30(%rbp),%rax
    4362:	48 89 c7             	mov    %rax,%rdi
    4365:	e8 ce 00 00 00       	call   4438 <_ZNKSt16initializer_listISt4pairIKciEE3endEv>
    436a:	48 89 c3             	mov    %rax,%rbx
    436d:	48 8d 45 d0          	lea    -0x30(%rbp),%rax
    4371:	48 89 c7             	mov    %rax,%rdi
    4374:	e8 ad 00 00 00       	call   4426 <_ZNKSt16initializer_listISt4pairIKciEE5beginEv>
    4379:	48 89 c6             	mov    %rax,%rsi
    437c:	48 8b 7d c0          	mov    -0x40(%rbp),%rdi
    4380:	48 8b 4d c8          	mov    -0x38(%rbp),%rcx
    4384:	48 8b 55 e0          	mov    -0x20(%rbp),%rdx
    4388:	48 8b 45 e8          	mov    -0x18(%rbp),%rax
    438c:	48 83 ec 08          	sub    $0x8,%rsp
    4390:	ff 75 10             	push   0x10(%rbp)
    4393:	49 89 f9             	mov    %rdi,%r9
    4396:	49 89 c8             	mov    %rcx,%r8
    4399:	48 89 d1             	mov    %rdx,%rcx
    439c:	48 89 da             	mov    %rbx,%rdx
    439f:	48 89 c7             	mov    %rax,%rdi
    43a2:	e8 c7 00 00 00       	call   446e <_ZNSt10_HashtableIcSt4pairIKciESaIS2_ENSt8__detail10_Select1stESt8equal_toIcESt4hashIcENS4_18_Mod_range_hashingENS4_20_Default_ranged_hashENS4_20_Prime_rehash_policyENS4_17_Hashtable_traitsILb0ELb0ELb1EEEEC1IPKS2_EET_SJ_mRKS9_RKS7_RKS3_St17integral_constantIbLb1EE>
    43a7:	48 83 c4 10          	add    $0x10,%rsp
    43ab:	90                   	nop
    43ac:	48 8b 5d f8          	mov    -0x8(%rbp),%rbx
    43b0:	c9                   	leave
    43b1:	c3                   	ret

00000000000043b2 <_ZNSt8__detail21_Hashtable_ebo_helperILi0ESaINS_10_Hash_nodeISt4pairIKciELb0EEEELb1EED1Ev>:
    43b2:	55                   	push   %rbp
    43b3:	48 89 e5             	mov    %rsp,%rbp
    43b6:	48 83 ec 20          	sub    $0x20,%rsp
    43ba:	48 89 7d e8          	mov    %rdi,-0x18(%rbp)
    43be:	48 8b 45 e8          	mov    -0x18(%rbp),%rax
    43c2:	48 89 45 f8          	mov    %rax,-0x8(%rbp)
    43c6:	48 8b 45 f8          	mov    -0x8(%rbp),%rax
    43ca:	48 89 c7             	mov    %rax,%rdi
    43cd:	e8 de 02 00 00       	call   46b0 <_ZNSt15__new_allocatorINSt8__detail10_Hash_nodeISt4pairIKciELb0EEEED1Ev>
    43d2:	90                   	nop
    43d3:	90                   	nop
    43d4:	c9                   	leave
    43d5:	c3                   	ret

00000000000043d6 <_ZNSt8__detail16_Hashtable_allocISaINS_10_Hash_nodeISt4pairIKciELb0EEEEED1Ev>:
    43d6:	55                   	push   %rbp
    43d7:	48 89 e5             	mov    %rsp,%rbp
    43da:	48 83 ec 10          	sub    $0x10,%rsp
    43de:	48 89 7d f8          	mov    %rdi,-0x8(%rbp)
    43e2:	48 8b 45 f8          	mov    -0x8(%rbp),%rax
    43e6:	48 89 c7             	mov    %rax,%rdi
    43e9:	e8 c4 ff ff ff       	call   43b2 <_ZNSt8__detail21_Hashtable_ebo_helperILi0ESaINS_10_Hash_nodeISt4pairIKciELb0EEEELb1EED1Ev>
    43ee:	90                   	nop
    43ef:	c9                   	leave
    43f0:	c3                   	ret
    43f1:	90                   	nop

00000000000043f2 <_ZNSt10_HashtableIcSt4pairIKciESaIS2_ENSt8__detail10_Select1stESt8equal_toIcESt4hashIcENS4_18_Mod_range_hashingENS4_20_Default_ranged_hashENS4_20_Prime_rehash_policyENS4_17_Hashtable_traitsILb0ELb0ELb1EEEED1Ev>:
    43f2:	55                   	push   %rbp
    43f3:	48 89 e5             	mov    %rsp,%rbp
    43f6:	48 83 ec 10          	sub    $0x10,%rsp
    43fa:	48 89 7d f8          	mov    %rdi,-0x8(%rbp)
    43fe:	48 8b 45 f8          	mov    -0x8(%rbp),%rax
    4402:	48 89 c7             	mov    %rax,%rdi
    4405:	e8 de 00 00 00       	call   44e8 <_ZNSt10_HashtableIcSt4pairIKciESaIS2_ENSt8__detail10_Select1stESt8equal_toIcESt4hashIcENS4_18_Mod_range_hashingENS4_20_Default_ranged_hashENS4_20_Prime_rehash_policyENS4_17_Hashtable_traitsILb0ELb0ELb1EEEE5clearEv>
    440a:	48 8b 45 f8          	mov    -0x8(%rbp),%rax
    440e:	48 89 c7             	mov    %rax,%rdi
    4411:	e8 3c 01 00 00       	call   4552 <_ZNSt10_HashtableIcSt4pairIKciESaIS2_ENSt8__detail10_Select1stESt8equal_toIcESt4hashIcENS4_18_Mod_range_hashingENS4_20_Default_ranged_hashENS4_20_Prime_rehash_policyENS4_17_Hashtable_traitsILb0ELb0ELb1EEEE21_M_deallocate_bucketsEv>
    4416:	48 8b 45 f8          	mov    -0x8(%rbp),%rax
    441a:	48 89 c7             	mov    %rax,%rdi
    441d:	e8 b4 ff ff ff       	call   43d6 <_ZNSt8__detail16_Hashtable_allocISaINS_10_Hash_nodeISt4pairIKciELb0EEEEED1Ev>
    4422:	90                   	nop
    4423:	c9                   	leave
    4424:	c3                   	ret
    4425:	90                   	nop

0000000000004426 <_ZNKSt16initializer_listISt4pairIKciEE5beginEv>:
    4426:	55                   	push   %rbp
    4427:	48 89 e5             	mov    %rsp,%rbp
    442a:	48 89 7d f8          	mov    %rdi,-0x8(%rbp)
    442e:	48 8b 45 f8          	mov    -0x8(%rbp),%rax
    4432:	48 8b 00             	mov    (%rax),%rax
    4435:	5d                   	pop    %rbp
    4436:	c3                   	ret
    4437:	90                   	nop

0000000000004438 <_ZNKSt16initializer_listISt4pairIKciEE3endEv>:
    4438:	55                   	push   %rbp
    4439:	48 89 e5             	mov    %rsp,%rbp
    443c:	53                   	push   %rbx
    443d:	48 83 ec 18          	sub    $0x18,%rsp
    4441:	48 89 7d e8          	mov    %rdi,-0x18(%rbp)
    4445:	48 8b 45 e8          	mov    -0x18(%rbp),%rax
    4449:	48 89 c7             	mov    %rax,%rdi
    444c:	e8 d5 ff ff ff       	call   4426 <_ZNKSt16initializer_listISt4pairIKciEE5beginEv>
    4451:	48 89 c3             	mov    %rax,%rbx
    4454:	48 8b 45 e8          	mov    -0x18(%rbp),%rax
    4458:	48 89 c7             	mov    %rax,%rdi
    445b:	e8 20 01 00 00       	call   4580 <_ZNKSt16initializer_listISt4pairIKciEE4sizeEv>
    4460:	48 c1 e0 03          	shl    $0x3,%rax
    4464:	48 01 d8             	add    %rbx,%rax
    4467:	48 8b 5d f8          	mov    -0x8(%rbp),%rbx
    446b:	c9                   	leave
    446c:	c3                   	ret
    446d:	90                   	nop

000000000000446e <_ZNSt10_HashtableIcSt4pairIKciESaIS2_ENSt8__detail10_Select1stESt8equal_toIcESt4hashIcENS4_18_Mod_range_hashingENS4_20_Default_ranged_hashENS4_20_Prime_rehash_policyENS4_17_Hashtable_traitsILb0ELb0ELb1EEEEC1IPKS2_EET_SJ_mRKS9_RKS7_RKS3_St17integral_constantIbLb1EE>:
    446e:	55                   	push   %rbp
    446f:	48 89 e5             	mov    %rsp,%rbp
    4472:	53                   	push   %rbx
    4473:	48 83 ec 38          	sub    $0x38,%rsp
    4477:	48 89 7d e8          	mov    %rdi,-0x18(%rbp)
    447b:	48 89 75 e0          	mov    %rsi,-0x20(%rbp)
    447f:	48 89 55 d8          	mov    %rdx,-0x28(%rbp)
    4483:	48 89 4d d0          	mov    %rcx,-0x30(%rbp)
    4487:	4c 89 45 c8          	mov    %r8,-0x38(%rbp)
    448b:	4c 89 4d c0          	mov    %r9,-0x40(%rbp)
    448f:	48 8b 7d 10          	mov    0x10(%rbp),%rdi
    4493:	48 8b 4d c0          	mov    -0x40(%rbp),%rcx
    4497:	48 8b 55 c8          	mov    -0x38(%rbp),%rdx
    449b:	48 8b 75 d0          	mov    -0x30(%rbp),%rsi
    449f:	48 8b 45 e8          	mov    -0x18(%rbp),%rax
    44a3:	49 89 f8             	mov    %rdi,%r8
    44a6:	48 89 c7             	mov    %rax,%rdi
    44a9:	e8 e4 00 00 00       	call   4592 <_ZNSt10_HashtableIcSt4pairIKciESaIS2_ENSt8__detail10_Select1stESt8equal_toIcESt4hashIcENS4_18_Mod_range_hashingENS4_20_Default_ranged_hashENS4_20_Prime_rehash_policyENS4_17_Hashtable_traitsILb0ELb0ELb1EEEEC1EmRKS9_RKS7_RKS3_>
    44ae:	48 8b 55 d8          	mov    -0x28(%rbp),%rdx
    44b2:	48 8b 4d e0          	mov    -0x20(%rbp),%rcx
    44b6:	48 8b 45 e8          	mov    -0x18(%rbp),%rax
    44ba:	48 89 ce             	mov    %rcx,%rsi
    44bd:	48 89 c7             	mov    %rax,%rdi
    44c0:	e8 75 01 00 00       	call   463a <_ZNSt8__detail12_Insert_baseIcSt4pairIKciESaIS3_ENS_10_Select1stESt8equal_toIcESt4hashIcENS_18_Mod_range_hashingENS_20_Default_ranged_hashENS_20_Prime_rehash_policyENS_17_Hashtable_traitsILb0ELb0ELb1EEEE6insertIPKS3_EEvT_SJ_>
    44c5:	eb 1a                	jmp    44e1 <_ZNSt10_HashtableIcSt4pairIKciESaIS2_ENSt8__detail10_Select1stESt8equal_toIcESt4hashIcENS4_18_Mod_range_hashingENS4_20_Default_ranged_hashENS4_20_Prime_rehash_policyENS4_17_Hashtable_traitsILb0ELb0ELb1EEEEC1IPKS2_EET_SJ_mRKS9_RKS7_RKS3_St17integral_constantIbLb1EE+0x73>
    44c7:	48 89 c3             	mov    %rax,%rbx
    44ca:	48 8b 45 e8          	mov    -0x18(%rbp),%rax
    44ce:	48 89 c7             	mov    %rax,%rdi
    44d1:	e8 1c ff ff ff       	call   43f2 <_ZNSt10_HashtableIcSt4pairIKciESaIS2_ENSt8__detail10_Select1stESt8equal_toIcESt4hashIcENS4_18_Mod_range_hashingENS4_20_Default_ranged_hashENS4_20_Prime_rehash_policyENS4_17_Hashtable_traitsILb0ELb0ELb1EEEED1Ev>
    44d6:	48 89 d8             	mov    %rbx,%rax
    44d9:	48 89 c7             	mov    %rax,%rdi
    44dc:	e8 ef ee ff ff       	call   33d0 <_Unwind_Resume@plt>
    44e1:	48 8b 5d f8          	mov    -0x8(%rbp),%rbx
    44e5:	c9                   	leave
    44e6:	c3                   	ret
    44e7:	90                   	nop

00000000000044e8 <_ZNSt10_HashtableIcSt4pairIKciESaIS2_ENSt8__detail10_Select1stESt8equal_toIcESt4hashIcENS4_18_Mod_range_hashingENS4_20_Default_ranged_hashENS4_20_Prime_rehash_policyENS4_17_Hashtable_traitsILb0ELb0ELb1EEEE5clearEv>:
    44e8:	55                   	push   %rbp
    44e9:	48 89 e5             	mov    %rsp,%rbp
    44ec:	48 83 ec 10          	sub    $0x10,%rsp
    44f0:	48 89 7d f8          	mov    %rdi,-0x8(%rbp)
    44f4:	48 8b 45 f8          	mov    -0x8(%rbp),%rax
    44f8:	48 89 c7             	mov    %rax,%rdi
    44fb:	e8 bc 01 00 00       	call   46bc <_ZNKSt10_HashtableIcSt4pairIKciESaIS2_ENSt8__detail10_Select1stESt8equal_toIcESt4hashIcENS4_18_Mod_range_hashingENS4_20_Default_ranged_hashENS4_20_Prime_rehash_policyENS4_17_Hashtable_traitsILb0ELb0ELb1EEEE8_M_beginEv>
    4500:	48 89 c2             	mov    %rax,%rdx
    4503:	48 8b 45 f8          	mov    -0x8(%rbp),%rax
    4507:	48 89 d6             	mov    %rdx,%rsi
    450a:	48 89 c7             	mov    %rax,%rdi
    450d:	e8 bc 01 00 00       	call   46ce <_ZNSt8__detail16_Hashtable_allocISaINS_10_Hash_nodeISt4pairIKciELb0EEEEE19_M_deallocate_nodesEPS5_>
    4512:	48 8b 45 f8          	mov    -0x8(%rbp),%rax
    4516:	48 8b 40 08          	mov    0x8(%rax),%rax
    451a:	48 8d 14 c5 00 00 00 	lea    0x0(,%rax,8),%rdx
    4521:	00 
    4522:	48 8b 45 f8          	mov    -0x8(%rbp),%rax
    4526:	48 8b 00             	mov    (%rax),%rax
    4529:	be 00 00 00 00       	mov    $0x0,%esi
    452e:	48 89 c7             	mov    %rax,%rdi
    4531:	e8 da eb ff ff       	call   3110 <memset@plt>
    4536:	48 8b 45 f8          	mov    -0x8(%rbp),%rax
    453a:	48 c7 40 18 00 00 00 	movq   $0x0,0x18(%rax)
    4541:	00 
    4542:	48 8b 45 f8          	mov    -0x8(%rbp),%rax
    4546:	48 c7 40 10 00 00 00 	movq   $0x0,0x10(%rax)
    454d:	00 
    454e:	90                   	nop
    454f:	c9                   	leave
    4550:	c3                   	ret
    4551:	90                   	nop

0000000000004552 <_ZNSt10_HashtableIcSt4pairIKciESaIS2_ENSt8__detail10_Select1stESt8equal_toIcESt4hashIcENS4_18_Mod_range_hashingENS4_20_Default_ranged_hashENS4_20_Prime_rehash_policyENS4_17_Hashtable_traitsILb0ELb0ELb1EEEE21_M_deallocate_bucketsEv>:
    4552:	55                   	push   %rbp
    4553:	48 89 e5             	mov    %rsp,%rbp
    4556:	48 83 ec 10          	sub    $0x10,%rsp
    455a:	48 89 7d f8          	mov    %rdi,-0x8(%rbp)
    455e:	48 8b 45 f8          	mov    -0x8(%rbp),%rax
    4562:	48 8b 50 08          	mov    0x8(%rax),%rdx
    4566:	48 8b 45 f8          	mov    -0x8(%rbp),%rax
    456a:	48 8b 08             	mov    (%rax),%rcx
    456d:	48 8b 45 f8          	mov    -0x8(%rbp),%rax
    4571:	48 89 ce             	mov    %rcx,%rsi
    4574:	48 89 c7             	mov    %rax,%rdi
    4577:	e8 9a 01 00 00       	call   4716 <_ZNSt10_HashtableIcSt4pairIKciESaIS2_ENSt8__detail10_Select1stESt8equal_toIcESt4hashIcENS4_18_Mod_range_hashingENS4_20_Default_ranged_hashENS4_20_Prime_rehash_policyENS4_17_Hashtable_traitsILb0ELb0ELb1EEEE21_M_deallocate_bucketsEPPNS4_15_Hash_node_baseEm>
    457c:	90                   	nop
    457d:	c9                   	leave
    457e:	c3                   	ret
    457f:	90                   	nop

0000000000004580 <_ZNKSt16initializer_listISt4pairIKciEE4sizeEv>:
    4580:	55                   	push   %rbp
    4581:	48 89 e5             	mov    %rsp,%rbp
    4584:	48 89 7d f8          	mov    %rdi,-0x8(%rbp)
    4588:	48 8b 45 f8          	mov    -0x8(%rbp),%rax
    458c:	48 8b 40 08          	mov    0x8(%rax),%rax
    4590:	5d                   	pop    %rbp
    4591:	c3                   	ret

0000000000004592 <_ZNSt10_HashtableIcSt4pairIKciESaIS2_ENSt8__detail10_Select1stESt8equal_toIcESt4hashIcENS4_18_Mod_range_hashingENS4_20_Default_ranged_hashENS4_20_Prime_rehash_policyENS4_17_Hashtable_traitsILb0ELb0ELb1EEEEC1EmRKS9_RKS7_RKS3_>:
    4592:	55                   	push   %rbp
    4593:	48 89 e5             	mov    %rsp,%rbp
    4596:	53                   	push   %rbx
    4597:	48 83 ec 48          	sub    $0x48,%rsp
    459b:	48 89 7d d8          	mov    %rdi,-0x28(%rbp)
    459f:	48 89 75 d0          	mov    %rsi,-0x30(%rbp)
    45a3:	48 89 55 c8          	mov    %rdx,-0x38(%rbp)
    45a7:	48 89 4d c0          	mov    %rcx,-0x40(%rbp)
    45ab:	4c 89 45 b8          	mov    %r8,-0x48(%rbp)
    45af:	48 8b 4d b8          	mov    -0x48(%rbp),%rcx
    45b3:	48 8b 55 c0          	mov    -0x40(%rbp),%rdx
    45b7:	48 8b 75 c8          	mov    -0x38(%rbp),%rsi
    45bb:	48 8b 45 d8          	mov    -0x28(%rbp),%rax
    45bf:	48 89 c7             	mov    %rax,%rdi
    45c2:	e8 97 01 00 00       	call   475e <_ZNSt10_HashtableIcSt4pairIKciESaIS2_ENSt8__detail10_Select1stESt8equal_toIcESt4hashIcENS4_18_Mod_range_hashingENS4_20_Default_ranged_hashENS4_20_Prime_rehash_policyENS4_17_Hashtable_traitsILb0ELb0ELb1EEEEC1ERKS9_RKS7_RKS3_>
    45c7:	48 8b 45 d8          	mov    -0x28(%rbp),%rax
    45cb:	48 83 c0 20          	add    $0x20,%rax
    45cf:	48 8b 55 d0          	mov    -0x30(%rbp),%rdx
    45d3:	48 89 d6             	mov    %rdx,%rsi
    45d6:	48 89 c7             	mov    %rax,%rdi
    45d9:	e8 b2 eb ff ff       	call   3190 <_ZNKSt8__detail20_Prime_rehash_policy11_M_next_bktEm@plt>
    45de:	48 89 45 e8          	mov    %rax,-0x18(%rbp)
    45e2:	48 8b 45 d8          	mov    -0x28(%rbp),%rax
    45e6:	48 8b 40 08          	mov    0x8(%rax),%rax
    45ea:	48 3b 45 e8          	cmp    -0x18(%rbp),%rax
    45ee:	73 42                	jae    4632 <_ZNSt10_HashtableIcSt4pairIKciESaIS2_ENSt8__detail10_Select1stESt8equal_toIcESt4hashIcENS4_18_Mod_range_hashingENS4_20_Default_ranged_hashENS4_20_Prime_rehash_policyENS4_17_Hashtable_traitsILb0ELb0ELb1EEEEC1EmRKS9_RKS7_RKS3_+0xa0>
    45f0:	48 8b 55 e8          	mov    -0x18(%rbp),%rdx
    45f4:	48 8b 45 d8          	mov    -0x28(%rbp),%rax
    45f8:	48 89 d6             	mov    %rdx,%rsi
    45fb:	48 89 c7             	mov    %rax,%rdi
    45fe:	e8 81 02 00 00       	call   4884 <_ZNSt10_HashtableIcSt4pairIKciESaIS2_ENSt8__detail10_Select1stESt8equal_toIcESt4hashIcENS4_18_Mod_range_hashingENS4_20_Default_ranged_hashENS4_20_Prime_rehash_policyENS4_17_Hashtable_traitsILb0ELb0ELb1EEEE19_M_allocate_bucketsEm>
    4603:	48 8b 55 d8          	mov    -0x28(%rbp),%rdx
    4607:	48 89 02             	mov    %rax,(%rdx)
    460a:	48 8b 45 d8          	mov    -0x28(%rbp),%rax
    460e:	48 8b 55 e8          	mov    -0x18(%rbp),%rdx
    4612:	48 89 50 08          	mov    %rdx,0x8(%rax)
    4616:	eb 1a                	jmp    4632 <_ZNSt10_HashtableIcSt4pairIKciESaIS2_ENSt8__detail10_Select1stESt8equal_toIcESt4hashIcENS4_18_Mod_range_hashingENS4_20_Default_ranged_hashENS4_20_Prime_rehash_policyENS4_17_Hashtable_traitsILb0ELb0ELb1EEEEC1EmRKS9_RKS7_RKS3_+0xa0>
    4618:	48 89 c3             	mov    %rax,%rbx
    461b:	48 8b 45 d8          	mov    -0x28(%rbp),%rax
    461f:	48 89 c7             	mov    %rax,%rdi
    4622:	e8 cb fd ff ff       	call   43f2 <_ZNSt10_HashtableIcSt4pairIKciESaIS2_ENSt8__detail10_Select1stESt8equal_toIcESt4hashIcENS4_18_Mod_range_hashingENS4_20_Default_ranged_hashENS4_20_Prime_rehash_policyENS4_17_Hashtable_traitsILb0ELb0ELb1EEEED1Ev>
    4627:	48 89 d8             	mov    %rbx,%rax
    462a:	48 89 c7             	mov    %rax,%rdi
    462d:	e8 9e ed ff ff       	call   33d0 <_Unwind_Resume@plt>
    4632:	90                   	nop
    4633:	48 8b 5d f8          	mov    -0x8(%rbp),%rbx
    4637:	c9                   	leave
    4638:	c3                   	ret
    4639:	90                   	nop

000000000000463a <_ZNSt8__detail12_Insert_baseIcSt4pairIKciESaIS3_ENS_10_Select1stESt8equal_toIcESt4hashIcENS_18_Mod_range_hashingENS_20_Default_ranged_hashENS_20_Prime_rehash_policyENS_17_Hashtable_traitsILb0ELb0ELb1EEEE6insertIPKS3_EEvT_SJ_>:
    463a:	55                   	push   %rbp
    463b:	48 89 e5             	mov    %rsp,%rbp
    463e:	48 83 ec 40          	sub    $0x40,%rsp
    4642:	48 89 7d d8          	mov    %rdi,-0x28(%rbp)
    4646:	48 89 75 d0          	mov    %rsi,-0x30(%rbp)
    464a:	48 89 55 c8          	mov    %rdx,-0x38(%rbp)
    464e:	64 48 8b 04 25 28 00 	mov    %fs:0x28,%rax
    4655:	00 00 
    4657:	48 89 45 f8          	mov    %rax,-0x8(%rbp)
    465b:	31 c0                	xor    %eax,%eax
    465d:	48 8b 45 d8          	mov    -0x28(%rbp),%rax
    4661:	48 89 c7             	mov    %rax,%rdi
    4664:	e8 67 02 00 00       	call   48d0 <_ZNSt8__detail12_Insert_baseIcSt4pairIKciESaIS3_ENS_10_Select1stESt8equal_toIcESt4hashIcENS_18_Mod_range_hashingENS_20_Default_ranged_hashENS_20_Prime_rehash_policyENS_17_Hashtable_traitsILb0ELb0ELb1EEEE20_M_conjure_hashtableEv>
    4669:	48 89 45 f0          	mov    %rax,-0x10(%rbp)
    466d:	48 8b 55 f0          	mov    -0x10(%rbp),%rdx
    4671:	48 8d 45 e8          	lea    -0x18(%rbp),%rax
    4675:	48 89 d6             	mov    %rdx,%rsi
    4678:	48 89 c7             	mov    %rax,%rdi
    467b:	e8 5e 02 00 00       	call   48de <_ZNSt8__detail10_AllocNodeISaINS_10_Hash_nodeISt4pairIKciELb0EEEEEC1ERNS_16_Hashtable_allocIS6_EE>
    4680:	48 8d 45 e8          	lea    -0x18(%rbp),%rax
    4684:	48 8b 55 c8          	mov    -0x38(%rbp),%rdx
    4688:	48 8b 75 d0          	mov    -0x30(%rbp),%rsi
    468c:	48 8b 7d d8          	mov    -0x28(%rbp),%rdi
    4690:	48 89 c1             	mov    %rax,%rcx
    4693:	e8 60 02 00 00       	call   48f8 <_ZNSt8__detail12_Insert_baseIcSt4pairIKciESaIS3_ENS_10_Select1stESt8equal_toIcESt4hashIcENS_18_Mod_range_hashingENS_20_Default_ranged_hashENS_20_Prime_rehash_policyENS_17_Hashtable_traitsILb0ELb0ELb1EEEE15_M_insert_rangeIPKS3_NS_10_AllocNodeISaINS_10_Hash_nodeIS3_Lb0EEEEEEEEvT_SO_RKT0_St17integral_constantIbLb1EE>
    4698:	90                   	nop
    4699:	48 8b 45 f8          	mov    -0x8(%rbp),%rax
    469d:	64 48 2b 04 25 28 00 	sub    %fs:0x28,%rax
    46a4:	00 00 
    46a6:	74 05                	je     46ad <_ZNSt8__detail12_Insert_baseIcSt4pairIKciESaIS3_ENS_10_Select1stESt8equal_toIcESt4hashIcENS_18_Mod_range_hashingENS_20_Default_ranged_hashENS_20_Prime_rehash_policyENS_17_Hashtable_traitsILb0ELb0ELb1EEEE6insertIPKS3_EEvT_SJ_+0x73>
    46a8:	e8 f3 eb ff ff       	call   32a0 <__stack_chk_fail@plt>
    46ad:	c9                   	leave
    46ae:	c3                   	ret
    46af:	90                   	nop

00000000000046b0 <_ZNSt15__new_allocatorINSt8__detail10_Hash_nodeISt4pairIKciELb0EEEED1Ev>:
    46b0:	55                   	push   %rbp
    46b1:	48 89 e5             	mov    %rsp,%rbp
    46b4:	48 89 7d f8          	mov    %rdi,-0x8(%rbp)
    46b8:	90                   	nop
    46b9:	5d                   	pop    %rbp
    46ba:	c3                   	ret
    46bb:	90                   	nop

00000000000046bc <_ZNKSt10_HashtableIcSt4pairIKciESaIS2_ENSt8__detail10_Select1stESt8equal_toIcESt4hashIcENS4_18_Mod_range_hashingENS4_20_Default_ranged_hashENS4_20_Prime_rehash_policyENS4_17_Hashtable_traitsILb0ELb0ELb1EEEE8_M_beginEv>:
    46bc:	55                   	push   %rbp
    46bd:	48 89 e5             	mov    %rsp,%rbp
    46c0:	48 89 7d f8          	mov    %rdi,-0x8(%rbp)
    46c4:	48 8b 45 f8          	mov    -0x8(%rbp),%rax
    46c8:	48 8b 40 10          	mov    0x10(%rax),%rax
    46cc:	5d                   	pop    %rbp
    46cd:	c3                   	ret

00000000000046ce <_ZNSt8__detail16_Hashtable_allocISaINS_10_Hash_nodeISt4pairIKciELb0EEEEE19_M_deallocate_nodesEPS5_>:
    46ce:	55                   	push   %rbp
    46cf:	48 89 e5             	mov    %rsp,%rbp
    46d2:	48 83 ec 20          	sub    $0x20,%rsp
    46d6:	48 89 7d e8          	mov    %rdi,-0x18(%rbp)
    46da:	48 89 75 e0          	mov    %rsi,-0x20(%rbp)
    46de:	eb 2b                	jmp    470b <_ZNSt8__detail16_Hashtable_allocISaINS_10_Hash_nodeISt4pairIKciELb0EEEEE19_M_deallocate_nodesEPS5_+0x3d>
    46e0:	48 8b 45 e0          	mov    -0x20(%rbp),%rax
    46e4:	48 89 45 f8          	mov    %rax,-0x8(%rbp)
    46e8:	48 8b 45 e0          	mov    -0x20(%rbp),%rax
    46ec:	48 89 c7             	mov    %rax,%rdi
    46ef:	e8 58 02 00 00       	call   494c <_ZNKSt8__detail10_Hash_nodeISt4pairIKciELb0EE7_M_nextEv>
    46f4:	48 89 45 e0          	mov    %rax,-0x20(%rbp)
    46f8:	48 8b 55 f8          	mov    -0x8(%rbp),%rdx
    46fc:	48 8b 45 e8          	mov    -0x18(%rbp),%rax
    4700:	48 89 d6             	mov    %rdx,%rsi
    4703:	48 89 c7             	mov    %rax,%rdi
    4706:	e8 53 02 00 00       	call   495e <_ZNSt8__detail16_Hashtable_allocISaINS_10_Hash_nodeISt4pairIKciELb0EEEEE18_M_deallocate_nodeEPS5_>
    470b:	48 83 7d e0 00       	cmpq   $0x0,-0x20(%rbp)
    4710:	75 ce                	jne    46e0 <_ZNSt8__detail16_Hashtable_allocISaINS_10_Hash_nodeISt4pairIKciELb0EEEEE19_M_deallocate_nodesEPS5_+0x12>
    4712:	90                   	nop
    4713:	90                   	nop
    4714:	c9                   	leave
    4715:	c3                   	ret

0000000000004716 <_ZNSt10_HashtableIcSt4pairIKciESaIS2_ENSt8__detail10_Select1stESt8equal_toIcESt4hashIcENS4_18_Mod_range_hashingENS4_20_Default_ranged_hashENS4_20_Prime_rehash_policyENS4_17_Hashtable_traitsILb0ELb0ELb1EEEE21_M_deallocate_bucketsEPPNS4_15_Hash_node_baseEm>:
    4716:	55                   	push   %rbp
    4717:	48 89 e5             	mov    %rsp,%rbp
    471a:	48 83 ec 20          	sub    $0x20,%rsp
    471e:	48 89 7d f8          	mov    %rdi,-0x8(%rbp)
    4722:	48 89 75 f0          	mov    %rsi,-0x10(%rbp)
    4726:	48 89 55 e8          	mov    %rdx,-0x18(%rbp)
    472a:	48 8b 55 f0          	mov    -0x10(%rbp),%rdx
    472e:	48 8b 45 f8          	mov    -0x8(%rbp),%rax
    4732:	48 89 d6             	mov    %rdx,%rsi
    4735:	48 89 c7             	mov    %rax,%rdi
    4738:	e8 85 02 00 00       	call   49c2 <_ZNKSt10_HashtableIcSt4pairIKciESaIS2_ENSt8__detail10_Select1stESt8equal_toIcESt4hashIcENS4_18_Mod_range_hashingENS4_20_Default_ranged_hashENS4_20_Prime_rehash_policyENS4_17_Hashtable_traitsILb0ELb0ELb1EEEE21_M_uses_single_bucketEPPNS4_15_Hash_node_baseE>
    473d:	84 c0                	test   %al,%al
    473f:	75 19                	jne    475a <_ZNSt10_HashtableIcSt4pairIKciESaIS2_ENSt8__detail10_Select1stESt8equal_toIcESt4hashIcENS4_18_Mod_range_hashingENS4_20_Default_ranged_hashENS4_20_Prime_rehash_policyENS4_17_Hashtable_traitsILb0ELb0ELb1EEEE21_M_deallocate_bucketsEPPNS4_15_Hash_node_baseEm+0x44>
    4741:	48 8b 55 e8          	mov    -0x18(%rbp),%rdx
    4745:	48 8b 4d f0          	mov    -0x10(%rbp),%rcx
    4749:	48 8b 45 f8          	mov    -0x8(%rbp),%rax
    474d:	48 89 ce             	mov    %rcx,%rsi
    4750:	48 89 c7             	mov    %rax,%rdi
    4753:	e8 90 02 00 00       	call   49e8 <_ZNSt8__detail16_Hashtable_allocISaINS_10_Hash_nodeISt4pairIKciELb0EEEEE21_M_deallocate_bucketsEPPNS_15_Hash_node_baseEm>
    4758:	eb 01                	jmp    475b <_ZNSt10_HashtableIcSt4pairIKciESaIS2_ENSt8__detail10_Select1stESt8equal_toIcESt4hashIcENS4_18_Mod_range_hashingENS4_20_Default_ranged_hashENS4_20_Prime_rehash_policyENS4_17_Hashtable_traitsILb0ELb0ELb1EEEE21_M_deallocate_bucketsEPPNS4_15_Hash_node_baseEm+0x45>
    475a:	90                   	nop
    475b:	c9                   	leave
    475c:	c3                   	ret
    475d:	90                   	nop

000000000000475e <_ZNSt10_HashtableIcSt4pairIKciESaIS2_ENSt8__detail10_Select1stESt8equal_toIcESt4hashIcENS4_18_Mod_range_hashingENS4_20_Default_ranged_hashENS4_20_Prime_rehash_policyENS4_17_Hashtable_traitsILb0ELb0ELb1EEEEC1ERKS9_RKS7_RKS3_>:
    475e:	55                   	push   %rbp
    475f:	48 89 e5             	mov    %rsp,%rbp
    4762:	53                   	push   %rbx
    4763:	48 83 ec 48          	sub    $0x48,%rsp
    4767:	48 89 7d c8          	mov    %rdi,-0x38(%rbp)
    476b:	48 89 75 c0          	mov    %rsi,-0x40(%rbp)
    476f:	48 89 55 b8          	mov    %rdx,-0x48(%rbp)
    4773:	48 89 4d b0          	mov    %rcx,-0x50(%rbp)
    4777:	64 48 8b 04 25 28 00 	mov    %fs:0x28,%rax
    477e:	00 00 
    4780:	48 89 45 e8          	mov    %rax,-0x18(%rbp)
    4784:	31 c0                	xor    %eax,%eax
    4786:	48 8b 55 b8          	mov    -0x48(%rbp),%rdx
    478a:	48 8b 4d c0          	mov    -0x40(%rbp),%rcx
    478e:	48 8b 45 c8          	mov    -0x38(%rbp),%rax
    4792:	48 89 ce             	mov    %rcx,%rsi
    4795:	48 89 c7             	mov    %rax,%rdi
    4798:	e8 e5 02 00 00       	call   4a82 <_ZNSt8__detail15_Hashtable_baseIcSt4pairIKciENS_10_Select1stESt8equal_toIcESt4hashIcENS_18_Mod_range_hashingENS_20_Default_ranged_hashENS_17_Hashtable_traitsILb0ELb0ELb1EEEEC1ERKS8_RKS6_>
    479d:	48 8b 45 b0          	mov    -0x50(%rbp),%rax
    47a1:	48 89 45 d8          	mov    %rax,-0x28(%rbp)
    47a5:	48 8d 45 d7          	lea    -0x29(%rbp),%rax
    47a9:	48 89 45 e0          	mov    %rax,-0x20(%rbp)
    47ad:	90                   	nop
    47ae:	90                   	nop
    47af:	48 8d 45 d7          	lea    -0x29(%rbp),%rax
    47b3:	48 8b 55 c8          	mov    -0x38(%rbp),%rdx
    47b7:	48 89 c6             	mov    %rax,%rsi
    47ba:	48 89 d7             	mov    %rdx,%rdi
    47bd:	e8 fe 02 00 00       	call   4ac0 <_ZNSt8__detail16_Hashtable_allocISaINS_10_Hash_nodeISt4pairIKciELb0EEEEEC1IS6_EEOT_>
    47c2:	48 8d 45 d7          	lea    -0x29(%rbp),%rax
    47c6:	48 89 c7             	mov    %rax,%rdi
    47c9:	e8 e2 fe ff ff       	call   46b0 <_ZNSt15__new_allocatorINSt8__detail10_Hash_nodeISt4pairIKciELb0EEEED1Ev>
    47ce:	90                   	nop
    47cf:	48 8b 45 c8          	mov    -0x38(%rbp),%rax
    47d3:	48 89 c7             	mov    %rax,%rdi
    47d6:	e8 17 03 00 00       	call   4af2 <_ZNSt27_Enable_default_constructorILb1ENSt8__detail15_Hash_node_baseEEC1ESt31_Enable_default_constructor_tag>
    47db:	48 8b 45 c8          	mov    -0x38(%rbp),%rax
    47df:	48 8d 50 30          	lea    0x30(%rax),%rdx
    47e3:	48 8b 45 c8          	mov    -0x38(%rbp),%rax
    47e7:	48 89 10             	mov    %rdx,(%rax)
    47ea:	48 8b 45 c8          	mov    -0x38(%rbp),%rax
    47ee:	48 c7 40 08 01 00 00 	movq   $0x1,0x8(%rax)
    47f5:	00 
    47f6:	48 8b 45 c8          	mov    -0x38(%rbp),%rax
    47fa:	48 83 c0 10          	add    $0x10,%rax
    47fe:	48 89 c7             	mov    %rax,%rdi
    4801:	e8 3a f9 ff ff       	call   4140 <_ZNSt8__detail15_Hash_node_baseC1Ev>
    4806:	48 8b 45 c8          	mov    -0x38(%rbp),%rax
    480a:	48 c7 40 18 00 00 00 	movq   $0x0,0x18(%rax)
    4811:	00 
    4812:	48 8b 45 c8          	mov    -0x38(%rbp),%rax
    4816:	48 8d 50 20          	lea    0x20(%rax),%rdx
    481a:	8b 05 2c ca 00 00    	mov    0xca2c(%rip),%eax        # 1124c <_ZNSt8__detail30__integer_to_chars_is_unsignedIyEE+0x2>
    4820:	c5 f9 6e c0          	vmovd  %eax,%xmm0
    4824:	48 89 d7             	mov    %rdx,%rdi
    4827:	e8 4c f9 ff ff       	call   4178 <_ZNSt8__detail20_Prime_rehash_policyC1Ef>
    482c:	48 8b 45 c8          	mov    -0x38(%rbp),%rax
    4830:	48 c7 40 30 00 00 00 	movq   $0x0,0x30(%rax)
    4837:	00 
    4838:	90                   	nop
    4839:	48 8b 45 e8          	mov    -0x18(%rbp),%rax
    483d:	64 48 2b 04 25 28 00 	sub    %fs:0x28,%rax
    4844:	00 00 
    4846:	74 36                	je     487e <_ZNSt10_HashtableIcSt4pairIKciESaIS2_ENSt8__detail10_Select1stESt8equal_toIcESt4hashIcENS4_18_Mod_range_hashingENS4_20_Default_ranged_hashENS4_20_Prime_rehash_policyENS4_17_Hashtable_traitsILb0ELb0ELb1EEEEC1ERKS9_RKS7_RKS3_+0x120>
    4848:	eb 2f                	jmp    4879 <_ZNSt10_HashtableIcSt4pairIKciESaIS2_ENSt8__detail10_Select1stESt8equal_toIcESt4hashIcENS4_18_Mod_range_hashingENS4_20_Default_ranged_hashENS4_20_Prime_rehash_policyENS4_17_Hashtable_traitsILb0ELb0ELb1EEEEC1ERKS9_RKS7_RKS3_+0x11b>
    484a:	48 89 c3             	mov    %rax,%rbx
    484d:	48 8d 45 d7          	lea    -0x29(%rbp),%rax
    4851:	48 89 c7             	mov    %rax,%rdi
    4854:	e8 57 fe ff ff       	call   46b0 <_ZNSt15__new_allocatorINSt8__detail10_Hash_nodeISt4pairIKciELb0EEEED1Ev>
    4859:	90                   	nop
    485a:	48 89 d8             	mov    %rbx,%rax
    485d:	48 8b 55 e8          	mov    -0x18(%rbp),%rdx
    4861:	64 48 2b 14 25 28 00 	sub    %fs:0x28,%rdx
    4868:	00 00 
    486a:	74 05                	je     4871 <_ZNSt10_HashtableIcSt4pairIKciESaIS2_ENSt8__detail10_Select1stESt8equal_toIcESt4hashIcENS4_18_Mod_range_hashingENS4_20_Default_ranged_hashENS4_20_Prime_rehash_policyENS4_17_Hashtable_traitsILb0ELb0ELb1EEEEC1ERKS9_RKS7_RKS3_+0x113>
    486c:	e8 2f ea ff ff       	call   32a0 <__stack_chk_fail@plt>
    4871:	48 89 c7             	mov    %rax,%rdi
    4874:	e8 57 eb ff ff       	call   33d0 <_Unwind_Resume@plt>
    4879:	e8 22 ea ff ff       	call   32a0 <__stack_chk_fail@plt>
    487e:	48 8b 5d f8          	mov    -0x8(%rbp),%rbx
    4882:	c9                   	leave
    4883:	c3                   	ret

0000000000004884 <_ZNSt10_HashtableIcSt4pairIKciESaIS2_ENSt8__detail10_Select1stESt8equal_toIcESt4hashIcENS4_18_Mod_range_hashingENS4_20_Default_ranged_hashENS4_20_Prime_rehash_policyENS4_17_Hashtable_traitsILb0ELb0ELb1EEEE19_M_allocate_bucketsEm>:
    4884:	55                   	push   %rbp
    4885:	48 89 e5             	mov    %rsp,%rbp
    4888:	48 83 ec 10          	sub    $0x10,%rsp
    488c:	48 89 7d f8          	mov    %rdi,-0x8(%rbp)
    4890:	48 89 75 f0          	mov    %rsi,-0x10(%rbp)
    4894:	48 83 7d f0 01       	cmpq   $0x1,-0x10(%rbp)
    4899:	0f 94 c0             	sete   %al
    489c:	0f b6 c0             	movzbl %al,%eax
    489f:	48 85 c0             	test   %rax,%rax
    48a2:	74 16                	je     48ba <_ZNSt10_HashtableIcSt4pairIKciESaIS2_ENSt8__detail10_Select1stESt8equal_toIcESt4hashIcENS4_18_Mod_range_hashingENS4_20_Default_ranged_hashENS4_20_Prime_rehash_policyENS4_17_Hashtable_traitsILb0ELb0ELb1EEEE19_M_allocate_bucketsEm+0x36>
    48a4:	48 8b 45 f8          	mov    -0x8(%rbp),%rax
    48a8:	48 c7 40 30 00 00 00 	movq   $0x0,0x30(%rax)
    48af:	00 
    48b0:	48 8b 45 f8          	mov    -0x8(%rbp),%rax
    48b4:	48 83 c0 30          	add    $0x30,%rax
    48b8:	eb 14                	jmp    48ce <_ZNSt10_HashtableIcSt4pairIKciESaIS2_ENSt8__detail10_Select1stESt8equal_toIcESt4hashIcENS4_18_Mod_range_hashingENS4_20_Default_ranged_hashENS4_20_Prime_rehash_policyENS4_17_Hashtable_traitsILb0ELb0ELb1EEEE19_M_allocate_bucketsEm+0x4a>
    48ba:	48 8b 55 f0          	mov    -0x10(%rbp),%rdx
    48be:	48 8b 45 f8          	mov    -0x8(%rbp),%rax
    48c2:	48 89 d6             	mov    %rdx,%rsi
    48c5:	48 89 c7             	mov    %rax,%rdi
    48c8:	e8 31 02 00 00       	call   4afe <_ZNSt8__detail16_Hashtable_allocISaINS_10_Hash_nodeISt4pairIKciELb0EEEEE19_M_allocate_bucketsEm>
    48cd:	90                   	nop
    48ce:	c9                   	leave
    48cf:	c3                   	ret

00000000000048d0 <_ZNSt8__detail12_Insert_baseIcSt4pairIKciESaIS3_ENS_10_Select1stESt8equal_toIcESt4hashIcENS_18_Mod_range_hashingENS_20_Default_ranged_hashENS_20_Prime_rehash_policyENS_17_Hashtable_traitsILb0ELb0ELb1EEEE20_M_conjure_hashtableEv>:
    48d0:	55                   	push   %rbp
    48d1:	48 89 e5             	mov    %rsp,%rbp
    48d4:	48 89 7d f8          	mov    %rdi,-0x8(%rbp)
    48d8:	48 8b 45 f8          	mov    -0x8(%rbp),%rax
    48dc:	5d                   	pop    %rbp
    48dd:	c3                   	ret

00000000000048de <_ZNSt8__detail10_AllocNodeISaINS_10_Hash_nodeISt4pairIKciELb0EEEEEC1ERNS_16_Hashtable_allocIS6_EE>:
    48de:	55                   	push   %rbp
    48df:	48 89 e5             	mov    %rsp,%rbp
    48e2:	48 89 7d f8          	mov    %rdi,-0x8(%rbp)
    48e6:	48 89 75 f0          	mov    %rsi,-0x10(%rbp)
    48ea:	48 8b 45 f8          	mov    -0x8(%rbp),%rax
    48ee:	48 8b 55 f0          	mov    -0x10(%rbp),%rdx
    48f2:	48 89 10             	mov    %rdx,(%rax)
    48f5:	90                   	nop
    48f6:	5d                   	pop    %rbp
    48f7:	c3                   	ret

00000000000048f8 <_ZNSt8__detail12_Insert_baseIcSt4pairIKciESaIS3_ENS_10_Select1stESt8equal_toIcESt4hashIcENS_18_Mod_range_hashingENS_20_Default_ranged_hashENS_20_Prime_rehash_policyENS_17_Hashtable_traitsILb0ELb0ELb1EEEE15_M_insert_rangeIPKS3_NS_10_AllocNodeISaINS_10_Hash_nodeIS3_Lb0EEEEEEEEvT_SO_RKT0_St17integral_constantIbLb1EE>:
    48f8:	55                   	push   %rbp
    48f9:	48 89 e5             	mov    %rsp,%rbp
    48fc:	48 83 ec 40          	sub    $0x40,%rsp
    4900:	48 89 7d e8          	mov    %rdi,-0x18(%rbp)
    4904:	48 89 75 e0          	mov    %rsi,-0x20(%rbp)
    4908:	48 89 55 d8          	mov    %rdx,-0x28(%rbp)
    490c:	48 89 4d d0          	mov    %rcx,-0x30(%rbp)
    4910:	48 8b 45 e8          	mov    -0x18(%rbp),%rax
    4914:	48 89 c7             	mov    %rax,%rdi
    4917:	e8 b4 ff ff ff       	call   48d0 <_ZNSt8__detail12_Insert_baseIcSt4pairIKciESaIS3_ENS_10_Select1stESt8equal_toIcESt4hashIcENS_18_Mod_range_hashingENS_20_Default_ranged_hashENS_20_Prime_rehash_policyENS_17_Hashtable_traitsILb0ELb0ELb1EEEE20_M_conjure_hashtableEv>
    491c:	48 89 45 f8          	mov    %rax,-0x8(%rbp)
    4920:	eb 1c                	jmp    493e <_ZNSt8__detail12_Insert_baseIcSt4pairIKciESaIS3_ENS_10_Select1stESt8equal_toIcESt4hashIcENS_18_Mod_range_hashingENS_20_Default_ranged_hashENS_20_Prime_rehash_policyENS_17_Hashtable_traitsILb0ELb0ELb1EEEE15_M_insert_rangeIPKS3_NS_10_AllocNodeISaINS_10_Hash_nodeIS3_Lb0EEEEEEEEvT_SO_RKT0_St17integral_constantIbLb1EE+0x46>
    4922:	48 8b 55 d0          	mov    -0x30(%rbp),%rdx
    4926:	48 8b 4d e0          	mov    -0x20(%rbp),%rcx
    492a:	48 8b 45 f8          	mov    -0x8(%rbp),%rax
    492e:	48 89 ce             	mov    %rcx,%rsi
    4931:	48 89 c7             	mov    %rax,%rdi
    4934:	e8 b3 02 00 00       	call   4bec <_ZNSt10_HashtableIcSt4pairIKciESaIS2_ENSt8__detail10_Select1stESt8equal_toIcESt4hashIcENS4_18_Mod_range_hashingENS4_20_Default_ranged_hashENS4_20_Prime_rehash_policyENS4_17_Hashtable_traitsILb0ELb0ELb1EEEE9_M_insertIRKS2_NS4_10_AllocNodeISaINS4_10_Hash_nodeIS2_Lb0EEEEEEEES0_INS4_14_Node_iteratorIS2_Lb0ELb0EEEbEOT_RKT0_St17integral_constantIbLb1EE>
    4939:	48 83 45 e0 08       	addq   $0x8,-0x20(%rbp)
    493e:	48 8b 45 e0          	mov    -0x20(%rbp),%rax
    4942:	48 3b 45 d8          	cmp    -0x28(%rbp),%rax
    4946:	75 da                	jne    4922 <_ZNSt8__detail12_Insert_baseIcSt4pairIKciESaIS3_ENS_10_Select1stESt8equal_toIcESt4hashIcENS_18_Mod_range_hashingENS_20_Default_ranged_hashENS_20_Prime_rehash_policyENS_17_Hashtable_traitsILb0ELb0ELb1EEEE15_M_insert_rangeIPKS3_NS_10_AllocNodeISaINS_10_Hash_nodeIS3_Lb0EEEEEEEEvT_SO_RKT0_St17integral_constantIbLb1EE+0x2a>
    4948:	90                   	nop
    4949:	90                   	nop
    494a:	c9                   	leave
    494b:	c3                   	ret

000000000000494c <_ZNKSt8__detail10_Hash_nodeISt4pairIKciELb0EE7_M_nextEv>:
    494c:	55                   	push   %rbp
    494d:	48 89 e5             	mov    %rsp,%rbp
    4950:	48 89 7d f8          	mov    %rdi,-0x8(%rbp)
    4954:	48 8b 45 f8          	mov    -0x8(%rbp),%rax
    4958:	48 8b 00             	mov    (%rax),%rax
    495b:	5d                   	pop    %rbp
    495c:	c3                   	ret
    495d:	90                   	nop

000000000000495e <_ZNSt8__detail16_Hashtable_allocISaINS_10_Hash_nodeISt4pairIKciELb0EEEEE18_M_deallocate_nodeEPS5_>:
    495e:	55                   	push   %rbp
    495f:	48 89 e5             	mov    %rsp,%rbp
    4962:	53                   	push   %rbx
    4963:	48 83 ec 38          	sub    $0x38,%rsp
    4967:	48 89 7d c8          	mov    %rdi,-0x38(%rbp)
    496b:	48 89 75 c0          	mov    %rsi,-0x40(%rbp)
    496f:	48 8b 45 c0          	mov    -0x40(%rbp),%rax
    4973:	48 83 c0 08          	add    $0x8,%rax
    4977:	48 89 c7             	mov    %rax,%rdi
    497a:	e8 f5 02 00 00       	call   4c74 <_ZNSt8__detail21_Hash_node_value_baseISt4pairIKciEE9_M_valptrEv>
    497f:	48 89 c3             	mov    %rax,%rbx
    4982:	48 8b 45 c8          	mov    -0x38(%rbp),%rax
    4986:	48 89 c7             	mov    %rax,%rdi
    4989:	e8 cc 02 00 00       	call   4c5a <_ZNSt8__detail16_Hashtable_allocISaINS_10_Hash_nodeISt4pairIKciELb0EEEEE17_M_node_allocatorEv>
    498e:	48 89 45 d0          	mov    %rax,-0x30(%rbp)
    4992:	48 89 5d d8          	mov    %rbx,-0x28(%rbp)
    4996:	48 8b 45 d0          	mov    -0x30(%rbp),%rax
    499a:	48 89 45 e0          	mov    %rax,-0x20(%rbp)
    499e:	48 8b 45 d8          	mov    -0x28(%rbp),%rax
    49a2:	48 89 45 e8          	mov    %rax,-0x18(%rbp)
    49a6:	90                   	nop
    49a7:	90                   	nop
    49a8:	48 8b 55 c0          	mov    -0x40(%rbp),%rdx
    49ac:	48 8b 45 c8          	mov    -0x38(%rbp),%rax
    49b0:	48 89 d6             	mov    %rdx,%rsi
    49b3:	48 89 c7             	mov    %rax,%rdi
    49b6:	e8 d3 02 00 00       	call   4c8e <_ZNSt8__detail16_Hashtable_allocISaINS_10_Hash_nodeISt4pairIKciELb0EEEEE22_M_deallocate_node_ptrEPS5_>
    49bb:	90                   	nop
    49bc:	48 8b 5d f8          	mov    -0x8(%rbp),%rbx
    49c0:	c9                   	leave
    49c1:	c3                   	ret

00000000000049c2 <_ZNKSt10_HashtableIcSt4pairIKciESaIS2_ENSt8__detail10_Select1stESt8equal_toIcESt4hashIcENS4_18_Mod_range_hashingENS4_20_Default_ranged_hashENS4_20_Prime_rehash_policyENS4_17_Hashtable_traitsILb0ELb0ELb1EEEE21_M_uses_single_bucketEPPNS4_15_Hash_node_baseE>:
    49c2:	55                   	push   %rbp
    49c3:	48 89 e5             	mov    %rsp,%rbp
    49c6:	48 89 7d f8          	mov    %rdi,-0x8(%rbp)
    49ca:	48 89 75 f0          	mov    %rsi,-0x10(%rbp)
    49ce:	48 8b 45 f8          	mov    -0x8(%rbp),%rax
    49d2:	48 83 c0 30          	add    $0x30,%rax
    49d6:	48 39 45 f0          	cmp    %rax,-0x10(%rbp)
    49da:	0f 94 c0             	sete   %al
    49dd:	0f b6 c0             	movzbl %al,%eax
    49e0:	48 85 c0             	test   %rax,%rax
    49e3:	0f 95 c0             	setne  %al
    49e6:	5d                   	pop    %rbp
    49e7:	c3                   	ret

00000000000049e8 <_ZNSt8__detail16_Hashtable_allocISaINS_10_Hash_nodeISt4pairIKciELb0EEEEE21_M_deallocate_bucketsEPPNS_15_Hash_node_baseEm>:
    49e8:	55                   	push   %rbp
    49e9:	48 89 e5             	mov    %rsp,%rbp
    49ec:	48 83 ec 60          	sub    $0x60,%rsp
    49f0:	48 89 7d b8          	mov    %rdi,-0x48(%rbp)
    49f4:	48 89 75 b0          	mov    %rsi,-0x50(%rbp)
    49f8:	48 89 55 a8          	mov    %rdx,-0x58(%rbp)
    49fc:	64 48 8b 04 25 28 00 	mov    %fs:0x28,%rax
    4a03:	00 00 
    4a05:	48 89 45 f8          	mov    %rax,-0x8(%rbp)
    4a09:	31 c0                	xor    %eax,%eax
    4a0b:	48 8b 45 b0          	mov    -0x50(%rbp),%rax
    4a0f:	48 89 c7             	mov    %rax,%rdi
    4a12:	e8 d2 02 00 00       	call   4ce9 <_ZNSt19__ptr_traits_ptr_toIPPNSt8__detail15_Hash_node_baseES2_Lb0EE10pointer_toERS2_>
    4a17:	48 89 45 d0          	mov    %rax,-0x30(%rbp)
    4a1b:	48 8b 45 b8          	mov    -0x48(%rbp),%rax
    4a1f:	48 89 c7             	mov    %rax,%rdi
    4a22:	e8 33 02 00 00       	call   4c5a <_ZNSt8__detail16_Hashtable_allocISaINS_10_Hash_nodeISt4pairIKciELb0EEEEE17_M_node_allocatorEv>
    4a27:	48 89 45 e8          	mov    %rax,-0x18(%rbp)
    4a2b:	48 8d 45 cf          	lea    -0x31(%rbp),%rax
    4a2f:	48 89 45 f0          	mov    %rax,-0x10(%rbp)
    4a33:	90                   	nop
    4a34:	90                   	nop
    4a35:	48 8b 45 d0          	mov    -0x30(%rbp),%rax
    4a39:	48 89 45 d8          	mov    %rax,-0x28(%rbp)
    4a3d:	48 8b 45 a8          	mov    -0x58(%rbp),%rax
    4a41:	48 89 45 e0          	mov    %rax,-0x20(%rbp)
    4a45:	48 8b 55 e0          	mov    -0x20(%rbp),%rdx
    4a49:	48 8b 4d d8          	mov    -0x28(%rbp),%rcx
    4a4d:	48 8d 45 cf          	lea    -0x31(%rbp),%rax
    4a51:	48 89 ce             	mov    %rcx,%rsi
    4a54:	48 89 c7             	mov    %rax,%rdi
    4a57:	e8 5c 04 00 00       	call   4eb8 <_ZNSt15__new_allocatorIPNSt8__detail15_Hash_node_baseEE10deallocateEPS2_m>
    4a5c:	90                   	nop
    4a5d:	48 8d 45 cf          	lea    -0x31(%rbp),%rax
    4a61:	48 89 c7             	mov    %rax,%rdi
    4a64:	e8 43 04 00 00       	call   4eac <_ZNSt15__new_allocatorIPNSt8__detail15_Hash_node_baseEED1Ev>
    4a69:	90                   	nop
    4a6a:	90                   	nop
    4a6b:	48 8b 45 f8          	mov    -0x8(%rbp),%rax
    4a6f:	64 48 2b 04 25 28 00 	sub    %fs:0x28,%rax
    4a76:	00 00 
    4a78:	74 05                	je     4a7f <_ZNSt8__detail16_Hashtable_allocISaINS_10_Hash_nodeISt4pairIKciELb0EEEEE21_M_deallocate_bucketsEPPNS_15_Hash_node_baseEm+0x97>
    4a7a:	e8 21 e8 ff ff       	call   32a0 <__stack_chk_fail@plt>
    4a7f:	c9                   	leave
    4a80:	c3                   	ret
    4a81:	90                   	nop

0000000000004a82 <_ZNSt8__detail15_Hashtable_baseIcSt4pairIKciENS_10_Select1stESt8equal_toIcESt4hashIcENS_18_Mod_range_hashingENS_20_Default_ranged_hashENS_17_Hashtable_traitsILb0ELb0ELb1EEEEC1ERKS8_RKS6_>:
    4a82:	55                   	push   %rbp
    4a83:	48 89 e5             	mov    %rsp,%rbp
    4a86:	48 83 ec 20          	sub    $0x20,%rsp
    4a8a:	48 89 7d f8          	mov    %rdi,-0x8(%rbp)
    4a8e:	48 89 75 f0          	mov    %rsi,-0x10(%rbp)
    4a92:	48 89 55 e8          	mov    %rdx,-0x18(%rbp)
    4a96:	48 8b 55 f0          	mov    -0x10(%rbp),%rdx
    4a9a:	48 8b 45 f8          	mov    -0x8(%rbp),%rax
    4a9e:	48 89 d6             	mov    %rdx,%rsi
    4aa1:	48 89 c7             	mov    %rax,%rdi
    4aa4:	e8 5b 02 00 00       	call   4d04 <_ZNSt8__detail15_Hash_code_baseIcSt4pairIKciENS_10_Select1stESt4hashIcENS_18_Mod_range_hashingENS_20_Default_ranged_hashELb0EEC1ERKS6_>
    4aa9:	48 8b 55 e8          	mov    -0x18(%rbp),%rdx
    4aad:	48 8b 45 f8          	mov    -0x8(%rbp),%rax
    4ab1:	48 89 d6             	mov    %rdx,%rsi
    4ab4:	48 89 c7             	mov    %rax,%rdi
    4ab7:	e8 6e 02 00 00       	call   4d2a <_ZNSt8__detail21_Hashtable_ebo_helperILi0ESt8equal_toIcELb1EEC1IRKS2_EEOT_>
    4abc:	90                   	nop
    4abd:	c9                   	leave
    4abe:	c3                   	ret
    4abf:	90                   	nop

0000000000004ac0 <_ZNSt8__detail16_Hashtable_allocISaINS_10_Hash_nodeISt4pairIKciELb0EEEEEC1IS6_EEOT_>:
    4ac0:	55                   	push   %rbp
    4ac1:	48 89 e5             	mov    %rsp,%rbp
    4ac4:	48 83 ec 10          	sub    $0x10,%rsp
    4ac8:	48 89 7d f8          	mov    %rdi,-0x8(%rbp)
    4acc:	48 89 75 f0          	mov    %rsi,-0x10(%rbp)
    4ad0:	48 8b 45 f0          	mov    -0x10(%rbp),%rax
    4ad4:	48 89 c7             	mov    %rax,%rdi
    4ad7:	e8 6d 02 00 00       	call   4d49 <_ZSt7forwardISaINSt8__detail10_Hash_nodeISt4pairIKciELb0EEEEEOT_RNSt16remove_referenceIS7_E4typeE>
    4adc:	48 89 c2             	mov    %rax,%rdx
    4adf:	48 8b 45 f8          	mov    -0x8(%rbp),%rax
    4ae3:	48 89 d6             	mov    %rdx,%rsi
    4ae6:	48 89 c7             	mov    %rax,%rdi
    4ae9:	e8 6a 02 00 00       	call   4d58 <_ZNSt8__detail21_Hashtable_ebo_helperILi0ESaINS_10_Hash_nodeISt4pairIKciELb0EEEELb1EEC1IS6_EEOT_>
    4aee:	90                   	nop
    4aef:	c9                   	leave
    4af0:	c3                   	ret
    4af1:	90                   	nop

0000000000004af2 <_ZNSt27_Enable_default_constructorILb1ENSt8__detail15_Hash_node_baseEEC1ESt31_Enable_default_constructor_tag>:
    4af2:	55                   	push   %rbp
    4af3:	48 89 e5             	mov    %rsp,%rbp
    4af6:	48 89 7d f8          	mov    %rdi,-0x8(%rbp)
    4afa:	90                   	nop
    4afb:	5d                   	pop    %rbp
    4afc:	c3                   	ret
    4afd:	90                   	nop

0000000000004afe <_ZNSt8__detail16_Hashtable_allocISaINS_10_Hash_nodeISt4pairIKciELb0EEEEE19_M_allocate_bucketsEm>:
    4afe:	55                   	push   %rbp
    4aff:	48 89 e5             	mov    %rsp,%rbp
    4b02:	53                   	push   %rbx
    4b03:	48 83 ec 58          	sub    $0x58,%rsp
    4b07:	48 89 7d a8          	mov    %rdi,-0x58(%rbp)
    4b0b:	48 89 75 a0          	mov    %rsi,-0x60(%rbp)
    4b0f:	64 48 8b 04 25 28 00 	mov    %fs:0x28,%rax
    4b16:	00 00 
    4b18:	48 89 45 e8          	mov    %rax,-0x18(%rbp)
    4b1c:	31 c0                	xor    %eax,%eax
    4b1e:	48 8b 45 a8          	mov    -0x58(%rbp),%rax
    4b22:	48 89 c7             	mov    %rax,%rdi
    4b25:	e8 30 01 00 00       	call   4c5a <_ZNSt8__detail16_Hashtable_allocISaINS_10_Hash_nodeISt4pairIKciELb0EEEEE17_M_node_allocatorEv>
    4b2a:	48 89 45 d8          	mov    %rax,-0x28(%rbp)
    4b2e:	48 8d 45 bf          	lea    -0x41(%rbp),%rax
    4b32:	48 89 45 e0          	mov    %rax,-0x20(%rbp)
    4b36:	90                   	nop
    4b37:	90                   	nop
    4b38:	48 8b 45 a0          	mov    -0x60(%rbp),%rax
    4b3c:	48 89 45 d0          	mov    %rax,-0x30(%rbp)
    4b40:	48 8b 4d d0          	mov    -0x30(%rbp),%rcx
    4b44:	48 8d 45 bf          	lea    -0x41(%rbp),%rax
    4b48:	ba 00 00 00 00       	mov    $0x0,%edx
    4b4d:	48 89 ce             	mov    %rcx,%rsi
    4b50:	48 89 c7             	mov    %rax,%rdi
    4b53:	e8 c0 03 00 00       	call   4f18 <_ZNSt15__new_allocatorIPNSt8__detail15_Hash_node_baseEE8allocateEmPKv>
    4b58:	90                   	nop
    4b59:	48 89 45 c0          	mov    %rax,-0x40(%rbp)
    4b5d:	48 8b 45 c0          	mov    -0x40(%rbp),%rax
    4b61:	48 89 c7             	mov    %rax,%rdi
    4b64:	e8 2c 02 00 00       	call   4d95 <_ZSt12__to_addressIPNSt8__detail15_Hash_node_baseEEPT_S4_>
    4b69:	48 89 45 c8          	mov    %rax,-0x38(%rbp)
    4b6d:	48 8b 45 a0          	mov    -0x60(%rbp),%rax
    4b71:	48 c1 e0 03          	shl    $0x3,%rax
    4b75:	48 8b 55 c8          	mov    -0x38(%rbp),%rdx
    4b79:	48 89 d1             	mov    %rdx,%rcx
    4b7c:	48 89 c2             	mov    %rax,%rdx
    4b7f:	be 00 00 00 00       	mov    $0x0,%esi
    4b84:	48 89 cf             	mov    %rcx,%rdi
    4b87:	e8 84 e5 ff ff       	call   3110 <memset@plt>
    4b8c:	48 8b 5d c8          	mov    -0x38(%rbp),%rbx
    4b90:	48 8d 45 bf          	lea    -0x41(%rbp),%rax
    4b94:	48 89 c7             	mov    %rax,%rdi
    4b97:	e8 10 03 00 00       	call   4eac <_ZNSt15__new_allocatorIPNSt8__detail15_Hash_node_baseEED1Ev>
    4b9c:	90                   	nop
    4b9d:	48 89 d8             	mov    %rbx,%rax
    4ba0:	48 8b 55 e8          	mov    -0x18(%rbp),%rdx
    4ba4:	64 48 2b 14 25 28 00 	sub    %fs:0x28,%rdx
    4bab:	00 00 
    4bad:	74 36                	je     4be5 <_ZNSt8__detail16_Hashtable_allocISaINS_10_Hash_nodeISt4pairIKciELb0EEEEE19_M_allocate_bucketsEm+0xe7>
    4baf:	eb 2f                	jmp    4be0 <_ZNSt8__detail16_Hashtable_allocISaINS_10_Hash_nodeISt4pairIKciELb0EEEEE19_M_allocate_bucketsEm+0xe2>
    4bb1:	48 89 c3             	mov    %rax,%rbx
    4bb4:	48 8d 45 bf          	lea    -0x41(%rbp),%rax
    4bb8:	48 89 c7             	mov    %rax,%rdi
    4bbb:	e8 ec 02 00 00       	call   4eac <_ZNSt15__new_allocatorIPNSt8__detail15_Hash_node_baseEED1Ev>
    4bc0:	90                   	nop
    4bc1:	48 89 d8             	mov    %rbx,%rax
    4bc4:	48 8b 55 e8          	mov    -0x18(%rbp),%rdx
    4bc8:	64 48 2b 14 25 28 00 	sub    %fs:0x28,%rdx
    4bcf:	00 00 
    4bd1:	74 05                	je     4bd8 <_ZNSt8__detail16_Hashtable_allocISaINS_10_Hash_nodeISt4pairIKciELb0EEEEE19_M_allocate_bucketsEm+0xda>
    4bd3:	e8 c8 e6 ff ff       	call   32a0 <__stack_chk_fail@plt>
    4bd8:	48 89 c7             	mov    %rax,%rdi
    4bdb:	e8 f0 e7 ff ff       	call   33d0 <_Unwind_Resume@plt>
    4be0:	e8 bb e6 ff ff       	call   32a0 <__stack_chk_fail@plt>
    4be5:	48 8b 5d f8          	mov    -0x8(%rbp),%rbx
    4be9:	c9                   	leave
    4bea:	c3                   	ret
    4beb:	90                   	nop

0000000000004bec <_ZNSt10_HashtableIcSt4pairIKciESaIS2_ENSt8__detail10_Select1stESt8equal_toIcESt4hashIcENS4_18_Mod_range_hashingENS4_20_Default_ranged_hashENS4_20_Prime_rehash_policyENS4_17_Hashtable_traitsILb0ELb0ELb1EEEE9_M_insertIRKS2_NS4_10_AllocNodeISaINS4_10_Hash_nodeIS2_Lb0EEEEEEEES0_INS4_14_Node_iteratorIS2_Lb0ELb0EEEbEOT_RKT0_St17integral_constantIbLb1EE>:
    4bec:	55                   	push   %rbp
    4bed:	48 89 e5             	mov    %rsp,%rbp
    4bf0:	48 83 ec 30          	sub    $0x30,%rsp
    4bf4:	48 89 7d e8          	mov    %rdi,-0x18(%rbp)
    4bf8:	48 89 75 e0          	mov    %rsi,-0x20(%rbp)
    4bfc:	48 89 55 d8          	mov    %rdx,-0x28(%rbp)
    4c00:	64 48 8b 04 25 28 00 	mov    %fs:0x28,%rax
    4c07:	00 00 
    4c09:	48 89 45 f8          	mov    %rax,-0x8(%rbp)
    4c0d:	31 c0                	xor    %eax,%eax
    4c0f:	48 8b 45 e0          	mov    -0x20(%rbp),%rax
    4c13:	48 89 c7             	mov    %rax,%rdi
    4c16:	e8 88 01 00 00       	call   4da3 <_ZSt7forwardIRKSt4pairIKciEEOT_RNSt16remove_referenceIS5_E4typeE>
    4c1b:	48 89 c2             	mov    %rax,%rdx
    4c1e:	48 8d 45 f7          	lea    -0x9(%rbp),%rax
    4c22:	48 89 d6             	mov    %rdx,%rsi
    4c25:	48 89 c7             	mov    %rax,%rdi
    4c28:	e8 85 01 00 00       	call   4db2 <_ZNKSt8__detail19_ConvertToValueTypeINS_10_Select1stESt4pairIKciEEclERKS4_>
    4c2d:	48 89 c1             	mov    %rax,%rcx
    4c30:	48 8b 55 d8          	mov    -0x28(%rbp),%rdx
    4c34:	48 8b 45 e8          	mov    -0x18(%rbp),%rax
    4c38:	48 89 ce             	mov    %rcx,%rsi
    4c3b:	48 89 c7             	mov    %rax,%rdi
    4c3e:	e8 81 01 00 00       	call   4dc4 <_ZNSt10_HashtableIcSt4pairIKciESaIS2_ENSt8__detail10_Select1stESt8equal_toIcESt4hashIcENS4_18_Mod_range_hashingENS4_20_Default_ranged_hashENS4_20_Prime_rehash_policyENS4_17_Hashtable_traitsILb0ELb0ELb1EEEE20_M_insert_unique_auxIRKS2_NS4_10_AllocNodeISaINS4_10_Hash_nodeIS2_Lb0EEEEEEEES0_INS4_14_Node_iteratorIS2_Lb0ELb0EEEbEOT_RKT0_>
    4c43:	48 8b 4d f8          	mov    -0x8(%rbp),%rcx
    4c47:	64 48 2b 0c 25 28 00 	sub    %fs:0x28,%rcx
    4c4e:	00 00 
    4c50:	74 05                	je     4c57 <_ZNSt10_HashtableIcSt4pairIKciESaIS2_ENSt8__detail10_Select1stESt8equal_toIcESt4hashIcENS4_18_Mod_range_hashingENS4_20_Default_ranged_hashENS4_20_Prime_rehash_policyENS4_17_Hashtable_traitsILb0ELb0ELb1EEEE9_M_insertIRKS2_NS4_10_AllocNodeISaINS4_10_Hash_nodeIS2_Lb0EEEEEEEES0_INS4_14_Node_iteratorIS2_Lb0ELb0EEEbEOT_RKT0_St17integral_constantIbLb1EE+0x6b>
    4c52:	e8 49 e6 ff ff       	call   32a0 <__stack_chk_fail@plt>
    4c57:	c9                   	leave
    4c58:	c3                   	ret
    4c59:	90                   	nop

0000000000004c5a <_ZNSt8__detail16_Hashtable_allocISaINS_10_Hash_nodeISt4pairIKciELb0EEEEE17_M_node_allocatorEv>:
    4c5a:	55                   	push   %rbp
    4c5b:	48 89 e5             	mov    %rsp,%rbp
    4c5e:	48 83 ec 10          	sub    $0x10,%rsp
    4c62:	48 89 7d f8          	mov    %rdi,-0x8(%rbp)
    4c66:	48 8b 45 f8          	mov    -0x8(%rbp),%rax
    4c6a:	48 89 c7             	mov    %rax,%rdi
    4c6d:	e8 de 01 00 00       	call   4e50 <_ZNSt8__detail21_Hashtable_ebo_helperILi0ESaINS_10_Hash_nodeISt4pairIKciELb0EEEELb1EE6_M_getEv>
    4c72:	c9                   	leave
    4c73:	c3                   	ret

0000000000004c74 <_ZNSt8__detail21_Hash_node_value_baseISt4pairIKciEE9_M_valptrEv>:
    4c74:	55                   	push   %rbp
    4c75:	48 89 e5             	mov    %rsp,%rbp
    4c78:	48 83 ec 10          	sub    $0x10,%rsp
    4c7c:	48 89 7d f8          	mov    %rdi,-0x8(%rbp)
    4c80:	48 8b 45 f8          	mov    -0x8(%rbp),%rax
    4c84:	48 89 c7             	mov    %rax,%rdi
    4c87:	e8 d2 01 00 00       	call   4e5e <_ZN9__gnu_cxx16__aligned_bufferISt4pairIKciEE6_M_ptrEv>
    4c8c:	c9                   	leave
    4c8d:	c3                   	ret

0000000000004c8e <_ZNSt8__detail16_Hashtable_allocISaINS_10_Hash_nodeISt4pairIKciELb0EEEEE22_M_deallocate_node_ptrEPS5_>:
    4c8e:	55                   	push   %rbp
    4c8f:	48 89 e5             	mov    %rsp,%rbp
    4c92:	48 83 ec 30          	sub    $0x30,%rsp
    4c96:	48 89 7d d8          	mov    %rdi,-0x28(%rbp)
    4c9a:	48 89 75 d0          	mov    %rsi,-0x30(%rbp)
    4c9e:	48 8b 45 d0          	mov    -0x30(%rbp),%rax
    4ca2:	48 89 c7             	mov    %rax,%rdi
    4ca5:	e8 ce 01 00 00       	call   4e78 <_ZNSt19__ptr_traits_ptr_toIPNSt8__detail10_Hash_nodeISt4pairIKciELb0EEES5_Lb0EE10pointer_toERS5_>
    4caa:	48 89 45 e0          	mov    %rax,-0x20(%rbp)
    4cae:	48 8b 45 d8          	mov    -0x28(%rbp),%rax
    4cb2:	48 89 c7             	mov    %rax,%rdi
    4cb5:	e8 a0 ff ff ff       	call   4c5a <_ZNSt8__detail16_Hashtable_allocISaINS_10_Hash_nodeISt4pairIKciELb0EEEEE17_M_node_allocatorEv>
    4cba:	48 89 45 e8          	mov    %rax,-0x18(%rbp)
    4cbe:	48 8b 45 e0          	mov    -0x20(%rbp),%rax
    4cc2:	48 89 45 f0          	mov    %rax,-0x10(%rbp)
    4cc6:	48 c7 45 f8 01 00 00 	movq   $0x1,-0x8(%rbp)
    4ccd:	00 
    4cce:	48 8b 55 f8          	mov    -0x8(%rbp),%rdx
    4cd2:	48 8b 4d f0          	mov    -0x10(%rbp),%rcx
    4cd6:	48 8b 45 e8          	mov    -0x18(%rbp),%rax
    4cda:	48 89 ce             	mov    %rcx,%rsi
    4cdd:	48 89 c7             	mov    %rax,%rdi
    4ce0:	e8 ad 05 00 00       	call   5292 <_ZNSt15__new_allocatorINSt8__detail10_Hash_nodeISt4pairIKciELb0EEEE10deallocateEPS5_m>
    4ce5:	90                   	nop
    4ce6:	90                   	nop
    4ce7:	c9                   	leave
    4ce8:	c3                   	ret

0000000000004ce9 <_ZNSt19__ptr_traits_ptr_toIPPNSt8__detail15_Hash_node_baseES2_Lb0EE10pointer_toERS2_>:
    4ce9:	55                   	push   %rbp
    4cea:	48 89 e5             	mov    %rsp,%rbp
    4ced:	48 83 ec 10          	sub    $0x10,%rsp
    4cf1:	48 89 7d f8          	mov    %rdi,-0x8(%rbp)
    4cf5:	48 8b 45 f8          	mov    -0x8(%rbp),%rax
    4cf9:	48 89 c7             	mov    %rax,%rdi
    4cfc:	e8 91 01 00 00       	call   4e92 <_ZSt9addressofIPNSt8__detail15_Hash_node_baseEEPT_RS3_>
    4d01:	c9                   	leave
    4d02:	c3                   	ret
    4d03:	90                   	nop

0000000000004d04 <_ZNSt8__detail15_Hash_code_baseIcSt4pairIKciENS_10_Select1stESt4hashIcENS_18_Mod_range_hashingENS_20_Default_ranged_hashELb0EEC1ERKS6_>:
    4d04:	55                   	push   %rbp
    4d05:	48 89 e5             	mov    %rsp,%rbp
    4d08:	48 83 ec 10          	sub    $0x10,%rsp
    4d0c:	48 89 7d f8          	mov    %rdi,-0x8(%rbp)
    4d10:	48 89 75 f0          	mov    %rsi,-0x10(%rbp)
    4d14:	48 8b 55 f0          	mov    -0x10(%rbp),%rdx
    4d18:	48 8b 45 f8          	mov    -0x8(%rbp),%rax
    4d1c:	48 89 d6             	mov    %rdx,%rsi
    4d1f:	48 89 c7             	mov    %rax,%rdi
    4d22:	e8 c3 01 00 00       	call   4eea <_ZNSt8__detail21_Hashtable_ebo_helperILi1ESt4hashIcELb1EEC1IRKS2_EEOT_>
    4d27:	90                   	nop
    4d28:	c9                   	leave
    4d29:	c3                   	ret

0000000000004d2a <_ZNSt8__detail21_Hashtable_ebo_helperILi0ESt8equal_toIcELb1EEC1IRKS2_EEOT_>:
    4d2a:	55                   	push   %rbp
    4d2b:	48 89 e5             	mov    %rsp,%rbp
    4d2e:	48 83 ec 10          	sub    $0x10,%rsp
    4d32:	48 89 7d f8          	mov    %rdi,-0x8(%rbp)
    4d36:	48 89 75 f0          	mov    %rsi,-0x10(%rbp)
    4d3a:	48 8b 45 f0          	mov    -0x10(%rbp),%rax
    4d3e:	48 89 c7             	mov    %rax,%rdi
    4d41:	e8 c3 01 00 00       	call   4f09 <_ZSt7forwardIRKSt8equal_toIcEEOT_RNSt16remove_referenceIS4_E4typeE>
    4d46:	90                   	nop
    4d47:	c9                   	leave
    4d48:	c3                   	ret

0000000000004d49 <_ZSt7forwardISaINSt8__detail10_Hash_nodeISt4pairIKciELb0EEEEEOT_RNSt16remove_referenceIS7_E4typeE>:
    4d49:	55                   	push   %rbp
    4d4a:	48 89 e5             	mov    %rsp,%rbp
    4d4d:	48 89 7d f8          	mov    %rdi,-0x8(%rbp)
    4d51:	48 8b 45 f8          	mov    -0x8(%rbp),%rax
    4d55:	5d                   	pop    %rbp
    4d56:	c3                   	ret
    4d57:	90                   	nop

0000000000004d58 <_ZNSt8__detail21_Hashtable_ebo_helperILi0ESaINS_10_Hash_nodeISt4pairIKciELb0EEEELb1EEC1IS6_EEOT_>:
    4d58:	55                   	push   %rbp
    4d59:	48 89 e5             	mov    %rsp,%rbp
    4d5c:	48 83 ec 30          	sub    $0x30,%rsp
    4d60:	48 89 7d d8          	mov    %rdi,-0x28(%rbp)
    4d64:	48 89 75 d0          	mov    %rsi,-0x30(%rbp)
    4d68:	48 8b 45 d0          	mov    -0x30(%rbp),%rax
    4d6c:	48 89 c7             	mov    %rax,%rdi
    4d6f:	e8 d5 ff ff ff       	call   4d49 <_ZSt7forwardISaINSt8__detail10_Hash_nodeISt4pairIKciELb0EEEEEOT_RNSt16remove_referenceIS7_E4typeE>
    4d74:	48 8b 55 d8          	mov    -0x28(%rbp),%rdx
    4d78:	48 89 55 e0          	mov    %rdx,-0x20(%rbp)
    4d7c:	48 89 45 e8          	mov    %rax,-0x18(%rbp)
    4d80:	48 8b 45 e0          	mov    -0x20(%rbp),%rax
    4d84:	48 89 45 f0          	mov    %rax,-0x10(%rbp)
    4d88:	48 8b 45 e8          	mov    -0x18(%rbp),%rax
    4d8c:	48 89 45 f8          	mov    %rax,-0x8(%rbp)
    4d90:	90                   	nop
    4d91:	90                   	nop
    4d92:	90                   	nop
    4d93:	c9                   	leave
    4d94:	c3                   	ret

0000000000004d95 <_ZSt12__to_addressIPNSt8__detail15_Hash_node_baseEEPT_S4_>:
    4d95:	55                   	push   %rbp
    4d96:	48 89 e5             	mov    %rsp,%rbp
    4d99:	48 89 7d f8          	mov    %rdi,-0x8(%rbp)
    4d9d:	48 8b 45 f8          	mov    -0x8(%rbp),%rax
    4da1:	5d                   	pop    %rbp
    4da2:	c3                   	ret

0000000000004da3 <_ZSt7forwardIRKSt4pairIKciEEOT_RNSt16remove_referenceIS5_E4typeE>:
    4da3:	55                   	push   %rbp
    4da4:	48 89 e5             	mov    %rsp,%rbp
    4da7:	48 89 7d f8          	mov    %rdi,-0x8(%rbp)
    4dab:	48 8b 45 f8          	mov    -0x8(%rbp),%rax
    4daf:	5d                   	pop    %rbp
    4db0:	c3                   	ret
    4db1:	90                   	nop

0000000000004db2 <_ZNKSt8__detail19_ConvertToValueTypeINS_10_Select1stESt4pairIKciEEclERKS4_>:
    4db2:	55                   	push   %rbp
    4db3:	48 89 e5             	mov    %rsp,%rbp
    4db6:	48 89 7d f8          	mov    %rdi,-0x8(%rbp)
    4dba:	48 89 75 f0          	mov    %rsi,-0x10(%rbp)
    4dbe:	48 8b 45 f0          	mov    -0x10(%rbp),%rax
    4dc2:	5d                   	pop    %rbp
    4dc3:	c3                   	ret

0000000000004dc4 <_ZNSt10_HashtableIcSt4pairIKciESaIS2_ENSt8__detail10_Select1stESt8equal_toIcESt4hashIcENS4_18_Mod_range_hashingENS4_20_Default_ranged_hashENS4_20_Prime_rehash_policyENS4_17_Hashtable_traitsILb0ELb0ELb1EEEE20_M_insert_unique_auxIRKS2_NS4_10_AllocNodeISaINS4_10_Hash_nodeIS2_Lb0EEEEEEEES0_INS4_14_Node_iteratorIS2_Lb0ELb0EEEbEOT_RKT0_>:
    4dc4:	55                   	push   %rbp
    4dc5:	48 89 e5             	mov    %rsp,%rbp
    4dc8:	53                   	push   %rbx
    4dc9:	48 83 ec 38          	sub    $0x38,%rsp
    4dcd:	48 89 7d d8          	mov    %rdi,-0x28(%rbp)
    4dd1:	48 89 75 d0          	mov    %rsi,-0x30(%rbp)
    4dd5:	48 89 55 c8          	mov    %rdx,-0x38(%rbp)
    4dd9:	64 48 8b 04 25 28 00 	mov    %fs:0x28,%rax
    4de0:	00 00 
    4de2:	48 89 45 e8          	mov    %rax,-0x18(%rbp)
    4de6:	31 c0                	xor    %eax,%eax
    4de8:	48 8b 45 d0          	mov    -0x30(%rbp),%rax
    4dec:	48 89 c7             	mov    %rax,%rdi
    4def:	e8 af ff ff ff       	call   4da3 <_ZSt7forwardIRKSt4pairIKciEEOT_RNSt16remove_referenceIS5_E4typeE>
    4df4:	48 89 c3             	mov    %rax,%rbx
    4df7:	48 8b 45 d0          	mov    -0x30(%rbp),%rax
    4dfb:	48 89 c7             	mov    %rax,%rdi
    4dfe:	e8 a0 ff ff ff       	call   4da3 <_ZSt7forwardIRKSt4pairIKciEEOT_RNSt16remove_referenceIS5_E4typeE>
    4e03:	48 89 c2             	mov    %rax,%rdx
    4e06:	48 8d 45 e7          	lea    -0x19(%rbp),%rax
    4e0a:	48 89 d6             	mov    %rdx,%rsi
    4e0d:	48 89 c7             	mov    %rax,%rdi
    4e10:	e8 6b 01 00 00       	call   4f80 <_ZNKSt8__detail10_Select1stclIRKSt4pairIKciEEEONS0_10__1st_typeIT_E4typeEOS8_>
    4e15:	48 89 c7             	mov    %rax,%rdi
    4e18:	e8 81 01 00 00       	call   4f9e <_ZNSt10_HashtableIcSt4pairIKciESaIS2_ENSt8__detail10_Select1stESt8equal_toIcESt4hashIcENS4_18_Mod_range_hashingENS4_20_Default_ranged_hashENS4_20_Prime_rehash_policyENS4_17_Hashtable_traitsILb0ELb0ELb1EEEE14_S_forward_keyERS1_>
    4e1d:	48 89 c6             	mov    %rax,%rsi
    4e20:	48 8b 55 c8          	mov    -0x38(%rbp),%rdx
    4e24:	48 8b 45 d8          	mov    -0x28(%rbp),%rax
    4e28:	48 89 d1             	mov    %rdx,%rcx
    4e2b:	48 89 da             	mov    %rbx,%rdx
    4e2e:	48 89 c7             	mov    %rax,%rdi
    4e31:	e8 76 01 00 00       	call   4fac <_ZNSt10_HashtableIcSt4pairIKciESaIS2_ENSt8__detail10_Select1stESt8equal_toIcESt4hashIcENS4_18_Mod_range_hashingENS4_20_Default_ranged_hashENS4_20_Prime_rehash_policyENS4_17_Hashtable_traitsILb0ELb0ELb1EEEE16_M_insert_uniqueIRS1_RKS2_NS4_10_AllocNodeISaINS4_10_Hash_nodeIS2_Lb0EEEEEEEES0_INS4_14_Node_iteratorIS2_Lb0ELb0EEEbEOT_OT0_RKT1_>
    4e36:	48 8b 4d e8          	mov    -0x18(%rbp),%rcx
    4e3a:	64 48 2b 0c 25 28 00 	sub    %fs:0x28,%rcx
    4e41:	00 00 
    4e43:	74 05                	je     4e4a <_ZNSt10_HashtableIcSt4pairIKciESaIS2_ENSt8__detail10_Select1stESt8equal_toIcESt4hashIcENS4_18_Mod_range_hashingENS4_20_Default_ranged_hashENS4_20_Prime_rehash_policyENS4_17_Hashtable_traitsILb0ELb0ELb1EEEE20_M_insert_unique_auxIRKS2_NS4_10_AllocNodeISaINS4_10_Hash_nodeIS2_Lb0EEEEEEEES0_INS4_14_Node_iteratorIS2_Lb0ELb0EEEbEOT_RKT0_+0x86>
    4e45:	e8 56 e4 ff ff       	call   32a0 <__stack_chk_fail@plt>
    4e4a:	48 8b 5d f8          	mov    -0x8(%rbp),%rbx
    4e4e:	c9                   	leave
    4e4f:	c3                   	ret

0000000000004e50 <_ZNSt8__detail21_Hashtable_ebo_helperILi0ESaINS_10_Hash_nodeISt4pairIKciELb0EEEELb1EE6_M_getEv>:
    4e50:	55                   	push   %rbp
    4e51:	48 89 e5             	mov    %rsp,%rbp
    4e54:	48 89 7d f8          	mov    %rdi,-0x8(%rbp)
    4e58:	48 8b 45 f8          	mov    -0x8(%rbp),%rax
    4e5c:	5d                   	pop    %rbp
    4e5d:	c3                   	ret

0000000000004e5e <_ZN9__gnu_cxx16__aligned_bufferISt4pairIKciEE6_M_ptrEv>:
    4e5e:	55                   	push   %rbp
    4e5f:	48 89 e5             	mov    %rsp,%rbp
    4e62:	48 83 ec 10          	sub    $0x10,%rsp
    4e66:	48 89 7d f8          	mov    %rdi,-0x8(%rbp)
    4e6a:	48 8b 45 f8          	mov    -0x8(%rbp),%rax
    4e6e:	48 89 c7             	mov    %rax,%rdi
    4e71:	e8 f4 03 00 00       	call   526a <_ZN9__gnu_cxx16__aligned_bufferISt4pairIKciEE7_M_addrEv>
    4e76:	c9                   	leave
    4e77:	c3                   	ret

0000000000004e78 <_ZNSt19__ptr_traits_ptr_toIPNSt8__detail10_Hash_nodeISt4pairIKciELb0EEES5_Lb0EE10pointer_toERS5_>:
    4e78:	55                   	push   %rbp
    4e79:	48 89 e5             	mov    %rsp,%rbp
    4e7c:	48 83 ec 10          	sub    $0x10,%rsp
    4e80:	48 89 7d f8          	mov    %rdi,-0x8(%rbp)
    4e84:	48 8b 45 f8          	mov    -0x8(%rbp),%rax
    4e88:	48 89 c7             	mov    %rax,%rdi
    4e8b:	e8 e8 03 00 00       	call   5278 <_ZSt9addressofINSt8__detail10_Hash_nodeISt4pairIKciELb0EEEEPT_RS6_>
    4e90:	c9                   	leave
    4e91:	c3                   	ret

0000000000004e92 <_ZSt9addressofIPNSt8__detail15_Hash_node_baseEEPT_RS3_>:
    4e92:	55                   	push   %rbp
    4e93:	48 89 e5             	mov    %rsp,%rbp
    4e96:	48 83 ec 10          	sub    $0x10,%rsp
    4e9a:	48 89 7d f8          	mov    %rdi,-0x8(%rbp)
    4e9e:	48 8b 45 f8          	mov    -0x8(%rbp),%rax
    4ea2:	48 89 c7             	mov    %rax,%rdi
    4ea5:	e8 18 04 00 00       	call   52c2 <_ZSt11__addressofIPNSt8__detail15_Hash_node_baseEEPT_RS3_>
    4eaa:	c9                   	leave
    4eab:	c3                   	ret

0000000000004eac <_ZNSt15__new_allocatorIPNSt8__detail15_Hash_node_baseEED1Ev>:
    4eac:	55                   	push   %rbp
    4ead:	48 89 e5             	mov    %rsp,%rbp
    4eb0:	48 89 7d f8          	mov    %rdi,-0x8(%rbp)
    4eb4:	90                   	nop
    4eb5:	5d                   	pop    %rbp
    4eb6:	c3                   	ret
    4eb7:	90                   	nop

0000000000004eb8 <_ZNSt15__new_allocatorIPNSt8__detail15_Hash_node_baseEE10deallocateEPS2_m>:
    4eb8:	55                   	push   %rbp
    4eb9:	48 89 e5             	mov    %rsp,%rbp
    4ebc:	48 83 ec 20          	sub    $0x20,%rsp
    4ec0:	48 89 7d f8          	mov    %rdi,-0x8(%rbp)
    4ec4:	48 89 75 f0          	mov    %rsi,-0x10(%rbp)
    4ec8:	48 89 55 e8          	mov    %rdx,-0x18(%rbp)
    4ecc:	48 8b 45 e8          	mov    -0x18(%rbp),%rax
    4ed0:	48 8d 14 c5 00 00 00 	lea    0x0(,%rax,8),%rdx
    4ed7:	00 
    4ed8:	48 8b 45 f0          	mov    -0x10(%rbp),%rax
    4edc:	48 89 d6             	mov    %rdx,%rsi
    4edf:	48 89 c7             	mov    %rax,%rdi
    4ee2:	e8 59 e3 ff ff       	call   3240 <_ZdlPvm@plt>
    4ee7:	c9                   	leave
    4ee8:	c3                   	ret
    4ee9:	90                   	nop

0000000000004eea <_ZNSt8__detail21_Hashtable_ebo_helperILi1ESt4hashIcELb1EEC1IRKS2_EEOT_>:
    4eea:	55                   	push   %rbp
    4eeb:	48 89 e5             	mov    %rsp,%rbp
    4eee:	48 83 ec 10          	sub    $0x10,%rsp
    4ef2:	48 89 7d f8          	mov    %rdi,-0x8(%rbp)
    4ef6:	48 89 75 f0          	mov    %rsi,-0x10(%rbp)
    4efa:	48 8b 45 f0          	mov    -0x10(%rbp),%rax
    4efe:	48 89 c7             	mov    %rax,%rdi
    4f01:	e8 ca 03 00 00       	call   52d0 <_ZSt7forwardIRKSt4hashIcEEOT_RNSt16remove_referenceIS4_E4typeE>
    4f06:	90                   	nop
    4f07:	c9                   	leave
    4f08:	c3                   	ret

0000000000004f09 <_ZSt7forwardIRKSt8equal_toIcEEOT_RNSt16remove_referenceIS4_E4typeE>:
    4f09:	55                   	push   %rbp
    4f0a:	48 89 e5             	mov    %rsp,%rbp
    4f0d:	48 89 7d f8          	mov    %rdi,-0x8(%rbp)
    4f11:	48 8b 45 f8          	mov    -0x8(%rbp),%rax
    4f15:	5d                   	pop    %rbp
    4f16:	c3                   	ret
    4f17:	90                   	nop

0000000000004f18 <_ZNSt15__new_allocatorIPNSt8__detail15_Hash_node_baseEE8allocateEmPKv>:
    4f18:	55                   	push   %rbp
    4f19:	48 89 e5             	mov    %rsp,%rbp
    4f1c:	48 83 ec 30          	sub    $0x30,%rsp
    4f20:	48 89 7d e8          	mov    %rdi,-0x18(%rbp)
    4f24:	48 89 75 e0          	mov    %rsi,-0x20(%rbp)
    4f28:	48 89 55 d8          	mov    %rdx,-0x28(%rbp)
    4f2c:	48 8b 45 e8          	mov    -0x18(%rbp),%rax
    4f30:	48 89 45 f8          	mov    %rax,-0x8(%rbp)
    4f34:	48 b8 ff ff ff ff ff 	movabs $0xfffffffffffffff,%rax
    4f3b:	ff ff 0f 
    4f3e:	48 3b 45 e0          	cmp    -0x20(%rbp),%rax
    4f42:	0f 92 c0             	setb   %al
    4f45:	0f b6 c0             	movzbl %al,%eax
    4f48:	48 85 c0             	test   %rax,%rax
    4f4b:	0f 95 c0             	setne  %al
    4f4e:	84 c0                	test   %al,%al
    4f50:	74 1a                	je     4f6c <_ZNSt15__new_allocatorIPNSt8__detail15_Hash_node_baseEE8allocateEmPKv+0x54>
    4f52:	48 b8 ff ff ff ff ff 	movabs $0x1fffffffffffffff,%rax
    4f59:	ff ff 1f 
    4f5c:	48 3b 45 e0          	cmp    -0x20(%rbp),%rax
    4f60:	73 05                	jae    4f67 <_ZNSt15__new_allocatorIPNSt8__detail15_Hash_node_baseEE8allocateEmPKv+0x4f>
    4f62:	e8 49 e2 ff ff       	call   31b0 <_ZSt28__throw_bad_array_new_lengthv@plt>
    4f67:	e8 24 e1 ff ff       	call   3090 <_ZSt17__throw_bad_allocv@plt>
    4f6c:	48 8b 45 e0          	mov    -0x20(%rbp),%rax
    4f70:	48 c1 e0 03          	shl    $0x3,%rax
    4f74:	48 89 c7             	mov    %rax,%rdi
    4f77:	e8 b4 e2 ff ff       	call   3230 <_Znwm@plt>
    4f7c:	90                   	nop
    4f7d:	c9                   	leave
    4f7e:	c3                   	ret
    4f7f:	90                   	nop

0000000000004f80 <_ZNKSt8__detail10_Select1stclIRKSt4pairIKciEEEONS0_10__1st_typeIT_E4typeEOS8_>:
    4f80:	55                   	push   %rbp
    4f81:	48 89 e5             	mov    %rsp,%rbp
    4f84:	48 83 ec 10          	sub    $0x10,%rsp
    4f88:	48 89 7d f8          	mov    %rdi,-0x8(%rbp)
    4f8c:	48 89 75 f0          	mov    %rsi,-0x10(%rbp)
    4f90:	48 8b 45 f0          	mov    -0x10(%rbp),%rax
    4f94:	48 89 c7             	mov    %rax,%rdi
    4f97:	e8 07 fe ff ff       	call   4da3 <_ZSt7forwardIRKSt4pairIKciEEOT_RNSt16remove_referenceIS5_E4typeE>
    4f9c:	c9                   	leave
    4f9d:	c3                   	ret

0000000000004f9e <_ZNSt10_HashtableIcSt4pairIKciESaIS2_ENSt8__detail10_Select1stESt8equal_toIcESt4hashIcENS4_18_Mod_range_hashingENS4_20_Default_ranged_hashENS4_20_Prime_rehash_policyENS4_17_Hashtable_traitsILb0ELb0ELb1EEEE14_S_forward_keyERS1_>:
    4f9e:	55                   	push   %rbp
    4f9f:	48 89 e5             	mov    %rsp,%rbp
    4fa2:	48 89 7d f8          	mov    %rdi,-0x8(%rbp)
    4fa6:	48 8b 45 f8          	mov    -0x8(%rbp),%rax
    4faa:	5d                   	pop    %rbp
    4fab:	c3                   	ret

0000000000004fac <_ZNSt10_HashtableIcSt4pairIKciESaIS2_ENSt8__detail10_Select1stESt8equal_toIcESt4hashIcENS4_18_Mod_range_hashingENS4_20_Default_ranged_hashENS4_20_Prime_rehash_policyENS4_17_Hashtable_traitsILb0ELb0ELb1EEEE16_M_insert_uniqueIRS1_RKS2_NS4_10_AllocNodeISaINS4_10_Hash_nodeIS2_Lb0EEEEEEEES0_INS4_14_Node_iteratorIS2_Lb0ELb0EEEbEOT_OT0_RKT1_>:
    4fac:	55                   	push   %rbp
    4fad:	48 89 e5             	mov    %rsp,%rbp
    4fb0:	41 55                	push   %r13
    4fb2:	41 54                	push   %r12
    4fb4:	53                   	push   %rbx
    4fb5:	48 81 ec 88 00 00 00 	sub    $0x88,%rsp
    4fbc:	48 89 bd 78 ff ff ff 	mov    %rdi,-0x88(%rbp)
    4fc3:	48 89 b5 70 ff ff ff 	mov    %rsi,-0x90(%rbp)
    4fca:	48 89 95 68 ff ff ff 	mov    %rdx,-0x98(%rbp)
    4fd1:	48 89 8d 60 ff ff ff 	mov    %rcx,-0xa0(%rbp)
    4fd8:	64 48 8b 04 25 28 00 	mov    %fs:0x28,%rax
    4fdf:	00 00 
    4fe1:	48 89 45 d8          	mov    %rax,-0x28(%rbp)
    4fe5:	31 c0                	xor    %eax,%eax
    4fe7:	48 8b 85 78 ff ff ff 	mov    -0x88(%rbp),%rax
    4fee:	48 89 c7             	mov    %rax,%rdi
    4ff1:	e8 e8 02 00 00       	call   52de <_ZNKSt10_HashtableIcSt4pairIKciESaIS2_ENSt8__detail10_Select1stESt8equal_toIcESt4hashIcENS4_18_Mod_range_hashingENS4_20_Default_ranged_hashENS4_20_Prime_rehash_policyENS4_17_Hashtable_traitsILb0ELb0ELb1EEEE4sizeEv>
    4ff6:	48 89 c3             	mov    %rax,%rbx
    4ff9:	e8 f2 02 00 00       	call   52f0 <_ZNSt10_HashtableIcSt4pairIKciESaIS2_ENSt8__detail10_Select1stESt8equal_toIcESt4hashIcENS4_18_Mod_range_hashingENS4_20_Default_ranged_hashENS4_20_Prime_rehash_policyENS4_17_Hashtable_traitsILb0ELb0ELb1EEEE22__small_size_thresholdEv>
    4ffe:	48 39 d8             	cmp    %rbx,%rax
    5001:	0f 93 c0             	setae  %al
    5004:	84 c0                	test   %al,%al
    5006:	0f 84 9c 00 00 00    	je     50a8 <_ZNSt10_HashtableIcSt4pairIKciESaIS2_ENSt8__detail10_Select1stESt8equal_toIcESt4hashIcENS4_18_Mod_range_hashingENS4_20_Default_ranged_hashENS4_20_Prime_rehash_policyENS4_17_Hashtable_traitsILb0ELb0ELb1EEEE16_M_insert_uniqueIRS1_RKS2_NS4_10_AllocNodeISaINS4_10_Hash_nodeIS2_Lb0EEEEEEEES0_INS4_14_Node_iteratorIS2_Lb0ELb0EEEbEOT_OT0_RKT1_+0xfc>
    500c:	48 8b 85 78 ff ff ff 	mov    -0x88(%rbp),%rax
    5013:	48 89 c7             	mov    %rax,%rdi
    5016:	e8 e1 02 00 00       	call   52fc <_ZNSt10_HashtableIcSt4pairIKciESaIS2_ENSt8__detail10_Select1stESt8equal_toIcESt4hashIcENS4_18_Mod_range_hashingENS4_20_Default_ranged_hashENS4_20_Prime_rehash_policyENS4_17_Hashtable_traitsILb0ELb0ELb1EEEE5beginEv>
    501b:	48 89 45 b0          	mov    %rax,-0x50(%rbp)
    501f:	eb 59                	jmp    507a <_ZNSt10_HashtableIcSt4pairIKciESaIS2_ENSt8__detail10_Select1stESt8equal_toIcESt4hashIcENS4_18_Mod_range_hashingENS4_20_Default_ranged_hashENS4_20_Prime_rehash_policyENS4_17_Hashtable_traitsILb0ELb0ELb1EEEE16_M_insert_uniqueIRS1_RKS2_NS4_10_AllocNodeISaINS4_10_Hash_nodeIS2_Lb0EEEEEEEES0_INS4_14_Node_iteratorIS2_Lb0ELb0EEEbEOT_OT0_RKT1_+0xce>
    5021:	48 8b 45 b0          	mov    -0x50(%rbp),%rax
    5025:	48 8d 50 08          	lea    0x8(%rax),%rdx
    5029:	48 8b 8d 70 ff ff ff 	mov    -0x90(%rbp),%rcx
    5030:	48 8b 85 78 ff ff ff 	mov    -0x88(%rbp),%rax
    5037:	48 89 ce             	mov    %rcx,%rsi
    503a:	48 89 c7             	mov    %rax,%rdi
    503d:	e8 94 03 00 00       	call   53d6 <_ZNKSt8__detail15_Hashtable_baseIcSt4pairIKciENS_10_Select1stESt8equal_toIcESt4hashIcENS_18_Mod_range_hashingENS_20_Default_ranged_hashENS_17_Hashtable_traitsILb0ELb0ELb1EEEE16_M_key_equals_trIcEEbRKT_RKNS_16_Hash_node_valueIS3_Lb0EEE>
    5042:	84 c0                	test   %al,%al
    5044:	74 28                	je     506e <_ZNSt10_HashtableIcSt4pairIKciESaIS2_ENSt8__detail10_Select1stESt8equal_toIcESt4hashIcENS4_18_Mod_range_hashingENS4_20_Default_ranged_hashENS4_20_Prime_rehash_policyENS4_17_Hashtable_traitsILb0ELb0ELb1EEEE16_M_insert_uniqueIRS1_RKS2_NS4_10_AllocNodeISaINS4_10_Hash_nodeIS2_Lb0EEEEEEEES0_INS4_14_Node_iteratorIS2_Lb0ELb0EEEbEOT_OT0_RKT1_+0xc2>
    5046:	c6 45 90 00          	movb   $0x0,-0x70(%rbp)
    504a:	48 8d 55 90          	lea    -0x70(%rbp),%rdx
    504e:	48 8d 4d b0          	lea    -0x50(%rbp),%rcx
    5052:	48 8d 45 c0          	lea    -0x40(%rbp),%rax
    5056:	48 89 ce             	mov    %rcx,%rsi
    5059:	48 89 c7             	mov    %rax,%rdi
    505c:	e8 f3 03 00 00       	call   5454 <_ZNSt4pairINSt8__detail14_Node_iteratorIS_IKciELb0ELb0EEEbEC1IRS4_bLb1EEEOT_OT0_>
    5061:	4c 8b 65 c0          	mov    -0x40(%rbp),%r12
    5065:	4c 8b 6d c8          	mov    -0x38(%rbp),%r13
    5069:	e9 a4 01 00 00       	jmp    5212 <_ZNSt10_HashtableIcSt4pairIKciESaIS2_ENSt8__detail10_Select1stESt8equal_toIcESt4hashIcENS4_18_Mod_range_hashingENS4_20_Default_ranged_hashENS4_20_Prime_rehash_policyENS4_17_Hashtable_traitsILb0ELb0ELb1EEEE16_M_insert_uniqueIRS1_RKS2_NS4_10_AllocNodeISaINS4_10_Hash_nodeIS2_Lb0EEEEEEEES0_INS4_14_Node_iteratorIS2_Lb0ELb0EEEbEOT_OT0_RKT1_+0x266>
    506e:	48 8d 45 b0          	lea    -0x50(%rbp),%rax
    5072:	48 89 c7             	mov    %rax,%rdi
    5075:	e8 3e 03 00 00       	call   53b8 <_ZNSt8__detail14_Node_iteratorISt4pairIKciELb0ELb0EEppEv>
    507a:	48 8b 85 78 ff ff ff 	mov    -0x88(%rbp),%rax
    5081:	48 89 c7             	mov    %rax,%rdi
    5084:	e8 c7 02 00 00       	call   5350 <_ZNSt10_HashtableIcSt4pairIKciESaIS2_ENSt8__detail10_Select1stESt8equal_toIcESt4hashIcENS4_18_Mod_range_hashingENS4_20_Default_ranged_hashENS4_20_Prime_rehash_policyENS4_17_Hashtable_traitsILb0ELb0ELb1EEEE3endEv>
    5089:	48 89 45 c0          	mov    %rax,-0x40(%rbp)
    508d:	48 8d 55 c0          	lea    -0x40(%rbp),%rdx
    5091:	48 8d 45 b0          	lea    -0x50(%rbp),%rax
    5095:	48 89 d6             	mov    %rdx,%rsi
    5098:	48 89 c7             	mov    %rax,%rdi
    509b:	e8 f6 02 00 00       	call   5396 <_ZNSt8__detailneERKNS_19_Node_iterator_baseISt4pairIKciELb0EEES6_>
    50a0:	84 c0                	test   %al,%al
    50a2:	0f 85 79 ff ff ff    	jne    5021 <_ZNSt10_HashtableIcSt4pairIKciESaIS2_ENSt8__detail10_Select1stESt8equal_toIcESt4hashIcENS4_18_Mod_range_hashingENS4_20_Default_ranged_hashENS4_20_Prime_rehash_policyENS4_17_Hashtable_traitsILb0ELb0ELb1EEEE16_M_insert_uniqueIRS1_RKS2_NS4_10_AllocNodeISaINS4_10_Hash_nodeIS2_Lb0EEEEEEEES0_INS4_14_Node_iteratorIS2_Lb0ELb0EEEbEOT_OT0_RKT1_+0x75>
    50a8:	48 8b 95 70 ff ff ff 	mov    -0x90(%rbp),%rdx
    50af:	48 8b 85 78 ff ff ff 	mov    -0x88(%rbp),%rax
    50b6:	48 89 d6             	mov    %rdx,%rsi
    50b9:	48 89 c7             	mov    %rax,%rdi
    50bc:	e8 d7 03 00 00       	call   5498 <_ZNKSt8__detail15_Hash_code_baseIcSt4pairIKciENS_10_Select1stESt4hashIcENS_18_Mod_range_hashingENS_20_Default_ranged_hashELb0EE15_M_hash_code_trIcEEmRKT_>
    50c1:	48 89 45 98          	mov    %rax,-0x68(%rbp)
    50c5:	48 8b 55 98          	mov    -0x68(%rbp),%rdx
    50c9:	48 8b 85 78 ff ff ff 	mov    -0x88(%rbp),%rax
    50d0:	48 89 d6             	mov    %rdx,%rsi
    50d3:	48 89 c7             	mov    %rax,%rdi
    50d6:	e8 f3 03 00 00       	call   54ce <_ZNKSt10_HashtableIcSt4pairIKciESaIS2_ENSt8__detail10_Select1stESt8equal_toIcESt4hashIcENS4_18_Mod_range_hashingENS4_20_Default_ranged_hashENS4_20_Prime_rehash_policyENS4_17_Hashtable_traitsILb0ELb0ELb1EEEE15_M_bucket_indexEm>
    50db:	48 89 45 a0          	mov    %rax,-0x60(%rbp)
    50df:	48 8b 85 78 ff ff ff 	mov    -0x88(%rbp),%rax
    50e6:	48 89 c7             	mov    %rax,%rdi
    50e9:	e8 f0 01 00 00       	call   52de <_ZNKSt10_HashtableIcSt4pairIKciESaIS2_ENSt8__detail10_Select1stESt8equal_toIcESt4hashIcENS4_18_Mod_range_hashingENS4_20_Default_ranged_hashENS4_20_Prime_rehash_policyENS4_17_Hashtable_traitsILb0ELb0ELb1EEEE4sizeEv>
    50ee:	48 89 c3             	mov    %rax,%rbx
    50f1:	e8 fa 01 00 00       	call   52f0 <_ZNSt10_HashtableIcSt4pairIKciESaIS2_ENSt8__detail10_Select1stESt8equal_toIcESt4hashIcENS4_18_Mod_range_hashingENS4_20_Default_ranged_hashENS4_20_Prime_rehash_policyENS4_17_Hashtable_traitsILb0ELb0ELb1EEEE22__small_size_thresholdEv>
    50f6:	48 39 d8             	cmp    %rbx,%rax
    50f9:	0f 92 c0             	setb   %al
    50fc:	84 c0                	test   %al,%al
    50fe:	74 64                	je     5164 <_ZNSt10_HashtableIcSt4pairIKciESaIS2_ENSt8__detail10_Select1stESt8equal_toIcESt4hashIcENS4_18_Mod_range_hashingENS4_20_Default_ranged_hashENS4_20_Prime_rehash_policyENS4_17_Hashtable_traitsILb0ELb0ELb1EEEE16_M_insert_uniqueIRS1_RKS2_NS4_10_AllocNodeISaINS4_10_Hash_nodeIS2_Lb0EEEEEEEES0_INS4_14_Node_iteratorIS2_Lb0ELb0EEEbEOT_OT0_RKT1_+0x1b8>
    5100:	48 8b 4d 98          	mov    -0x68(%rbp),%rcx
    5104:	48 8b 95 70 ff ff ff 	mov    -0x90(%rbp),%rdx
    510b:	48 8b 75 a0          	mov    -0x60(%rbp),%rsi
    510f:	48 8b 85 78 ff ff ff 	mov    -0x88(%rbp),%rax
    5116:	48 89 c7             	mov    %rax,%rdi
    5119:	e8 de 03 00 00       	call   54fc <_ZNKSt10_HashtableIcSt4pairIKciESaIS2_ENSt8__detail10_Select1stESt8equal_toIcESt4hashIcENS4_18_Mod_range_hashingENS4_20_Default_ranged_hashENS4_20_Prime_rehash_policyENS4_17_Hashtable_traitsILb0ELb0ELb1EEEE15_M_find_node_trIcEEPNS4_10_Hash_nodeIS2_Lb0EEEmRKT_m>
    511e:	48 89 45 a8          	mov    %rax,-0x58(%rbp)
    5122:	48 83 7d a8 00       	cmpq   $0x0,-0x58(%rbp)
    5127:	74 3b                	je     5164 <_ZNSt10_HashtableIcSt4pairIKciESaIS2_ENSt8__detail10_Select1stESt8equal_toIcESt4hashIcENS4_18_Mod_range_hashingENS4_20_Default_ranged_hashENS4_20_Prime_rehash_policyENS4_17_Hashtable_traitsILb0ELb0ELb1EEEE16_M_insert_uniqueIRS1_RKS2_NS4_10_AllocNodeISaINS4_10_Hash_nodeIS2_Lb0EEEEEEEES0_INS4_14_Node_iteratorIS2_Lb0ELb0EEEbEOT_OT0_RKT1_+0x1b8>
    5129:	48 8b 55 a8          	mov    -0x58(%rbp),%rdx
    512d:	48 8d 45 b0          	lea    -0x50(%rbp),%rax
    5131:	48 89 d6             	mov    %rdx,%rsi
    5134:	48 89 c7             	mov    %rax,%rdi
    5137:	e8 0c 04 00 00       	call   5548 <_ZNSt8__detail14_Node_iteratorISt4pairIKciELb0ELb0EEC1EPNS_10_Hash_nodeIS3_Lb0EEE>
    513c:	c6 45 90 00          	movb   $0x0,-0x70(%rbp)
    5140:	48 8d 55 90          	lea    -0x70(%rbp),%rdx
    5144:	48 8d 4d b0          	lea    -0x50(%rbp),%rcx
    5148:	48 8d 45 c0          	lea    -0x40(%rbp),%rax
    514c:	48 89 ce             	mov    %rcx,%rsi
    514f:	48 89 c7             	mov    %rax,%rdi
    5152:	e8 17 04 00 00       	call   556e <_ZNSt4pairINSt8__detail14_Node_iteratorIS_IKciELb0ELb0EEEbEC1IS4_bLb1EEEOT_OT0_>
    5157:	4c 8b 65 c0          	mov    -0x40(%rbp),%r12
    515b:	4c 8b 6d c8          	mov    -0x38(%rbp),%r13
    515f:	e9 ae 00 00 00       	jmp    5212 <_ZNSt10_HashtableIcSt4pairIKciESaIS2_ENSt8__detail10_Select1stESt8equal_toIcESt4hashIcENS4_18_Mod_range_hashingENS4_20_Default_ranged_hashENS4_20_Prime_rehash_policyENS4_17_Hashtable_traitsILb0ELb0ELb1EEEE16_M_insert_uniqueIRS1_RKS2_NS4_10_AllocNodeISaINS4_10_Hash_nodeIS2_Lb0EEEEEEEES0_INS4_14_Node_iteratorIS2_Lb0ELb0EEEbEOT_OT0_RKT1_+0x266>
    5164:	48 8b 85 68 ff ff ff 	mov    -0x98(%rbp),%rax
    516b:	48 89 c7             	mov    %rax,%rdi
    516e:	e8 30 fc ff ff       	call   4da3 <_ZSt7forwardIRKSt4pairIKciEEOT_RNSt16remove_referenceIS5_E4typeE>
    5173:	48 89 c3             	mov    %rax,%rbx
    5176:	48 8b 85 70 ff ff ff 	mov    -0x90(%rbp),%rax
    517d:	48 89 c7             	mov    %rax,%rdi
    5180:	e8 2c 04 00 00       	call   55b1 <_ZSt7forwardIRKcEOT_RNSt16remove_referenceIS2_E4typeE>
    5185:	48 89 c1             	mov    %rax,%rcx
    5188:	48 8b 85 60 ff ff ff 	mov    -0xa0(%rbp),%rax
    518f:	48 89 c2             	mov    %rax,%rdx
    5192:	48 89 de             	mov    %rbx,%rsi
    5195:	48 89 cf             	mov    %rcx,%rdi
    5198:	e8 22 04 00 00       	call   55bf <_ZNSt8__detail12_NodeBuilderINS_10_Select1stEE8_S_buildIRKcRKSt4pairIS4_iENS_10_AllocNodeISaINS_10_Hash_nodeIS7_Lb0EEEEEEEEPNT1_11__node_typeEOT_OT0_RKSF_>
    519d:	48 89 c1             	mov    %rax,%rcx
    51a0:	48 8b 95 78 ff ff ff 	mov    -0x88(%rbp),%rdx
    51a7:	48 8d 45 b0          	lea    -0x50(%rbp),%rax
    51ab:	48 89 ce             	mov    %rcx,%rsi
    51ae:	48 89 c7             	mov    %rax,%rdi
    51b1:	e8 56 04 00 00       	call   560c <_ZNSt10_HashtableIcSt4pairIKciESaIS2_ENSt8__detail10_Select1stESt8equal_toIcESt4hashIcENS4_18_Mod_range_hashingENS4_20_Default_ranged_hashENS4_20_Prime_rehash_policyENS4_17_Hashtable_traitsILb0ELb0ELb1EEEE12_Scoped_nodeC1EPNS4_10_Hash_nodeIS2_Lb0EEEPNS4_16_Hashtable_allocISaISI_EEE>
    51b6:	48 8b 4d b8          	mov    -0x48(%rbp),%rcx
    51ba:	48 8b 55 98          	mov    -0x68(%rbp),%rdx
    51be:	48 8b 75 a0          	mov    -0x60(%rbp),%rsi
    51c2:	48 8b 85 78 ff ff ff 	mov    -0x88(%rbp),%rax
    51c9:	41 b8 01 00 00 00    	mov    $0x1,%r8d
    51cf:	48 89 c7             	mov    %rax,%rdi
    51d2:	e8 95 04 00 00       	call   566c <_ZNSt10_HashtableIcSt4pairIKciESaIS2_ENSt8__detail10_Select1stESt8equal_toIcESt4hashIcENS4_18_Mod_range_hashingENS4_20_Default_ranged_hashENS4_20_Prime_rehash_policyENS4_17_Hashtable_traitsILb0ELb0ELb1EEEE21_M_insert_unique_nodeEmmPNS4_10_Hash_nodeIS2_Lb0EEEm>
    51d7:	48 89 45 90          	mov    %rax,-0x70(%rbp)
    51db:	48 c7 45 b8 00 00 00 	movq   $0x0,-0x48(%rbp)
    51e2:	00 
    51e3:	c6 45 8f 01          	movb   $0x1,-0x71(%rbp)
    51e7:	48 8d 55 8f          	lea    -0x71(%rbp),%rdx
    51eb:	48 8d 4d 90          	lea    -0x70(%rbp),%rcx
    51ef:	48 8d 45 c0          	lea    -0x40(%rbp),%rax
    51f3:	48 89 ce             	mov    %rcx,%rsi
    51f6:	48 89 c7             	mov    %rax,%rdi
    51f9:	e8 56 02 00 00       	call   5454 <_ZNSt4pairINSt8__detail14_Node_iteratorIS_IKciELb0ELb0EEEbEC1IRS4_bLb1EEEOT_OT0_>
    51fe:	4c 8b 65 c0          	mov    -0x40(%rbp),%r12
    5202:	4c 8b 6d c8          	mov    -0x38(%rbp),%r13
    5206:	48 8d 45 b0          	lea    -0x50(%rbp),%rax
    520a:	48 89 c7             	mov    %rax,%rdi
    520d:	e8 24 04 00 00       	call   5636 <_ZNSt10_HashtableIcSt4pairIKciESaIS2_ENSt8__detail10_Select1stESt8equal_toIcESt4hashIcENS4_18_Mod_range_hashingENS4_20_Default_ranged_hashENS4_20_Prime_rehash_policyENS4_17_Hashtable_traitsILb0ELb0ELb1EEEE12_Scoped_nodeD1Ev>
    5212:	4c 89 e0             	mov    %r12,%rax
    5215:	4c 89 ea             	mov    %r13,%rdx
    5218:	48 8b 4d d8          	mov    -0x28(%rbp),%rcx
    521c:	64 48 2b 0c 25 28 00 	sub    %fs:0x28,%rcx
    5223:	00 00 
    5225:	74 35                	je     525c <_ZNSt10_HashtableIcSt4pairIKciESaIS2_ENSt8__detail10_Select1stESt8equal_toIcESt4hashIcENS4_18_Mod_range_hashingENS4_20_Default_ranged_hashENS4_20_Prime_rehash_policyENS4_17_Hashtable_traitsILb0ELb0ELb1EEEE16_M_insert_uniqueIRS1_RKS2_NS4_10_AllocNodeISaINS4_10_Hash_nodeIS2_Lb0EEEEEEEES0_INS4_14_Node_iteratorIS2_Lb0ELb0EEEbEOT_OT0_RKT1_+0x2b0>
    5227:	eb 2e                	jmp    5257 <_ZNSt10_HashtableIcSt4pairIKciESaIS2_ENSt8__detail10_Select1stESt8equal_toIcESt4hashIcENS4_18_Mod_range_hashingENS4_20_Default_ranged_hashENS4_20_Prime_rehash_policyENS4_17_Hashtable_traitsILb0ELb0ELb1EEEE16_M_insert_uniqueIRS1_RKS2_NS4_10_AllocNodeISaINS4_10_Hash_nodeIS2_Lb0EEEEEEEES0_INS4_14_Node_iteratorIS2_Lb0ELb0EEEbEOT_OT0_RKT1_+0x2ab>
    5229:	48 89 c3             	mov    %rax,%rbx
    522c:	48 8d 45 b0          	lea    -0x50(%rbp),%rax
    5230:	48 89 c7             	mov    %rax,%rdi
    5233:	e8 fe 03 00 00       	call   5636 <_ZNSt10_HashtableIcSt4pairIKciESaIS2_ENSt8__detail10_Select1stESt8equal_toIcESt4hashIcENS4_18_Mod_range_hashingENS4_20_Default_ranged_hashENS4_20_Prime_rehash_policyENS4_17_Hashtable_traitsILb0ELb0ELb1EEEE12_Scoped_nodeD1Ev>
    5238:	48 89 d8             	mov    %rbx,%rax
    523b:	48 8b 55 d8          	mov    -0x28(%rbp),%rdx
    523f:	64 48 2b 14 25 28 00 	sub    %fs:0x28,%rdx
    5246:	00 00 
    5248:	74 05                	je     524f <_ZNSt10_HashtableIcSt4pairIKciESaIS2_ENSt8__detail10_Select1stESt8equal_toIcESt4hashIcENS4_18_Mod_range_hashingENS4_20_Default_ranged_hashENS4_20_Prime_rehash_policyENS4_17_Hashtable_traitsILb0ELb0ELb1EEEE16_M_insert_uniqueIRS1_RKS2_NS4_10_AllocNodeISaINS4_10_Hash_nodeIS2_Lb0EEEEEEEES0_INS4_14_Node_iteratorIS2_Lb0ELb0EEEbEOT_OT0_RKT1_+0x2a3>
    524a:	e8 51 e0 ff ff       	call   32a0 <__stack_chk_fail@plt>
    524f:	48 89 c7             	mov    %rax,%rdi
    5252:	e8 79 e1 ff ff       	call   33d0 <_Unwind_Resume@plt>
    5257:	e8 44 e0 ff ff       	call   32a0 <__stack_chk_fail@plt>
    525c:	48 81 c4 88 00 00 00 	add    $0x88,%rsp
    5263:	5b                   	pop    %rbx
    5264:	41 5c                	pop    %r12
    5266:	41 5d                	pop    %r13
    5268:	5d                   	pop    %rbp
    5269:	c3                   	ret

000000000000526a <_ZN9__gnu_cxx16__aligned_bufferISt4pairIKciEE7_M_addrEv>:
    526a:	55                   	push   %rbp
    526b:	48 89 e5             	mov    %rsp,%rbp
    526e:	48 89 7d f8          	mov    %rdi,-0x8(%rbp)
    5272:	48 8b 45 f8          	mov    -0x8(%rbp),%rax
    5276:	5d                   	pop    %rbp
    5277:	c3                   	ret

0000000000005278 <_ZSt9addressofINSt8__detail10_Hash_nodeISt4pairIKciELb0EEEEPT_RS6_>:
    5278:	55                   	push   %rbp
    5279:	48 89 e5             	mov    %rsp,%rbp
    527c:	48 83 ec 10          	sub    $0x10,%rsp
    5280:	48 89 7d f8          	mov    %rdi,-0x8(%rbp)
    5284:	48 8b 45 f8          	mov    -0x8(%rbp),%rax
    5288:	48 89 c7             	mov    %rax,%rdi
    528b:	e8 fc 04 00 00       	call   578c <_ZSt11__addressofINSt8__detail10_Hash_nodeISt4pairIKciELb0EEEEPT_RS6_>
    5290:	c9                   	leave
    5291:	c3                   	ret

0000000000005292 <_ZNSt15__new_allocatorINSt8__detail10_Hash_nodeISt4pairIKciELb0EEEE10deallocateEPS5_m>:
    5292:	55                   	push   %rbp
    5293:	48 89 e5             	mov    %rsp,%rbp
    5296:	48 83 ec 20          	sub    $0x20,%rsp
    529a:	48 89 7d f8          	mov    %rdi,-0x8(%rbp)
    529e:	48 89 75 f0          	mov    %rsi,-0x10(%rbp)
    52a2:	48 89 55 e8          	mov    %rdx,-0x18(%rbp)
    52a6:	48 8b 45 e8          	mov    -0x18(%rbp),%rax
    52aa:	48 c1 e0 04          	shl    $0x4,%rax
    52ae:	48 89 c2             	mov    %rax,%rdx
    52b1:	48 8b 45 f0          	mov    -0x10(%rbp),%rax
    52b5:	48 89 d6             	mov    %rdx,%rsi
    52b8:	48 89 c7             	mov    %rax,%rdi
    52bb:	e8 80 df ff ff       	call   3240 <_ZdlPvm@plt>
    52c0:	c9                   	leave
    52c1:	c3                   	ret

00000000000052c2 <_ZSt11__addressofIPNSt8__detail15_Hash_node_baseEEPT_RS3_>:
    52c2:	55                   	push   %rbp
    52c3:	48 89 e5             	mov    %rsp,%rbp
    52c6:	48 89 7d f8          	mov    %rdi,-0x8(%rbp)
    52ca:	48 8b 45 f8          	mov    -0x8(%rbp),%rax
    52ce:	5d                   	pop    %rbp
    52cf:	c3                   	ret

00000000000052d0 <_ZSt7forwardIRKSt4hashIcEEOT_RNSt16remove_referenceIS4_E4typeE>:
    52d0:	55                   	push   %rbp
    52d1:	48 89 e5             	mov    %rsp,%rbp
    52d4:	48 89 7d f8          	mov    %rdi,-0x8(%rbp)
    52d8:	48 8b 45 f8          	mov    -0x8(%rbp),%rax
    52dc:	5d                   	pop    %rbp
    52dd:	c3                   	ret

00000000000052de <_ZNKSt10_HashtableIcSt4pairIKciESaIS2_ENSt8__detail10_Select1stESt8equal_toIcESt4hashIcENS4_18_Mod_range_hashingENS4_20_Default_ranged_hashENS4_20_Prime_rehash_policyENS4_17_Hashtable_traitsILb0ELb0ELb1EEEE4sizeEv>:
    52de:	55                   	push   %rbp
    52df:	48 89 e5             	mov    %rsp,%rbp
    52e2:	48 89 7d f8          	mov    %rdi,-0x8(%rbp)
    52e6:	48 8b 45 f8          	mov    -0x8(%rbp),%rax
    52ea:	48 8b 40 18          	mov    0x18(%rax),%rax
    52ee:	5d                   	pop    %rbp
    52ef:	c3                   	ret

00000000000052f0 <_ZNSt10_HashtableIcSt4pairIKciESaIS2_ENSt8__detail10_Select1stESt8equal_toIcESt4hashIcENS4_18_Mod_range_hashingENS4_20_Default_ranged_hashENS4_20_Prime_rehash_policyENS4_17_Hashtable_traitsILb0ELb0ELb1EEEE22__small_size_thresholdEv>:
    52f0:	55                   	push   %rbp
    52f1:	48 89 e5             	mov    %rsp,%rbp
    52f4:	e8 a1 04 00 00       	call   579a <_ZNSt8__detail22_Hashtable_hash_traitsISt4hashIcEE22__small_size_thresholdEv>
    52f9:	5d                   	pop    %rbp
    52fa:	c3                   	ret
    52fb:	90                   	nop

00000000000052fc <_ZNSt10_HashtableIcSt4pairIKciESaIS2_ENSt8__detail10_Select1stESt8equal_toIcESt4hashIcENS4_18_Mod_range_hashingENS4_20_Default_ranged_hashENS4_20_Prime_rehash_policyENS4_17_Hashtable_traitsILb0ELb0ELb1EEEE5beginEv>:
    52fc:	55                   	push   %rbp
    52fd:	48 89 e5             	mov    %rsp,%rbp
    5300:	48 83 ec 20          	sub    $0x20,%rsp
    5304:	48 89 7d e8          	mov    %rdi,-0x18(%rbp)
    5308:	64 48 8b 04 25 28 00 	mov    %fs:0x28,%rax
    530f:	00 00 
    5311:	48 89 45 f8          	mov    %rax,-0x8(%rbp)
    5315:	31 c0                	xor    %eax,%eax
    5317:	48 8b 45 e8          	mov    -0x18(%rbp),%rax
    531b:	48 89 c7             	mov    %rax,%rdi
    531e:	e8 99 f3 ff ff       	call   46bc <_ZNKSt10_HashtableIcSt4pairIKciESaIS2_ENSt8__detail10_Select1stESt8equal_toIcESt4hashIcENS4_18_Mod_range_hashingENS4_20_Default_ranged_hashENS4_20_Prime_rehash_policyENS4_17_Hashtable_traitsILb0ELb0ELb1EEEE8_M_beginEv>
    5323:	48 89 c2             	mov    %rax,%rdx
    5326:	48 8d 45 f0          	lea    -0x10(%rbp),%rax
    532a:	48 89 d6             	mov    %rdx,%rsi
    532d:	48 89 c7             	mov    %rax,%rdi
    5330:	e8 13 02 00 00       	call   5548 <_ZNSt8__detail14_Node_iteratorISt4pairIKciELb0ELb0EEC1EPNS_10_Hash_nodeIS3_Lb0EEE>
    5335:	48 8b 45 f0          	mov    -0x10(%rbp),%rax
    5339:	48 8b 55 f8          	mov    -0x8(%rbp),%rdx
    533d:	64 48 2b 14 25 28 00 	sub    %fs:0x28,%rdx
    5344:	00 00 
    5346:	74 05                	je     534d <_ZNSt10_HashtableIcSt4pairIKciESaIS2_ENSt8__detail10_Select1stESt8equal_toIcESt4hashIcENS4_18_Mod_range_hashingENS4_20_Default_ranged_hashENS4_20_Prime_rehash_policyENS4_17_Hashtable_traitsILb0ELb0ELb1EEEE5beginEv+0x51>
    5348:	e8 53 df ff ff       	call   32a0 <__stack_chk_fail@plt>
    534d:	c9                   	leave
    534e:	c3                   	ret
    534f:	90                   	nop

0000000000005350 <_ZNSt10_HashtableIcSt4pairIKciESaIS2_ENSt8__detail10_Select1stESt8equal_toIcESt4hashIcENS4_18_Mod_range_hashingENS4_20_Default_ranged_hashENS4_20_Prime_rehash_policyENS4_17_Hashtable_traitsILb0ELb0ELb1EEEE3endEv>:
    5350:	55                   	push   %rbp
    5351:	48 89 e5             	mov    %rsp,%rbp
    5354:	48 83 ec 20          	sub    $0x20,%rsp
    5358:	48 89 7d e8          	mov    %rdi,-0x18(%rbp)
    535c:	64 48 8b 04 25 28 00 	mov    %fs:0x28,%rax
    5363:	00 00 
    5365:	48 89 45 f8          	mov    %rax,-0x8(%rbp)
    5369:	31 c0                	xor    %eax,%eax
    536b:	48 8d 45 f0          	lea    -0x10(%rbp),%rax
    536f:	be 00 00 00 00       	mov    $0x0,%esi
    5374:	48 89 c7             	mov    %rax,%rdi
    5377:	e8 cc 01 00 00       	call   5548 <_ZNSt8__detail14_Node_iteratorISt4pairIKciELb0ELb0EEC1EPNS_10_Hash_nodeIS3_Lb0EEE>
    537c:	48 8b 45 f0          	mov    -0x10(%rbp),%rax
    5380:	48 8b 55 f8          	mov    -0x8(%rbp),%rdx
    5384:	64 48 2b 14 25 28 00 	sub    %fs:0x28,%rdx
    538b:	00 00 
    538d:	74 05                	je     5394 <_ZNSt10_HashtableIcSt4pairIKciESaIS2_ENSt8__detail10_Select1stESt8equal_toIcESt4hashIcENS4_18_Mod_range_hashingENS4_20_Default_ranged_hashENS4_20_Prime_rehash_policyENS4_17_Hashtable_traitsILb0ELb0ELb1EEEE3endEv+0x44>
    538f:	e8 0c df ff ff       	call   32a0 <__stack_chk_fail@plt>
    5394:	c9                   	leave
    5395:	c3                   	ret

0000000000005396 <_ZNSt8__detailneERKNS_19_Node_iterator_baseISt4pairIKciELb0EEES6_>:
    5396:	55                   	push   %rbp
    5397:	48 89 e5             	mov    %rsp,%rbp
    539a:	48 89 7d f8          	mov    %rdi,-0x8(%rbp)
    539e:	48 89 75 f0          	mov    %rsi,-0x10(%rbp)
    53a2:	48 8b 45 f8          	mov    -0x8(%rbp),%rax
    53a6:	48 8b 10             	mov    (%rax),%rdx
    53a9:	48 8b 45 f0          	mov    -0x10(%rbp),%rax
    53ad:	48 8b 00             	mov    (%rax),%rax
    53b0:	48 39 c2             	cmp    %rax,%rdx
    53b3:	0f 95 c0             	setne  %al
    53b6:	5d                   	pop    %rbp
    53b7:	c3                   	ret

00000000000053b8 <_ZNSt8__detail14_Node_iteratorISt4pairIKciELb0ELb0EEppEv>:
    53b8:	55                   	push   %rbp
    53b9:	48 89 e5             	mov    %rsp,%rbp
    53bc:	48 83 ec 10          	sub    $0x10,%rsp
    53c0:	48 89 7d f8          	mov    %rdi,-0x8(%rbp)
    53c4:	48 8b 45 f8          	mov    -0x8(%rbp),%rax
    53c8:	48 89 c7             	mov    %rax,%rdi
    53cb:	e8 d6 03 00 00       	call   57a6 <_ZNSt8__detail19_Node_iterator_baseISt4pairIKciELb0EE7_M_incrEv>
    53d0:	48 8b 45 f8          	mov    -0x8(%rbp),%rax
    53d4:	c9                   	leave
    53d5:	c3                   	ret

00000000000053d6 <_ZNKSt8__detail15_Hashtable_baseIcSt4pairIKciENS_10_Select1stESt8equal_toIcESt4hashIcENS_18_Mod_range_hashingENS_20_Default_ranged_hashENS_17_Hashtable_traitsILb0ELb0ELb1EEEE16_M_key_equals_trIcEEbRKT_RKNS_16_Hash_node_valueIS3_Lb0EEE>:
    53d6:	55                   	push   %rbp
    53d7:	48 89 e5             	mov    %rsp,%rbp
    53da:	53                   	push   %rbx
    53db:	48 83 ec 38          	sub    $0x38,%rsp
    53df:	48 89 7d d8          	mov    %rdi,-0x28(%rbp)
    53e3:	48 89 75 d0          	mov    %rsi,-0x30(%rbp)
    53e7:	48 89 55 c8          	mov    %rdx,-0x38(%rbp)
    53eb:	64 48 8b 04 25 28 00 	mov    %fs:0x28,%rax
    53f2:	00 00 
    53f4:	48 89 45 e8          	mov    %rax,-0x18(%rbp)
    53f8:	31 c0                	xor    %eax,%eax
    53fa:	48 8b 45 d8          	mov    -0x28(%rbp),%rax
    53fe:	48 89 c7             	mov    %rax,%rdi
    5401:	e8 c6 03 00 00       	call   57cc <_ZNKSt8__detail15_Hashtable_baseIcSt4pairIKciENS_10_Select1stESt8equal_toIcESt4hashIcENS_18_Mod_range_hashingENS_20_Default_ranged_hashENS_17_Hashtable_traitsILb0ELb0ELb1EEEE5_M_eqEv>
    5406:	48 89 c3             	mov    %rax,%rbx
    5409:	48 8b 45 c8          	mov    -0x38(%rbp),%rax
    540d:	48 89 c7             	mov    %rax,%rdi
    5410:	e8 d1 03 00 00       	call   57e6 <_ZNKSt8__detail21_Hash_node_value_baseISt4pairIKciEE4_M_vEv>
    5415:	48 89 c2             	mov    %rax,%rdx
    5418:	48 8d 45 e7          	lea    -0x19(%rbp),%rax
    541c:	48 89 d6             	mov    %rdx,%rsi
    541f:	48 89 c7             	mov    %rax,%rdi
    5422:	e8 59 fb ff ff       	call   4f80 <_ZNKSt8__detail10_Select1stclIRKSt4pairIKciEEEONS0_10__1st_typeIT_E4typeEOS8_>
    5427:	48 89 c2             	mov    %rax,%rdx
    542a:	48 8b 45 d0          	mov    -0x30(%rbp),%rax
    542e:	48 89 c6             	mov    %rax,%rsi
    5431:	48 89 df             	mov    %rbx,%rdi
    5434:	e8 c7 03 00 00       	call   5800 <_ZNKSt8equal_toIcEclERKcS2_>
    5439:	48 8b 55 e8          	mov    -0x18(%rbp),%rdx
    543d:	64 48 2b 14 25 28 00 	sub    %fs:0x28,%rdx
    5444:	00 00 
    5446:	74 05                	je     544d <_ZNKSt8__detail15_Hashtable_baseIcSt4pairIKciENS_10_Select1stESt8equal_toIcESt4hashIcENS_18_Mod_range_hashingENS_20_Default_ranged_hashENS_17_Hashtable_traitsILb0ELb0ELb1EEEE16_M_key_equals_trIcEEbRKT_RKNS_16_Hash_node_valueIS3_Lb0EEE+0x77>
    5448:	e8 53 de ff ff       	call   32a0 <__stack_chk_fail@plt>
    544d:	48 8b 5d f8          	mov    -0x8(%rbp),%rbx
    5451:	c9                   	leave
    5452:	c3                   	ret
    5453:	90                   	nop

0000000000005454 <_ZNSt4pairINSt8__detail14_Node_iteratorIS_IKciELb0ELb0EEEbEC1IRS4_bLb1EEEOT_OT0_>:
    5454:	55                   	push   %rbp
    5455:	48 89 e5             	mov    %rsp,%rbp
    5458:	48 83 ec 20          	sub    $0x20,%rsp
    545c:	48 89 7d f8          	mov    %rdi,-0x8(%rbp)
    5460:	48 89 75 f0          	mov    %rsi,-0x10(%rbp)
    5464:	48 89 55 e8          	mov    %rdx,-0x18(%rbp)
    5468:	48 8b 45 f0          	mov    -0x10(%rbp),%rax
    546c:	48 89 c7             	mov    %rax,%rdi
    546f:	e8 b1 03 00 00       	call   5825 <_ZSt7forwardIRNSt8__detail14_Node_iteratorISt4pairIKciELb0ELb0EEEEOT_RNSt16remove_referenceIS7_E4typeE>
    5474:	48 8b 55 f8          	mov    -0x8(%rbp),%rdx
    5478:	48 8b 00             	mov    (%rax),%rax
    547b:	48 89 02             	mov    %rax,(%rdx)
    547e:	48 8b 45 e8          	mov    -0x18(%rbp),%rax
    5482:	48 89 c7             	mov    %rax,%rdi
    5485:	e8 8f ee ff ff       	call   4319 <_ZSt7forwardIbEOT_RNSt16remove_referenceIS0_E4typeE>
    548a:	0f b6 00             	movzbl (%rax),%eax
    548d:	48 8b 55 f8          	mov    -0x8(%rbp),%rdx
    5491:	88 42 08             	mov    %al,0x8(%rdx)
    5494:	90                   	nop
    5495:	c9                   	leave
    5496:	c3                   	ret
    5497:	90                   	nop

0000000000005498 <_ZNKSt8__detail15_Hash_code_baseIcSt4pairIKciENS_10_Select1stESt4hashIcENS_18_Mod_range_hashingENS_20_Default_ranged_hashELb0EE15_M_hash_code_trIcEEmRKT_>:
    5498:	55                   	push   %rbp
    5499:	48 89 e5             	mov    %rsp,%rbp
    549c:	48 83 ec 10          	sub    $0x10,%rsp
    54a0:	48 89 7d f8          	mov    %rdi,-0x8(%rbp)
    54a4:	48 89 75 f0          	mov    %rsi,-0x10(%rbp)
    54a8:	48 8b 45 f8          	mov    -0x8(%rbp),%rax
    54ac:	48 89 c7             	mov    %rax,%rdi
    54af:	e8 80 03 00 00       	call   5834 <_ZNKSt8__detail15_Hash_code_baseIcSt4pairIKciENS_10_Select1stESt4hashIcENS_18_Mod_range_hashingENS_20_Default_ranged_hashELb0EE7_M_hashEv>
    54b4:	48 89 c2             	mov    %rax,%rdx
    54b7:	48 8b 45 f0          	mov    -0x10(%rbp),%rax
    54bb:	0f b6 00             	movzbl (%rax),%eax
    54be:	0f be c0             	movsbl %al,%eax
    54c1:	89 c6                	mov    %eax,%esi
    54c3:	48 89 d7             	mov    %rdx,%rdi
    54c6:	e8 61 ec ff ff       	call   412c <_ZNKSt4hashIcEclEc>
    54cb:	c9                   	leave
    54cc:	c3                   	ret
    54cd:	90                   	nop

00000000000054ce <_ZNKSt10_HashtableIcSt4pairIKciESaIS2_ENSt8__detail10_Select1stESt8equal_toIcESt4hashIcENS4_18_Mod_range_hashingENS4_20_Default_ranged_hashENS4_20_Prime_rehash_policyENS4_17_Hashtable_traitsILb0ELb0ELb1EEEE15_M_bucket_indexEm>:
    54ce:	55                   	push   %rbp
    54cf:	48 89 e5             	mov    %rsp,%rbp
    54d2:	48 83 ec 10          	sub    $0x10,%rsp
    54d6:	48 89 7d f8          	mov    %rdi,-0x8(%rbp)
    54da:	48 89 75 f0          	mov    %rsi,-0x10(%rbp)
    54de:	48 8b 45 f8          	mov    -0x8(%rbp),%rax
    54e2:	48 8b 50 08          	mov    0x8(%rax),%rdx
    54e6:	48 8b 4d f0          	mov    -0x10(%rbp),%rcx
    54ea:	48 8b 45 f8          	mov    -0x8(%rbp),%rax
    54ee:	48 89 ce             	mov    %rcx,%rsi
    54f1:	48 89 c7             	mov    %rax,%rdi
    54f4:	e8 55 03 00 00       	call   584e <_ZNKSt8__detail15_Hash_code_baseIcSt4pairIKciENS_10_Select1stESt4hashIcENS_18_Mod_range_hashingENS_20_Default_ranged_hashELb0EE15_M_bucket_indexEmm>
    54f9:	c9                   	leave
    54fa:	c3                   	ret
    54fb:	90                   	nop

00000000000054fc <_ZNKSt10_HashtableIcSt4pairIKciESaIS2_ENSt8__detail10_Select1stESt8equal_toIcESt4hashIcENS4_18_Mod_range_hashingENS4_20_Default_ranged_hashENS4_20_Prime_rehash_policyENS4_17_Hashtable_traitsILb0ELb0ELb1EEEE15_M_find_node_trIcEEPNS4_10_Hash_nodeIS2_Lb0EEEmRKT_m>:
    54fc:	55                   	push   %rbp
    54fd:	48 89 e5             	mov    %rsp,%rbp
    5500:	48 83 ec 30          	sub    $0x30,%rsp
    5504:	48 89 7d e8          	mov    %rdi,-0x18(%rbp)
    5508:	48 89 75 e0          	mov    %rsi,-0x20(%rbp)
    550c:	48 89 55 d8          	mov    %rdx,-0x28(%rbp)
    5510:	48 89 4d d0          	mov    %rcx,-0x30(%rbp)
    5514:	48 8b 4d d0          	mov    -0x30(%rbp),%rcx
    5518:	48 8b 55 d8          	mov    -0x28(%rbp),%rdx
    551c:	48 8b 75 e0          	mov    -0x20(%rbp),%rsi
    5520:	48 8b 45 e8          	mov    -0x18(%rbp),%rax
    5524:	48 89 c7             	mov    %rax,%rdi
    5527:	e8 72 03 00 00       	call   589e <_ZNKSt10_HashtableIcSt4pairIKciESaIS2_ENSt8__detail10_Select1stESt8equal_toIcESt4hashIcENS4_18_Mod_range_hashingENS4_20_Default_ranged_hashENS4_20_Prime_rehash_policyENS4_17_Hashtable_traitsILb0ELb0ELb1EEEE22_M_find_before_node_trIcEEPNS4_15_Hash_node_baseEmRKT_m>
    552c:	48 89 45 f8          	mov    %rax,-0x8(%rbp)
    5530:	48 83 7d f8 00       	cmpq   $0x0,-0x8(%rbp)
    5535:	74 09                	je     5540 <_ZNKSt10_HashtableIcSt4pairIKciESaIS2_ENSt8__detail10_Select1stESt8equal_toIcESt4hashIcENS4_18_Mod_range_hashingENS4_20_Default_ranged_hashENS4_20_Prime_rehash_policyENS4_17_Hashtable_traitsILb0ELb0ELb1EEEE15_M_find_node_trIcEEPNS4_10_Hash_nodeIS2_Lb0EEEmRKT_m+0x44>
    5537:	48 8b 45 f8          	mov    -0x8(%rbp),%rax
    553b:	48 8b 00             	mov    (%rax),%rax
    553e:	eb 05                	jmp    5545 <_ZNKSt10_HashtableIcSt4pairIKciESaIS2_ENSt8__detail10_Select1stESt8equal_toIcESt4hashIcENS4_18_Mod_range_hashingENS4_20_Default_ranged_hashENS4_20_Prime_rehash_policyENS4_17_Hashtable_traitsILb0ELb0ELb1EEEE15_M_find_node_trIcEEPNS4_10_Hash_nodeIS2_Lb0EEEmRKT_m+0x49>
    5540:	b8 00 00 00 00       	mov    $0x0,%eax
    5545:	c9                   	leave
    5546:	c3                   	ret
    5547:	90                   	nop

0000000000005548 <_ZNSt8__detail14_Node_iteratorISt4pairIKciELb0ELb0EEC1EPNS_10_Hash_nodeIS3_Lb0EEE>:
    5548:	55                   	push   %rbp
    5549:	48 89 e5             	mov    %rsp,%rbp
    554c:	48 83 ec 10          	sub    $0x10,%rsp
    5550:	48 89 7d f8          	mov    %rdi,-0x8(%rbp)
    5554:	48 89 75 f0          	mov    %rsi,-0x10(%rbp)
    5558:	48 8b 45 f8          	mov    -0x8(%rbp),%rax
    555c:	48 8b 55 f0          	mov    -0x10(%rbp),%rdx
    5560:	48 89 d6             	mov    %rdx,%rsi
    5563:	48 89 c7             	mov    %rax,%rdi
    5566:	e8 0d 04 00 00       	call   5978 <_ZNSt8__detail19_Node_iterator_baseISt4pairIKciELb0EEC1EPNS_10_Hash_nodeIS3_Lb0EEE>
    556b:	90                   	nop
    556c:	c9                   	leave
    556d:	c3                   	ret

000000000000556e <_ZNSt4pairINSt8__detail14_Node_iteratorIS_IKciELb0ELb0EEEbEC1IS4_bLb1EEEOT_OT0_>:
    556e:	55                   	push   %rbp
    556f:	48 89 e5             	mov    %rsp,%rbp
    5572:	48 83 ec 20          	sub    $0x20,%rsp
    5576:	48 89 7d f8          	mov    %rdi,-0x8(%rbp)
    557a:	48 89 75 f0          	mov    %rsi,-0x10(%rbp)
    557e:	48 89 55 e8          	mov    %rdx,-0x18(%rbp)
    5582:	48 8b 45 f0          	mov    -0x10(%rbp),%rax
    5586:	48 89 c7             	mov    %rax,%rdi
    5589:	e8 04 04 00 00       	call   5992 <_ZSt7forwardINSt8__detail14_Node_iteratorISt4pairIKciELb0ELb0EEEEOT_RNSt16remove_referenceIS6_E4typeE>
    558e:	48 8b 55 f8          	mov    -0x8(%rbp),%rdx
    5592:	48 8b 00             	mov    (%rax),%rax
    5595:	48 89 02             	mov    %rax,(%rdx)
    5598:	48 8b 45 e8          	mov    -0x18(%rbp),%rax
    559c:	48 89 c7             	mov    %rax,%rdi
    559f:	e8 75 ed ff ff       	call   4319 <_ZSt7forwardIbEOT_RNSt16remove_referenceIS0_E4typeE>
    55a4:	0f b6 00             	movzbl (%rax),%eax
    55a7:	48 8b 55 f8          	mov    -0x8(%rbp),%rdx
    55ab:	88 42 08             	mov    %al,0x8(%rdx)
    55ae:	90                   	nop
    55af:	c9                   	leave
    55b0:	c3                   	ret

00000000000055b1 <_ZSt7forwardIRKcEOT_RNSt16remove_referenceIS2_E4typeE>:
    55b1:	55                   	push   %rbp
    55b2:	48 89 e5             	mov    %rsp,%rbp
    55b5:	48 89 7d f8          	mov    %rdi,-0x8(%rbp)
    55b9:	48 8b 45 f8          	mov    -0x8(%rbp),%rax
    55bd:	5d                   	pop    %rbp
    55be:	c3                   	ret

00000000000055bf <_ZNSt8__detail12_NodeBuilderINS_10_Select1stEE8_S_buildIRKcRKSt4pairIS4_iENS_10_AllocNodeISaINS_10_Hash_nodeIS7_Lb0EEEEEEEEPNT1_11__node_typeEOT_OT0_RKSF_>:
    55bf:	55                   	push   %rbp
    55c0:	48 89 e5             	mov    %rsp,%rbp
    55c3:	53                   	push   %rbx
    55c4:	48 83 ec 28          	sub    $0x28,%rsp
    55c8:	48 89 7d e8          	mov    %rdi,-0x18(%rbp)
    55cc:	48 89 75 e0          	mov    %rsi,-0x20(%rbp)
    55d0:	48 89 55 d8          	mov    %rdx,-0x28(%rbp)
    55d4:	48 8b 45 e0          	mov    -0x20(%rbp),%rax
    55d8:	48 89 c7             	mov    %rax,%rdi
    55db:	e8 c3 f7 ff ff       	call   4da3 <_ZSt7forwardIRKSt4pairIKciEEOT_RNSt16remove_referenceIS5_E4typeE>
    55e0:	48 8d 58 04          	lea    0x4(%rax),%rbx
    55e4:	48 8b 45 e8          	mov    -0x18(%rbp),%rax
    55e8:	48 89 c7             	mov    %rax,%rdi
    55eb:	e8 c1 ff ff ff       	call   55b1 <_ZSt7forwardIRKcEOT_RNSt16remove_referenceIS2_E4typeE>
    55f0:	48 89 c1             	mov    %rax,%rcx
    55f3:	48 8b 45 d8          	mov    -0x28(%rbp),%rax
    55f7:	48 89 da             	mov    %rbx,%rdx
    55fa:	48 89 ce             	mov    %rcx,%rsi
    55fd:	48 89 c7             	mov    %rax,%rdi
    5600:	e8 9b 03 00 00       	call   59a0 <_ZNKSt8__detail10_AllocNodeISaINS_10_Hash_nodeISt4pairIKciELb0EEEEEclIJRS3_RKiEEEPS5_DpOT_>
    5605:	48 8b 5d f8          	mov    -0x8(%rbp),%rbx
    5609:	c9                   	leave
    560a:	c3                   	ret
    560b:	90                   	nop

000000000000560c <_ZNSt10_HashtableIcSt4pairIKciESaIS2_ENSt8__detail10_Select1stESt8equal_toIcESt4hashIcENS4_18_Mod_range_hashingENS4_20_Default_ranged_hashENS4_20_Prime_rehash_policyENS4_17_Hashtable_traitsILb0ELb0ELb1EEEE12_Scoped_nodeC1EPNS4_10_Hash_nodeIS2_Lb0EEEPNS4_16_Hashtable_allocISaISI_EEE>:
    560c:	55                   	push   %rbp
    560d:	48 89 e5             	mov    %rsp,%rbp
    5610:	48 89 7d f8          	mov    %rdi,-0x8(%rbp)
    5614:	48 89 75 f0          	mov    %rsi,-0x10(%rbp)
    5618:	48 89 55 e8          	mov    %rdx,-0x18(%rbp)
    561c:	48 8b 45 f8          	mov    -0x8(%rbp),%rax
    5620:	48 8b 55 e8          	mov    -0x18(%rbp),%rdx
    5624:	48 89 10             	mov    %rdx,(%rax)
    5627:	48 8b 45 f8          	mov    -0x8(%rbp),%rax
    562b:	48 8b 55 f0          	mov    -0x10(%rbp),%rdx
    562f:	48 89 50 08          	mov    %rdx,0x8(%rax)
    5633:	90                   	nop
    5634:	5d                   	pop    %rbp
    5635:	c3                   	ret

0000000000005636 <_ZNSt10_HashtableIcSt4pairIKciESaIS2_ENSt8__detail10_Select1stESt8equal_toIcESt4hashIcENS4_18_Mod_range_hashingENS4_20_Default_ranged_hashENS4_20_Prime_rehash_policyENS4_17_Hashtable_traitsILb0ELb0ELb1EEEE12_Scoped_nodeD1Ev>:
    5636:	55                   	push   %rbp
    5637:	48 89 e5             	mov    %rsp,%rbp
    563a:	48 83 ec 10          	sub    $0x10,%rsp
    563e:	48 89 7d f8          	mov    %rdi,-0x8(%rbp)
    5642:	48 8b 45 f8          	mov    -0x8(%rbp),%rax
    5646:	48 8b 40 08          	mov    0x8(%rax),%rax
    564a:	48 85 c0             	test   %rax,%rax
    564d:	74 1a                	je     5669 <_ZNSt10_HashtableIcSt4pairIKciESaIS2_ENSt8__detail10_Select1stESt8equal_toIcESt4hashIcENS4_18_Mod_range_hashingENS4_20_Default_ranged_hashENS4_20_Prime_rehash_policyENS4_17_Hashtable_traitsILb0ELb0ELb1EEEE12_Scoped_nodeD1Ev+0x33>
    564f:	48 8b 45 f8          	mov    -0x8(%rbp),%rax
    5653:	48 8b 00             	mov    (%rax),%rax
    5656:	48 8b 55 f8          	mov    -0x8(%rbp),%rdx
    565a:	48 8b 52 08          	mov    0x8(%rdx),%rdx
    565e:	48 89 d6             	mov    %rdx,%rsi
    5661:	48 89 c7             	mov    %rax,%rdi
    5664:	e8 f5 f2 ff ff       	call   495e <_ZNSt8__detail16_Hashtable_allocISaINS_10_Hash_nodeISt4pairIKciELb0EEEEE18_M_deallocate_nodeEPS5_>
    5669:	90                   	nop
    566a:	c9                   	leave
    566b:	c3                   	ret

000000000000566c <_ZNSt10_HashtableIcSt4pairIKciESaIS2_ENSt8__detail10_Select1stESt8equal_toIcESt4hashIcENS4_18_Mod_range_hashingENS4_20_Default_ranged_hashENS4_20_Prime_rehash_policyENS4_17_Hashtable_traitsILb0ELb0ELb1EEEE21_M_insert_unique_nodeEmmPNS4_10_Hash_nodeIS2_Lb0EEEm>:
    566c:	55                   	push   %rbp
    566d:	48 89 e5             	mov    %rsp,%rbp
    5670:	48 83 ec 70          	sub    $0x70,%rsp
    5674:	48 89 7d b8          	mov    %rdi,-0x48(%rbp)
    5678:	48 89 75 b0          	mov    %rsi,-0x50(%rbp)
    567c:	48 89 55 a8          	mov    %rdx,-0x58(%rbp)
    5680:	48 89 4d a0          	mov    %rcx,-0x60(%rbp)
    5684:	4c 89 45 98          	mov    %r8,-0x68(%rbp)
    5688:	64 48 8b 04 25 28 00 	mov    %fs:0x28,%rax
    568f:	00 00 
    5691:	48 89 45 f8          	mov    %rax,-0x8(%rbp)
    5695:	31 c0                	xor    %eax,%eax
    5697:	48 8b 45 b8          	mov    -0x48(%rbp),%rax
    569b:	48 83 c0 20          	add    $0x20,%rax
    569f:	48 89 c7             	mov    %rax,%rdi
    56a2:	e8 fb ea ff ff       	call   41a2 <_ZNKSt8__detail20_Prime_rehash_policy8_M_stateEv>
    56a7:	48 89 45 c8          	mov    %rax,-0x38(%rbp)
    56ab:	48 8d 45 c8          	lea    -0x38(%rbp),%rax
    56af:	48 89 45 d8          	mov    %rax,-0x28(%rbp)
    56b3:	48 8b 45 b8          	mov    -0x48(%rbp),%rax
    56b7:	48 83 c0 20          	add    $0x20,%rax
    56bb:	48 8b 55 b8          	mov    -0x48(%rbp),%rdx
    56bf:	48 8b 52 18          	mov    0x18(%rdx),%rdx
    56c3:	48 8b 4d b8          	mov    -0x48(%rbp),%rcx
    56c7:	48 8b 71 08          	mov    0x8(%rcx),%rsi
    56cb:	48 8b 4d 98          	mov    -0x68(%rbp),%rcx
    56cf:	48 89 c7             	mov    %rax,%rdi
    56d2:	e8 59 dc ff ff       	call   3330 <_ZNKSt8__detail20_Prime_rehash_policy14_M_need_rehashEmmm@plt>
    56d7:	89 c1                	mov    %eax,%ecx
    56d9:	48 89 d0             	mov    %rdx,%rax
    56dc:	89 4d e0             	mov    %ecx,-0x20(%rbp)
    56df:	48 89 45 e8          	mov    %rax,-0x18(%rbp)
    56e3:	0f b6 45 e0          	movzbl -0x20(%rbp),%eax
    56e7:	84 c0                	test   %al,%al
    56e9:	74 2e                	je     5719 <_ZNSt10_HashtableIcSt4pairIKciESaIS2_ENSt8__detail10_Select1stESt8equal_toIcESt4hashIcENS4_18_Mod_range_hashingENS4_20_Default_ranged_hashENS4_20_Prime_rehash_policyENS4_17_Hashtable_traitsILb0ELb0ELb1EEEE21_M_insert_unique_nodeEmmPNS4_10_Hash_nodeIS2_Lb0EEEm+0xad>
    56eb:	48 8b 4d e8          	mov    -0x18(%rbp),%rcx
    56ef:	48 8b 55 d8          	mov    -0x28(%rbp),%rdx
    56f3:	48 8b 45 b8          	mov    -0x48(%rbp),%rax
    56f7:	48 89 ce             	mov    %rcx,%rsi
    56fa:	48 89 c7             	mov    %rax,%rdi
    56fd:	e8 ee 02 00 00       	call   59f0 <_ZNSt10_HashtableIcSt4pairIKciESaIS2_ENSt8__detail10_Select1stESt8equal_toIcESt4hashIcENS4_18_Mod_range_hashingENS4_20_Default_ranged_hashENS4_20_Prime_rehash_policyENS4_17_Hashtable_traitsILb0ELb0ELb1EEEE9_M_rehashEmRKm>
    5702:	48 8b 55 a8          	mov    -0x58(%rbp),%rdx
    5706:	48 8b 45 b8          	mov    -0x48(%rbp),%rax
    570a:	48 89 d6             	mov    %rdx,%rsi
    570d:	48 89 c7             	mov    %rax,%rdi
    5710:	e8 b9 fd ff ff       	call   54ce <_ZNKSt10_HashtableIcSt4pairIKciESaIS2_ENSt8__detail10_Select1stESt8equal_toIcESt4hashIcENS4_18_Mod_range_hashingENS4_20_Default_ranged_hashENS4_20_Prime_rehash_policyENS4_17_Hashtable_traitsILb0ELb0ELb1EEEE15_M_bucket_indexEm>
    5715:	48 89 45 b0          	mov    %rax,-0x50(%rbp)
    5719:	48 8b 45 a0          	mov    -0x60(%rbp),%rax
    571d:	48 8d 48 08          	lea    0x8(%rax),%rcx
    5721:	48 8b 55 a8          	mov    -0x58(%rbp),%rdx
    5725:	48 8b 45 b8          	mov    -0x48(%rbp),%rax
    5729:	48 89 ce             	mov    %rcx,%rsi
    572c:	48 89 c7             	mov    %rax,%rdi
    572f:	e8 26 03 00 00       	call   5a5a <_ZNKSt8__detail15_Hash_code_baseIcSt4pairIKciENS_10_Select1stESt4hashIcENS_18_Mod_range_hashingENS_20_Default_ranged_hashELb0EE13_M_store_codeERNS_21_Hash_node_code_cacheILb0EEEm>
    5734:	48 8b 55 a0          	mov    -0x60(%rbp),%rdx
    5738:	48 8b 4d b0          	mov    -0x50(%rbp),%rcx
    573c:	48 8b 45 b8          	mov    -0x48(%rbp),%rax
    5740:	48 89 ce             	mov    %rcx,%rsi
    5743:	48 89 c7             	mov    %rax,%rdi
    5746:	e8 23 03 00 00       	call   5a6e <_ZNSt10_HashtableIcSt4pairIKciESaIS2_ENSt8__detail10_Select1stESt8equal_toIcESt4hashIcENS4_18_Mod_range_hashingENS4_20_Default_ranged_hashENS4_20_Prime_rehash_policyENS4_17_Hashtable_traitsILb0ELb0ELb1EEEE22_M_insert_bucket_beginEmPNS4_10_Hash_nodeIS2_Lb0EEE>
    574b:	48 8b 45 b8          	mov    -0x48(%rbp),%rax
    574f:	48 8b 40 18          	mov    0x18(%rax),%rax
    5753:	48 8d 50 01          	lea    0x1(%rax),%rdx
    5757:	48 8b 45 b8          	mov    -0x48(%rbp),%rax
    575b:	48 89 50 18          	mov    %rdx,0x18(%rax)
    575f:	48 8b 55 a0          	mov    -0x60(%rbp),%rdx
    5763:	48 8d 45 d0          	lea    -0x30(%rbp),%rax
    5767:	48 89 d6             	mov    %rdx,%rsi
    576a:	48 89 c7             	mov    %rax,%rdi
    576d:	e8 d6 fd ff ff       	call   5548 <_ZNSt8__detail14_Node_iteratorISt4pairIKciELb0ELb0EEC1EPNS_10_Hash_nodeIS3_Lb0EEE>
    5772:	48 8b 45 d0          	mov    -0x30(%rbp),%rax
    5776:	48 8b 55 f8          	mov    -0x8(%rbp),%rdx
    577a:	64 48 2b 14 25 28 00 	sub    %fs:0x28,%rdx
    5781:	00 00 
    5783:	74 05                	je     578a <_ZNSt10_HashtableIcSt4pairIKciESaIS2_ENSt8__detail10_Select1stESt8equal_toIcESt4hashIcENS4_18_Mod_range_hashingENS4_20_Default_ranged_hashENS4_20_Prime_rehash_policyENS4_17_Hashtable_traitsILb0ELb0ELb1EEEE21_M_insert_unique_nodeEmmPNS4_10_Hash_nodeIS2_Lb0EEEm+0x11e>
    5785:	e8 16 db ff ff       	call   32a0 <__stack_chk_fail@plt>
    578a:	c9                   	leave
    578b:	c3                   	ret

000000000000578c <_ZSt11__addressofINSt8__detail10_Hash_nodeISt4pairIKciELb0EEEEPT_RS6_>:
    578c:	55                   	push   %rbp
    578d:	48 89 e5             	mov    %rsp,%rbp
    5790:	48 89 7d f8          	mov    %rdi,-0x8(%rbp)
    5794:	48 8b 45 f8          	mov    -0x8(%rbp),%rax
    5798:	5d                   	pop    %rbp
    5799:	c3                   	ret

000000000000579a <_ZNSt8__detail22_Hashtable_hash_traitsISt4hashIcEE22__small_size_thresholdEv>:
    579a:	55                   	push   %rbp
    579b:	48 89 e5             	mov    %rsp,%rbp
    579e:	b8 00 00 00 00       	mov    $0x0,%eax
    57a3:	5d                   	pop    %rbp
    57a4:	c3                   	ret
    57a5:	90                   	nop

00000000000057a6 <_ZNSt8__detail19_Node_iterator_baseISt4pairIKciELb0EE7_M_incrEv>:
    57a6:	55                   	push   %rbp
    57a7:	48 89 e5             	mov    %rsp,%rbp
    57aa:	48 83 ec 10          	sub    $0x10,%rsp
    57ae:	48 89 7d f8          	mov    %rdi,-0x8(%rbp)
    57b2:	48 8b 45 f8          	mov    -0x8(%rbp),%rax
    57b6:	48 8b 00             	mov    (%rax),%rax
    57b9:	48 89 c7             	mov    %rax,%rdi
    57bc:	e8 8b f1 ff ff       	call   494c <_ZNKSt8__detail10_Hash_nodeISt4pairIKciELb0EE7_M_nextEv>
    57c1:	48 8b 55 f8          	mov    -0x8(%rbp),%rdx
    57c5:	48 89 02             	mov    %rax,(%rdx)
    57c8:	90                   	nop
    57c9:	c9                   	leave
    57ca:	c3                   	ret
    57cb:	90                   	nop

00000000000057cc <_ZNKSt8__detail15_Hashtable_baseIcSt4pairIKciENS_10_Select1stESt8equal_toIcESt4hashIcENS_18_Mod_range_hashingENS_20_Default_ranged_hashENS_17_Hashtable_traitsILb0ELb0ELb1EEEE5_M_eqEv>:
    57cc:	55                   	push   %rbp
    57cd:	48 89 e5             	mov    %rsp,%rbp
    57d0:	48 83 ec 10          	sub    $0x10,%rsp
    57d4:	48 89 7d f8          	mov    %rdi,-0x8(%rbp)
    57d8:	48 8b 45 f8          	mov    -0x8(%rbp),%rax
    57dc:	48 89 c7             	mov    %rax,%rdi
    57df:	e8 7a 03 00 00       	call   5b5e <_ZNKSt8__detail21_Hashtable_ebo_helperILi0ESt8equal_toIcELb1EE7_M_cgetEv>
    57e4:	c9                   	leave
    57e5:	c3                   	ret

00000000000057e6 <_ZNKSt8__detail21_Hash_node_value_baseISt4pairIKciEE4_M_vEv>:
    57e6:	55                   	push   %rbp
    57e7:	48 89 e5             	mov    %rsp,%rbp
    57ea:	48 83 ec 10          	sub    $0x10,%rsp
    57ee:	48 89 7d f8          	mov    %rdi,-0x8(%rbp)
    57f2:	48 8b 45 f8          	mov    -0x8(%rbp),%rax
    57f6:	48 89 c7             	mov    %rax,%rdi
    57f9:	e8 6e 03 00 00       	call   5b6c <_ZNKSt8__detail21_Hash_node_value_baseISt4pairIKciEE9_M_valptrEv>
    57fe:	c9                   	leave
    57ff:	c3                   	ret

0000000000005800 <_ZNKSt8equal_toIcEclERKcS2_>:
    5800:	55                   	push   %rbp
    5801:	48 89 e5             	mov    %rsp,%rbp
    5804:	48 89 7d f8          	mov    %rdi,-0x8(%rbp)
    5808:	48 89 75 f0          	mov    %rsi,-0x10(%rbp)
    580c:	48 89 55 e8          	mov    %rdx,-0x18(%rbp)
    5810:	48 8b 45 f0          	mov    -0x10(%rbp),%rax
    5814:	0f b6 10             	movzbl (%rax),%edx
    5817:	48 8b 45 e8          	mov    -0x18(%rbp),%rax
    581b:	0f b6 00             	movzbl (%rax),%eax
    581e:	38 c2                	cmp    %al,%dl
    5820:	0f 94 c0             	sete   %al
    5823:	5d                   	pop    %rbp
    5824:	c3                   	ret

0000000000005825 <_ZSt7forwardIRNSt8__detail14_Node_iteratorISt4pairIKciELb0ELb0EEEEOT_RNSt16remove_referenceIS7_E4typeE>:
    5825:	55                   	push   %rbp
    5826:	48 89 e5             	mov    %rsp,%rbp
    5829:	48 89 7d f8          	mov    %rdi,-0x8(%rbp)
    582d:	48 8b 45 f8          	mov    -0x8(%rbp),%rax
    5831:	5d                   	pop    %rbp
    5832:	c3                   	ret
    5833:	90                   	nop

0000000000005834 <_ZNKSt8__detail15_Hash_code_baseIcSt4pairIKciENS_10_Select1stESt4hashIcENS_18_Mod_range_hashingENS_20_Default_ranged_hashELb0EE7_M_hashEv>:
    5834:	55                   	push   %rbp
    5835:	48 89 e5             	mov    %rsp,%rbp
    5838:	48 83 ec 10          	sub    $0x10,%rsp
    583c:	48 89 7d f8          	mov    %rdi,-0x8(%rbp)
    5840:	48 8b 45 f8          	mov    -0x8(%rbp),%rax
    5844:	48 89 c7             	mov    %rax,%rdi
    5847:	e8 3a 03 00 00       	call   5b86 <_ZNKSt8__detail21_Hashtable_ebo_helperILi1ESt4hashIcELb1EE7_M_cgetEv>
    584c:	c9                   	leave
    584d:	c3                   	ret

000000000000584e <_ZNKSt8__detail15_Hash_code_baseIcSt4pairIKciENS_10_Select1stESt4hashIcENS_18_Mod_range_hashingENS_20_Default_ranged_hashELb0EE15_M_bucket_indexEmm>:
    584e:	55                   	push   %rbp
    584f:	48 89 e5             	mov    %rsp,%rbp
    5852:	48 83 ec 30          	sub    $0x30,%rsp
    5856:	48 89 7d e8          	mov    %rdi,-0x18(%rbp)
    585a:	48 89 75 e0          	mov    %rsi,-0x20(%rbp)
    585e:	48 89 55 d8          	mov    %rdx,-0x28(%rbp)
    5862:	64 48 8b 04 25 28 00 	mov    %fs:0x28,%rax
    5869:	00 00 
    586b:	48 89 45 f8          	mov    %rax,-0x8(%rbp)
    586f:	31 c0                	xor    %eax,%eax
    5871:	48 8b 55 d8          	mov    -0x28(%rbp),%rdx
    5875:	48 8b 4d e0          	mov    -0x20(%rbp),%rcx
    5879:	48 8d 45 f7          	lea    -0x9(%rbp),%rax
    587d:	48 89 ce             	mov    %rcx,%rsi
    5880:	48 89 c7             	mov    %rax,%rdi
    5883:	e8 ce e8 ff ff       	call   4156 <_ZNKSt8__detail18_Mod_range_hashingclEmm>
    5888:	48 8b 55 f8          	mov    -0x8(%rbp),%rdx
    588c:	64 48 2b 14 25 28 00 	sub    %fs:0x28,%rdx
    5893:	00 00 
    5895:	74 05                	je     589c <_ZNKSt8__detail15_Hash_code_baseIcSt4pairIKciENS_10_Select1stESt4hashIcENS_18_Mod_range_hashingENS_20_Default_ranged_hashELb0EE15_M_bucket_indexEmm+0x4e>
    5897:	e8 04 da ff ff       	call   32a0 <__stack_chk_fail@plt>
    589c:	c9                   	leave
    589d:	c3                   	ret

000000000000589e <_ZNKSt10_HashtableIcSt4pairIKciESaIS2_ENSt8__detail10_Select1stESt8equal_toIcESt4hashIcENS4_18_Mod_range_hashingENS4_20_Default_ranged_hashENS4_20_Prime_rehash_policyENS4_17_Hashtable_traitsILb0ELb0ELb1EEEE22_M_find_before_node_trIcEEPNS4_15_Hash_node_baseEmRKT_m>:
    589e:	55                   	push   %rbp
    589f:	48 89 e5             	mov    %rsp,%rbp
    58a2:	48 83 ec 30          	sub    $0x30,%rsp
    58a6:	48 89 7d e8          	mov    %rdi,-0x18(%rbp)
    58aa:	48 89 75 e0          	mov    %rsi,-0x20(%rbp)
    58ae:	48 89 55 d8          	mov    %rdx,-0x28(%rbp)
    58b2:	48 89 4d d0          	mov    %rcx,-0x30(%rbp)
    58b6:	48 8b 45 e8          	mov    -0x18(%rbp),%rax
    58ba:	48 8b 10             	mov    (%rax),%rdx
    58bd:	48 8b 45 e0          	mov    -0x20(%rbp),%rax
    58c1:	48 c1 e0 03          	shl    $0x3,%rax
    58c5:	48 01 d0             	add    %rdx,%rax
    58c8:	48 8b 00             	mov    (%rax),%rax
    58cb:	48 89 45 f0          	mov    %rax,-0x10(%rbp)
    58cf:	48 83 7d f0 00       	cmpq   $0x0,-0x10(%rbp)
    58d4:	75 0a                	jne    58e0 <_ZNKSt10_HashtableIcSt4pairIKciESaIS2_ENSt8__detail10_Select1stESt8equal_toIcESt4hashIcENS4_18_Mod_range_hashingENS4_20_Default_ranged_hashENS4_20_Prime_rehash_policyENS4_17_Hashtable_traitsILb0ELb0ELb1EEEE22_M_find_before_node_trIcEEPNS4_15_Hash_node_baseEmRKT_m+0x42>
    58d6:	b8 00 00 00 00       	mov    $0x0,%eax
    58db:	e9 95 00 00 00       	jmp    5975 <_ZNKSt10_HashtableIcSt4pairIKciESaIS2_ENSt8__detail10_Select1stESt8equal_toIcESt4hashIcENS4_18_Mod_range_hashingENS4_20_Default_ranged_hashENS4_20_Prime_rehash_policyENS4_17_Hashtable_traitsILb0ELb0ELb1EEEE22_M_find_before_node_trIcEEPNS4_15_Hash_node_baseEmRKT_m+0xd7>
    58e0:	48 8b 45 f0          	mov    -0x10(%rbp),%rax
    58e4:	48 8b 00             	mov    (%rax),%rax
    58e7:	48 89 45 f8          	mov    %rax,-0x8(%rbp)
    58eb:	48 8b 45 f8          	mov    -0x8(%rbp),%rax
    58ef:	48 8d 48 08          	lea    0x8(%rax),%rcx
    58f3:	48 8b 55 d0          	mov    -0x30(%rbp),%rdx
    58f7:	48 8b 75 d8          	mov    -0x28(%rbp),%rsi
    58fb:	48 8b 45 e8          	mov    -0x18(%rbp),%rax
    58ff:	48 89 c7             	mov    %rax,%rdi
    5902:	e8 8d 02 00 00       	call   5b94 <_ZNKSt8__detail15_Hashtable_baseIcSt4pairIKciENS_10_Select1stESt8equal_toIcESt4hashIcENS_18_Mod_range_hashingENS_20_Default_ranged_hashENS_17_Hashtable_traitsILb0ELb0ELb1EEEE12_M_equals_trIcEEbRKT_mRKNS_16_Hash_node_valueIS3_Lb0EEE>
    5907:	84 c0                	test   %al,%al
    5909:	74 06                	je     5911 <_ZNKSt10_HashtableIcSt4pairIKciESaIS2_ENSt8__detail10_Select1stESt8equal_toIcESt4hashIcENS4_18_Mod_range_hashingENS4_20_Default_ranged_hashENS4_20_Prime_rehash_policyENS4_17_Hashtable_traitsILb0ELb0ELb1EEEE22_M_find_before_node_trIcEEPNS4_15_Hash_node_baseEmRKT_m+0x73>
    590b:	48 8b 45 f0          	mov    -0x10(%rbp),%rax
    590f:	eb 64                	jmp    5975 <_ZNKSt10_HashtableIcSt4pairIKciESaIS2_ENSt8__detail10_Select1stESt8equal_toIcESt4hashIcENS4_18_Mod_range_hashingENS4_20_Default_ranged_hashENS4_20_Prime_rehash_policyENS4_17_Hashtable_traitsILb0ELb0ELb1EEEE22_M_find_before_node_trIcEEPNS4_15_Hash_node_baseEmRKT_m+0xd7>
    5911:	48 8b 45 f8          	mov    -0x8(%rbp),%rax
    5915:	48 8b 00             	mov    (%rax),%rax
    5918:	48 85 c0             	test   %rax,%rax
    591b:	74 25                	je     5942 <_ZNKSt10_HashtableIcSt4pairIKciESaIS2_ENSt8__detail10_Select1stESt8equal_toIcESt4hashIcENS4_18_Mod_range_hashingENS4_20_Default_ranged_hashENS4_20_Prime_rehash_policyENS4_17_Hashtable_traitsILb0ELb0ELb1EEEE22_M_find_before_node_trIcEEPNS4_15_Hash_node_baseEmRKT_m+0xa4>
    591d:	48 8b 45 f8          	mov    -0x8(%rbp),%rax
    5921:	48 89 c7             	mov    %rax,%rdi
    5924:	e8 23 f0 ff ff       	call   494c <_ZNKSt8__detail10_Hash_nodeISt4pairIKciELb0EE7_M_nextEv>
    5929:	48 8d 50 08          	lea    0x8(%rax),%rdx
    592d:	48 8b 45 e8          	mov    -0x18(%rbp),%rax
    5931:	48 89 d6             	mov    %rdx,%rsi
    5934:	48 89 c7             	mov    %rax,%rdi
    5937:	e8 b0 02 00 00       	call   5bec <_ZNKSt10_HashtableIcSt4pairIKciESaIS2_ENSt8__detail10_Select1stESt8equal_toIcESt4hashIcENS4_18_Mod_range_hashingENS4_20_Default_ranged_hashENS4_20_Prime_rehash_policyENS4_17_Hashtable_traitsILb0ELb0ELb1EEEE15_M_bucket_indexERKNS4_16_Hash_node_valueIS2_Lb0EEE>
    593c:	48 39 45 e0          	cmp    %rax,-0x20(%rbp)
    5940:	74 07                	je     5949 <_ZNKSt10_HashtableIcSt4pairIKciESaIS2_ENSt8__detail10_Select1stESt8equal_toIcESt4hashIcENS4_18_Mod_range_hashingENS4_20_Default_ranged_hashENS4_20_Prime_rehash_policyENS4_17_Hashtable_traitsILb0ELb0ELb1EEEE22_M_find_before_node_trIcEEPNS4_15_Hash_node_baseEmRKT_m+0xab>
    5942:	b8 01 00 00 00       	mov    $0x1,%eax
    5947:	eb 05                	jmp    594e <_ZNKSt10_HashtableIcSt4pairIKciESaIS2_ENSt8__detail10_Select1stESt8equal_toIcESt4hashIcENS4_18_Mod_range_hashingENS4_20_Default_ranged_hashENS4_20_Prime_rehash_policyENS4_17_Hashtable_traitsILb0ELb0ELb1EEEE22_M_find_before_node_trIcEEPNS4_15_Hash_node_baseEmRKT_m+0xb0>
    5949:	b8 00 00 00 00       	mov    $0x0,%eax
    594e:	84 c0                	test   %al,%al
    5950:	75 1d                	jne    596f <_ZNKSt10_HashtableIcSt4pairIKciESaIS2_ENSt8__detail10_Select1stESt8equal_toIcESt4hashIcENS4_18_Mod_range_hashingENS4_20_Default_ranged_hashENS4_20_Prime_rehash_policyENS4_17_Hashtable_traitsILb0ELb0ELb1EEEE22_M_find_before_node_trIcEEPNS4_15_Hash_node_baseEmRKT_m+0xd1>
    5952:	48 8b 45 f8          	mov    -0x8(%rbp),%rax
    5956:	48 89 45 f0          	mov    %rax,-0x10(%rbp)
    595a:	48 8b 45 f8          	mov    -0x8(%rbp),%rax
    595e:	48 89 c7             	mov    %rax,%rdi
    5961:	e8 e6 ef ff ff       	call   494c <_ZNKSt8__detail10_Hash_nodeISt4pairIKciELb0EE7_M_nextEv>
    5966:	48 89 45 f8          	mov    %rax,-0x8(%rbp)
    596a:	e9 7c ff ff ff       	jmp    58eb <_ZNKSt10_HashtableIcSt4pairIKciESaIS2_ENSt8__detail10_Select1stESt8equal_toIcESt4hashIcENS4_18_Mod_range_hashingENS4_20_Default_ranged_hashENS4_20_Prime_rehash_policyENS4_17_Hashtable_traitsILb0ELb0ELb1EEEE22_M_find_before_node_trIcEEPNS4_15_Hash_node_baseEmRKT_m+0x4d>
    596f:	90                   	nop
    5970:	b8 00 00 00 00       	mov    $0x0,%eax
    5975:	c9                   	leave
    5976:	c3                   	ret
    5977:	90                   	nop

0000000000005978 <_ZNSt8__detail19_Node_iterator_baseISt4pairIKciELb0EEC1EPNS_10_Hash_nodeIS3_Lb0EEE>:
    5978:	55                   	push   %rbp
    5979:	48 89 e5             	mov    %rsp,%rbp
    597c:	48 89 7d f8          	mov    %rdi,-0x8(%rbp)
    5980:	48 89 75 f0          	mov    %rsi,-0x10(%rbp)
    5984:	48 8b 45 f8          	mov    -0x8(%rbp),%rax
    5988:	48 8b 55 f0          	mov    -0x10(%rbp),%rdx
    598c:	48 89 10             	mov    %rdx,(%rax)
    598f:	90                   	nop
    5990:	5d                   	pop    %rbp
    5991:	c3                   	ret

0000000000005992 <_ZSt7forwardINSt8__detail14_Node_iteratorISt4pairIKciELb0ELb0EEEEOT_RNSt16remove_referenceIS6_E4typeE>:
    5992:	55                   	push   %rbp
    5993:	48 89 e5             	mov    %rsp,%rbp
    5996:	48 89 7d f8          	mov    %rdi,-0x8(%rbp)
    599a:	48 8b 45 f8          	mov    -0x8(%rbp),%rax
    599e:	5d                   	pop    %rbp
    599f:	c3                   	ret

00000000000059a0 <_ZNKSt8__detail10_AllocNodeISaINS_10_Hash_nodeISt4pairIKciELb0EEEEEclIJRS3_RKiEEEPS5_DpOT_>:
    59a0:	55                   	push   %rbp
    59a1:	48 89 e5             	mov    %rsp,%rbp
    59a4:	41 54                	push   %r12
    59a6:	53                   	push   %rbx
    59a7:	48 83 ec 20          	sub    $0x20,%rsp
    59ab:	48 89 7d e8          	mov    %rdi,-0x18(%rbp)
    59af:	48 89 75 e0          	mov    %rsi,-0x20(%rbp)
    59b3:	48 89 55 d8          	mov    %rdx,-0x28(%rbp)
    59b7:	48 8b 45 e8          	mov    -0x18(%rbp),%rax
    59bb:	48 8b 18             	mov    (%rax),%rbx
    59be:	48 8b 45 d8          	mov    -0x28(%rbp),%rax
    59c2:	48 89 c7             	mov    %rax,%rdi
    59c5:	e8 4f 02 00 00       	call   5c19 <_ZSt7forwardIRKiEOT_RNSt16remove_referenceIS2_E4typeE>
    59ca:	49 89 c4             	mov    %rax,%r12
    59cd:	48 8b 45 e0          	mov    -0x20(%rbp),%rax
    59d1:	48 89 c7             	mov    %rax,%rdi
    59d4:	e8 d8 fb ff ff       	call   55b1 <_ZSt7forwardIRKcEOT_RNSt16remove_referenceIS2_E4typeE>
    59d9:	4c 89 e2             	mov    %r12,%rdx
    59dc:	48 89 c6             	mov    %rax,%rsi
    59df:	48 89 df             	mov    %rbx,%rdi
    59e2:	e8 5d 02 00 00       	call   5c44 <_ZNSt8__detail16_Hashtable_allocISaINS_10_Hash_nodeISt4pairIKciELb0EEEEE16_M_allocate_nodeIJRS3_RKiEEEPS5_DpOT_>
    59e7:	48 83 c4 20          	add    $0x20,%rsp
    59eb:	5b                   	pop    %rbx
    59ec:	41 5c                	pop    %r12
    59ee:	5d                   	pop    %rbp
    59ef:	c3                   	ret

00000000000059f0 <_ZNSt10_HashtableIcSt4pairIKciESaIS2_ENSt8__detail10_Select1stESt8equal_toIcESt4hashIcENS4_18_Mod_range_hashingENS4_20_Default_ranged_hashENS4_20_Prime_rehash_policyENS4_17_Hashtable_traitsILb0ELb0ELb1EEEE9_M_rehashEmRKm>:
    59f0:	55                   	push   %rbp
    59f1:	48 89 e5             	mov    %rsp,%rbp
    59f4:	53                   	push   %rbx
    59f5:	48 83 ec 28          	sub    $0x28,%rsp
    59f9:	48 89 7d e8          	mov    %rdi,-0x18(%rbp)
    59fd:	48 89 75 e0          	mov    %rsi,-0x20(%rbp)
    5a01:	48 89 55 d8          	mov    %rdx,-0x28(%rbp)
    5a05:	48 8b 55 e0          	mov    -0x20(%rbp),%rdx
    5a09:	48 8b 45 e8          	mov    -0x18(%rbp),%rax
    5a0d:	48 89 d6             	mov    %rdx,%rsi
    5a10:	48 89 c7             	mov    %rax,%rdi
    5a13:	e8 8c 03 00 00       	call   5da4 <_ZNSt10_HashtableIcSt4pairIKciESaIS2_ENSt8__detail10_Select1stESt8equal_toIcESt4hashIcENS4_18_Mod_range_hashingENS4_20_Default_ranged_hashENS4_20_Prime_rehash_policyENS4_17_Hashtable_traitsILb0ELb0ELb1EEEE13_M_rehash_auxEmSt17integral_constantIbLb1EE>
    5a18:	eb 3a                	jmp    5a54 <_ZNSt10_HashtableIcSt4pairIKciESaIS2_ENSt8__detail10_Select1stESt8equal_toIcESt4hashIcENS4_18_Mod_range_hashingENS4_20_Default_ranged_hashENS4_20_Prime_rehash_policyENS4_17_Hashtable_traitsILb0ELb0ELb1EEEE9_M_rehashEmRKm+0x64>
    5a1a:	48 89 c7             	mov    %rax,%rdi
    5a1d:	e8 7e d6 ff ff       	call   30a0 <__cxa_begin_catch@plt>
    5a22:	48 8b 45 e8          	mov    -0x18(%rbp),%rax
    5a26:	48 83 c0 20          	add    $0x20,%rax
    5a2a:	48 8b 55 d8          	mov    -0x28(%rbp),%rdx
    5a2e:	48 8b 12             	mov    (%rdx),%rdx
    5a31:	48 89 d6             	mov    %rdx,%rsi
    5a34:	48 89 c7             	mov    %rax,%rdi
    5a37:	e8 78 e7 ff ff       	call   41b4 <_ZNSt8__detail20_Prime_rehash_policy8_M_resetEm>
    5a3c:	e8 1f d9 ff ff       	call   3360 <__cxa_rethrow@plt>
    5a41:	48 89 c3             	mov    %rax,%rbx
    5a44:	e8 37 d9 ff ff       	call   3380 <__cxa_end_catch@plt>
    5a49:	48 89 d8             	mov    %rbx,%rax
    5a4c:	48 89 c7             	mov    %rax,%rdi
    5a4f:	e8 7c d9 ff ff       	call   33d0 <_Unwind_Resume@plt>
    5a54:	48 8b 5d f8          	mov    -0x8(%rbp),%rbx
    5a58:	c9                   	leave
    5a59:	c3                   	ret

0000000000005a5a <_ZNKSt8__detail15_Hash_code_baseIcSt4pairIKciENS_10_Select1stESt4hashIcENS_18_Mod_range_hashingENS_20_Default_ranged_hashELb0EE13_M_store_codeERNS_21_Hash_node_code_cacheILb0EEEm>:
    5a5a:	55                   	push   %rbp
    5a5b:	48 89 e5             	mov    %rsp,%rbp
    5a5e:	48 89 7d f8          	mov    %rdi,-0x8(%rbp)
    5a62:	48 89 75 f0          	mov    %rsi,-0x10(%rbp)
    5a66:	48 89 55 e8          	mov    %rdx,-0x18(%rbp)
    5a6a:	90                   	nop
    5a6b:	5d                   	pop    %rbp
    5a6c:	c3                   	ret
    5a6d:	90                   	nop

0000000000005a6e <_ZNSt10_HashtableIcSt4pairIKciESaIS2_ENSt8__detail10_Select1stESt8equal_toIcESt4hashIcENS4_18_Mod_range_hashingENS4_20_Default_ranged_hashENS4_20_Prime_rehash_policyENS4_17_Hashtable_traitsILb0ELb0ELb1EEEE22_M_insert_bucket_beginEmPNS4_10_Hash_nodeIS2_Lb0EEE>:
    5a6e:	55                   	push   %rbp
    5a6f:	48 89 e5             	mov    %rsp,%rbp
    5a72:	41 54                	push   %r12
    5a74:	53                   	push   %rbx
    5a75:	48 83 ec 20          	sub    $0x20,%rsp
    5a79:	48 89 7d e8          	mov    %rdi,-0x18(%rbp)
    5a7d:	48 89 75 e0          	mov    %rsi,-0x20(%rbp)
    5a81:	48 89 55 d8          	mov    %rdx,-0x28(%rbp)
    5a85:	48 8b 45 e8          	mov    -0x18(%rbp),%rax
    5a89:	48 8b 10             	mov    (%rax),%rdx
    5a8c:	48 8b 45 e0          	mov    -0x20(%rbp),%rax
    5a90:	48 c1 e0 03          	shl    $0x3,%rax
    5a94:	48 01 d0             	add    %rdx,%rax
    5a97:	48 8b 00             	mov    (%rax),%rax
    5a9a:	48 85 c0             	test   %rax,%rax
    5a9d:	74 3d                	je     5adc <_ZNSt10_HashtableIcSt4pairIKciESaIS2_ENSt8__detail10_Select1stESt8equal_toIcESt4hashIcENS4_18_Mod_range_hashingENS4_20_Default_ranged_hashENS4_20_Prime_rehash_policyENS4_17_Hashtable_traitsILb0ELb0ELb1EEEE22_M_insert_bucket_beginEmPNS4_10_Hash_nodeIS2_Lb0EEE+0x6e>
    5a9f:	48 8b 45 e8          	mov    -0x18(%rbp),%rax
    5aa3:	48 8b 10             	mov    (%rax),%rdx
    5aa6:	48 8b 45 e0          	mov    -0x20(%rbp),%rax
    5aaa:	48 c1 e0 03          	shl    $0x3,%rax
    5aae:	48 01 d0             	add    %rdx,%rax
    5ab1:	48 8b 00             	mov    (%rax),%rax
    5ab4:	48 8b 10             	mov    (%rax),%rdx
    5ab7:	48 8b 45 d8          	mov    -0x28(%rbp),%rax
    5abb:	48 89 10             	mov    %rdx,(%rax)
    5abe:	48 8b 45 e8          	mov    -0x18(%rbp),%rax
    5ac2:	48 8b 10             	mov    (%rax),%rdx
    5ac5:	48 8b 45 e0          	mov    -0x20(%rbp),%rax
    5ac9:	48 c1 e0 03          	shl    $0x3,%rax
    5acd:	48 01 d0             	add    %rdx,%rax
    5ad0:	48 8b 00             	mov    (%rax),%rax
    5ad3:	48 8b 55 d8          	mov    -0x28(%rbp),%rdx
    5ad7:	48 89 10             	mov    %rdx,(%rax)
    5ada:	eb 78                	jmp    5b54 <_ZNSt10_HashtableIcSt4pairIKciESaIS2_ENSt8__detail10_Select1stESt8equal_toIcESt4hashIcENS4_18_Mod_range_hashingENS4_20_Default_ranged_hashENS4_20_Prime_rehash_policyENS4_17_Hashtable_traitsILb0ELb0ELb1EEEE22_M_insert_bucket_beginEmPNS4_10_Hash_nodeIS2_Lb0EEE+0xe6>
    5adc:	48 8b 45 e8          	mov    -0x18(%rbp),%rax
    5ae0:	48 8b 50 10          	mov    0x10(%rax),%rdx
    5ae4:	48 8b 45 d8          	mov    -0x28(%rbp),%rax
    5ae8:	48 89 10             	mov    %rdx,(%rax)
    5aeb:	48 8b 45 e8          	mov    -0x18(%rbp),%rax
    5aef:	48 8b 55 d8          	mov    -0x28(%rbp),%rdx
    5af3:	48 89 50 10          	mov    %rdx,0x10(%rax)
    5af7:	48 8b 45 d8          	mov    -0x28(%rbp),%rax
    5afb:	48 8b 00             	mov    (%rax),%rax
    5afe:	48 85 c0             	test   %rax,%rax
    5b01:	74 34                	je     5b37 <_ZNSt10_HashtableIcSt4pairIKciESaIS2_ENSt8__detail10_Select1stESt8equal_toIcESt4hashIcENS4_18_Mod_range_hashingENS4_20_Default_ranged_hashENS4_20_Prime_rehash_policyENS4_17_Hashtable_traitsILb0ELb0ELb1EEEE22_M_insert_bucket_beginEmPNS4_10_Hash_nodeIS2_Lb0EEE+0xc9>
    5b03:	48 8b 5d d8          	mov    -0x28(%rbp),%rbx
    5b07:	48 8b 45 e8          	mov    -0x18(%rbp),%rax
    5b0b:	4c 8b 20             	mov    (%rax),%r12
    5b0e:	48 8b 45 d8          	mov    -0x28(%rbp),%rax
    5b12:	48 89 c7             	mov    %rax,%rdi
    5b15:	e8 32 ee ff ff       	call   494c <_ZNKSt8__detail10_Hash_nodeISt4pairIKciELb0EE7_M_nextEv>
    5b1a:	48 8d 50 08          	lea    0x8(%rax),%rdx
    5b1e:	48 8b 45 e8          	mov    -0x18(%rbp),%rax
    5b22:	48 89 d6             	mov    %rdx,%rsi
    5b25:	48 89 c7             	mov    %rax,%rdi
    5b28:	e8 bf 00 00 00       	call   5bec <_ZNKSt10_HashtableIcSt4pairIKciESaIS2_ENSt8__detail10_Select1stESt8equal_toIcESt4hashIcENS4_18_Mod_range_hashingENS4_20_Default_ranged_hashENS4_20_Prime_rehash_policyENS4_17_Hashtable_traitsILb0ELb0ELb1EEEE15_M_bucket_indexERKNS4_16_Hash_node_valueIS2_Lb0EEE>
    5b2d:	48 c1 e0 03          	shl    $0x3,%rax
    5b31:	4c 01 e0             	add    %r12,%rax
    5b34:	48 89 18             	mov    %rbx,(%rax)
    5b37:	48 8b 45 e8          	mov    -0x18(%rbp),%rax
    5b3b:	48 8b 10             	mov    (%rax),%rdx
    5b3e:	48 8b 45 e0          	mov    -0x20(%rbp),%rax
    5b42:	48 c1 e0 03          	shl    $0x3,%rax
    5b46:	48 01 d0             	add    %rdx,%rax
    5b49:	48 8b 55 e8          	mov    -0x18(%rbp),%rdx
    5b4d:	48 83 c2 10          	add    $0x10,%rdx
    5b51:	48 89 10             	mov    %rdx,(%rax)
    5b54:	90                   	nop
    5b55:	48 83 c4 20          	add    $0x20,%rsp
    5b59:	5b                   	pop    %rbx
    5b5a:	41 5c                	pop    %r12
    5b5c:	5d                   	pop    %rbp
    5b5d:	c3                   	ret

0000000000005b5e <_ZNKSt8__detail21_Hashtable_ebo_helperILi0ESt8equal_toIcELb1EE7_M_cgetEv>:
    5b5e:	55                   	push   %rbp
    5b5f:	48 89 e5             	mov    %rsp,%rbp
    5b62:	48 89 7d f8          	mov    %rdi,-0x8(%rbp)
    5b66:	48 8b 45 f8          	mov    -0x8(%rbp),%rax
    5b6a:	5d                   	pop    %rbp
    5b6b:	c3                   	ret

0000000000005b6c <_ZNKSt8__detail21_Hash_node_value_baseISt4pairIKciEE9_M_valptrEv>:
    5b6c:	55                   	push   %rbp
    5b6d:	48 89 e5             	mov    %rsp,%rbp
    5b70:	48 83 ec 10          	sub    $0x10,%rsp
    5b74:	48 89 7d f8          	mov    %rdi,-0x8(%rbp)
    5b78:	48 8b 45 f8          	mov    -0x8(%rbp),%rax
    5b7c:	48 89 c7             	mov    %rax,%rdi
    5b7f:	e8 9a 03 00 00       	call   5f1e <_ZNK9__gnu_cxx16__aligned_bufferISt4pairIKciEE6_M_ptrEv>
    5b84:	c9                   	leave
    5b85:	c3                   	ret

0000000000005b86 <_ZNKSt8__detail21_Hashtable_ebo_helperILi1ESt4hashIcELb1EE7_M_cgetEv>:
    5b86:	55                   	push   %rbp
    5b87:	48 89 e5             	mov    %rsp,%rbp
    5b8a:	48 89 7d f8          	mov    %rdi,-0x8(%rbp)
    5b8e:	48 8b 45 f8          	mov    -0x8(%rbp),%rax
    5b92:	5d                   	pop    %rbp
    5b93:	c3                   	ret

0000000000005b94 <_ZNKSt8__detail15_Hashtable_baseIcSt4pairIKciENS_10_Select1stESt8equal_toIcESt4hashIcENS_18_Mod_range_hashingENS_20_Default_ranged_hashENS_17_Hashtable_traitsILb0ELb0ELb1EEEE12_M_equals_trIcEEbRKT_mRKNS_16_Hash_node_valueIS3_Lb0EEE>:
    5b94:	55                   	push   %rbp
    5b95:	48 89 e5             	mov    %rsp,%rbp
    5b98:	48 83 ec 20          	sub    $0x20,%rsp
    5b9c:	48 89 7d f8          	mov    %rdi,-0x8(%rbp)
    5ba0:	48 89 75 f0          	mov    %rsi,-0x10(%rbp)
    5ba4:	48 89 55 e8          	mov    %rdx,-0x18(%rbp)
    5ba8:	48 89 4d e0          	mov    %rcx,-0x20(%rbp)
    5bac:	48 8b 55 e0          	mov    -0x20(%rbp),%rdx
    5bb0:	48 8b 45 e8          	mov    -0x18(%rbp),%rax
    5bb4:	48 89 d6             	mov    %rdx,%rsi
    5bb7:	48 89 c7             	mov    %rax,%rdi
    5bba:	e8 79 03 00 00       	call   5f38 <_ZNSt8__detail15_Hashtable_baseIcSt4pairIKciENS_10_Select1stESt8equal_toIcESt4hashIcENS_18_Mod_range_hashingENS_20_Default_ranged_hashENS_17_Hashtable_traitsILb0ELb0ELb1EEEE9_S_equalsEmRKNS_21_Hash_node_code_cacheILb0EEE>
    5bbf:	84 c0                	test   %al,%al
    5bc1:	74 22                	je     5be5 <_ZNKSt8__detail15_Hashtable_baseIcSt4pairIKciENS_10_Select1stESt8equal_toIcESt4hashIcENS_18_Mod_range_hashingENS_20_Default_ranged_hashENS_17_Hashtable_traitsILb0ELb0ELb1EEEE12_M_equals_trIcEEbRKT_mRKNS_16_Hash_node_valueIS3_Lb0EEE+0x51>
    5bc3:	48 8b 55 e0          	mov    -0x20(%rbp),%rdx
    5bc7:	48 8b 4d f0          	mov    -0x10(%rbp),%rcx
    5bcb:	48 8b 45 f8          	mov    -0x8(%rbp),%rax
    5bcf:	48 89 ce             	mov    %rcx,%rsi
    5bd2:	48 89 c7             	mov    %rax,%rdi
    5bd5:	e8 fc f7 ff ff       	call   53d6 <_ZNKSt8__detail15_Hashtable_baseIcSt4pairIKciENS_10_Select1stESt8equal_toIcESt4hashIcENS_18_Mod_range_hashingENS_20_Default_ranged_hashENS_17_Hashtable_traitsILb0ELb0ELb1EEEE16_M_key_equals_trIcEEbRKT_RKNS_16_Hash_node_valueIS3_Lb0EEE>
    5bda:	84 c0                	test   %al,%al
    5bdc:	74 07                	je     5be5 <_ZNKSt8__detail15_Hashtable_baseIcSt4pairIKciENS_10_Select1stESt8equal_toIcESt4hashIcENS_18_Mod_range_hashingENS_20_Default_ranged_hashENS_17_Hashtable_traitsILb0ELb0ELb1EEEE12_M_equals_trIcEEbRKT_mRKNS_16_Hash_node_valueIS3_Lb0EEE+0x51>
    5bde:	b8 01 00 00 00       	mov    $0x1,%eax
    5be3:	eb 05                	jmp    5bea <_ZNKSt8__detail15_Hashtable_baseIcSt4pairIKciENS_10_Select1stESt8equal_toIcESt4hashIcENS_18_Mod_range_hashingENS_20_Default_ranged_hashENS_17_Hashtable_traitsILb0ELb0ELb1EEEE12_M_equals_trIcEEbRKT_mRKNS_16_Hash_node_valueIS3_Lb0EEE+0x56>
    5be5:	b8 00 00 00 00       	mov    $0x0,%eax
    5bea:	c9                   	leave
    5beb:	c3                   	ret

0000000000005bec <_ZNKSt10_HashtableIcSt4pairIKciESaIS2_ENSt8__detail10_Select1stESt8equal_toIcESt4hashIcENS4_18_Mod_range_hashingENS4_20_Default_ranged_hashENS4_20_Prime_rehash_policyENS4_17_Hashtable_traitsILb0ELb0ELb1EEEE15_M_bucket_indexERKNS4_16_Hash_node_valueIS2_Lb0EEE>:
    5bec:	55                   	push   %rbp
    5bed:	48 89 e5             	mov    %rsp,%rbp
    5bf0:	48 83 ec 10          	sub    $0x10,%rsp
    5bf4:	48 89 7d f8          	mov    %rdi,-0x8(%rbp)
    5bf8:	48 89 75 f0          	mov    %rsi,-0x10(%rbp)
    5bfc:	48 8b 45 f8          	mov    -0x8(%rbp),%rax
    5c00:	48 8b 50 08          	mov    0x8(%rax),%rdx
    5c04:	48 8b 4d f0          	mov    -0x10(%rbp),%rcx
    5c08:	48 8b 45 f8          	mov    -0x8(%rbp),%rax
    5c0c:	48 89 ce             	mov    %rcx,%rsi
    5c0f:	48 89 c7             	mov    %rax,%rdi
    5c12:	e8 35 03 00 00       	call   5f4c <_ZNKSt8__detail15_Hash_code_baseIcSt4pairIKciENS_10_Select1stESt4hashIcENS_18_Mod_range_hashingENS_20_Default_ranged_hashELb0EE15_M_bucket_indexERKNS_16_Hash_node_valueIS3_Lb0EEEm>
    5c17:	c9                   	leave
    5c18:	c3                   	ret

0000000000005c19 <_ZSt7forwardIRKiEOT_RNSt16remove_referenceIS2_E4typeE>:
    5c19:	55                   	push   %rbp
    5c1a:	48 89 e5             	mov    %rsp,%rbp
    5c1d:	48 89 7d f8          	mov    %rdi,-0x8(%rbp)
    5c21:	48 8b 45 f8          	mov    -0x8(%rbp),%rax
    5c25:	5d                   	pop    %rbp
    5c26:	c3                   	ret
    5c27:	90                   	nop

0000000000005c28 <_ZNSt8__detail10_Hash_nodeISt4pairIKciELb0EEC1Ev>:
    5c28:	55                   	push   %rbp
    5c29:	48 89 e5             	mov    %rsp,%rbp
    5c2c:	48 83 ec 10          	sub    $0x10,%rsp
    5c30:	48 89 7d f8          	mov    %rdi,-0x8(%rbp)
    5c34:	48 8b 45 f8          	mov    -0x8(%rbp),%rax
    5c38:	48 89 c7             	mov    %rax,%rdi
    5c3b:	e8 00 e5 ff ff       	call   4140 <_ZNSt8__detail15_Hash_node_baseC1Ev>
    5c40:	90                   	nop
    5c41:	c9                   	leave
    5c42:	c3                   	ret
    5c43:	90                   	nop

0000000000005c44 <_ZNSt8__detail16_Hashtable_allocISaINS_10_Hash_nodeISt4pairIKciELb0EEEEE16_M_allocate_nodeIJRS3_RKiEEEPS5_DpOT_>:
    5c44:	55                   	push   %rbp
    5c45:	48 89 e5             	mov    %rsp,%rbp
    5c48:	41 55                	push   %r13
    5c4a:	41 54                	push   %r12
    5c4c:	53                   	push   %rbx
    5c4d:	48 81 ec 88 00 00 00 	sub    $0x88,%rsp
    5c54:	48 89 bd 78 ff ff ff 	mov    %rdi,-0x88(%rbp)
    5c5b:	48 89 b5 70 ff ff ff 	mov    %rsi,-0x90(%rbp)
    5c62:	48 89 95 68 ff ff ff 	mov    %rdx,-0x98(%rbp)
    5c69:	48 8b 85 78 ff ff ff 	mov    -0x88(%rbp),%rax
    5c70:	48 89 c7             	mov    %rax,%rdi
    5c73:	e8 e2 ef ff ff       	call   4c5a <_ZNSt8__detail16_Hashtable_allocISaINS_10_Hash_nodeISt4pairIKciELb0EEEEE17_M_node_allocatorEv>
    5c78:	48 89 45 90          	mov    %rax,-0x70(%rbp)
    5c7c:	48 c7 45 98 01 00 00 	movq   $0x1,-0x68(%rbp)
    5c83:	00 
    5c84:	48 8b 4d 98          	mov    -0x68(%rbp),%rcx
    5c88:	48 8b 45 90          	mov    -0x70(%rbp),%rax
    5c8c:	ba 00 00 00 00       	mov    $0x0,%edx
    5c91:	48 89 ce             	mov    %rcx,%rsi
    5c94:	48 89 c7             	mov    %rax,%rdi
    5c97:	e8 82 03 00 00       	call   601e <_ZNSt15__new_allocatorINSt8__detail10_Hash_nodeISt4pairIKciELb0EEEE8allocateEmPKv>
    5c9c:	90                   	nop
    5c9d:	48 89 45 80          	mov    %rax,-0x80(%rbp)
    5ca1:	48 8b 45 80          	mov    -0x80(%rbp),%rax
    5ca5:	48 89 c7             	mov    %rax,%rdi
    5ca8:	e8 1e 03 00 00       	call   5fcb <_ZSt12__to_addressINSt8__detail10_Hash_nodeISt4pairIKciELb0EEEEPT_S7_>
    5cad:	48 89 45 88          	mov    %rax,-0x78(%rbp)
    5cb1:	48 8b 45 88          	mov    -0x78(%rbp),%rax
    5cb5:	48 89 c6             	mov    %rax,%rsi
    5cb8:	bf 10 00 00 00       	mov    $0x10,%edi
    5cbd:	e8 58 e4 ff ff       	call   411a <_ZnwmPv>
    5cc2:	48 89 c7             	mov    %rax,%rdi
    5cc5:	e8 5e ff ff ff       	call   5c28 <_ZNSt8__detail10_Hash_nodeISt4pairIKciELb0EEC1Ev>
    5cca:	48 8b 85 68 ff ff ff 	mov    -0x98(%rbp),%rax
    5cd1:	48 89 c7             	mov    %rax,%rdi
    5cd4:	e8 40 ff ff ff       	call   5c19 <_ZSt7forwardIRKiEOT_RNSt16remove_referenceIS2_E4typeE>
    5cd9:	48 89 c3             	mov    %rax,%rbx
    5cdc:	48 8b 85 70 ff ff ff 	mov    -0x90(%rbp),%rax
    5ce3:	48 89 c7             	mov    %rax,%rdi
    5ce6:	e8 c6 f8 ff ff       	call   55b1 <_ZSt7forwardIRKcEOT_RNSt16remove_referenceIS2_E4typeE>
    5ceb:	49 89 c4             	mov    %rax,%r12
    5cee:	48 8b 45 88          	mov    -0x78(%rbp),%rax
    5cf2:	48 83 c0 08          	add    $0x8,%rax
    5cf6:	48 89 c7             	mov    %rax,%rdi
    5cf9:	e8 76 ef ff ff       	call   4c74 <_ZNSt8__detail21_Hash_node_value_baseISt4pairIKciEE9_M_valptrEv>
    5cfe:	49 89 c5             	mov    %rax,%r13
    5d01:	48 8b 85 78 ff ff ff 	mov    -0x88(%rbp),%rax
    5d08:	48 89 c7             	mov    %rax,%rdi
    5d0b:	e8 4a ef ff ff       	call   4c5a <_ZNSt8__detail16_Hashtable_allocISaINS_10_Hash_nodeISt4pairIKciELb0EEEEE17_M_node_allocatorEv>
    5d10:	48 89 45 a0          	mov    %rax,-0x60(%rbp)
    5d14:	4c 89 6d a8          	mov    %r13,-0x58(%rbp)
    5d18:	4c 89 65 b0          	mov    %r12,-0x50(%rbp)
    5d1c:	48 89 5d b8          	mov    %rbx,-0x48(%rbp)
    5d20:	48 8b 45 b8          	mov    -0x48(%rbp),%rax
    5d24:	48 89 c7             	mov    %rax,%rdi
    5d27:	e8 ed fe ff ff       	call   5c19 <_ZSt7forwardIRKiEOT_RNSt16remove_referenceIS2_E4typeE>
    5d2c:	48 89 c3             	mov    %rax,%rbx
    5d2f:	48 8b 45 b0          	mov    -0x50(%rbp),%rax
    5d33:	48 89 c7             	mov    %rax,%rdi
    5d36:	e8 76 f8 ff ff       	call   55b1 <_ZSt7forwardIRKcEOT_RNSt16remove_referenceIS2_E4typeE>
    5d3b:	48 8b 55 a0          	mov    -0x60(%rbp),%rdx
    5d3f:	48 89 55 c0          	mov    %rdx,-0x40(%rbp)
    5d43:	48 8b 55 a8          	mov    -0x58(%rbp),%rdx
    5d47:	48 89 55 c8          	mov    %rdx,-0x38(%rbp)
    5d4b:	48 89 45 d0          	mov    %rax,-0x30(%rbp)
    5d4f:	48 89 5d d8          	mov    %rbx,-0x28(%rbp)
    5d53:	48 8b 45 c8          	mov    -0x38(%rbp),%rax
    5d57:	48 89 c6             	mov    %rax,%rsi
    5d5a:	bf 08 00 00 00       	mov    $0x8,%edi
    5d5f:	e8 b6 e3 ff ff       	call   411a <_ZnwmPv>
    5d64:	48 89 c3             	mov    %rax,%rbx
    5d67:	48 8b 45 d8          	mov    -0x28(%rbp),%rax
    5d6b:	48 89 c7             	mov    %rax,%rdi
    5d6e:	e8 a6 fe ff ff       	call   5c19 <_ZSt7forwardIRKiEOT_RNSt16remove_referenceIS2_E4typeE>
    5d73:	49 89 c4             	mov    %rax,%r12
    5d76:	48 8b 45 d0          	mov    -0x30(%rbp),%rax
    5d7a:	48 89 c7             	mov    %rax,%rdi
    5d7d:	e8 2f f8 ff ff       	call   55b1 <_ZSt7forwardIRKcEOT_RNSt16remove_referenceIS2_E4typeE>
    5d82:	4c 89 e2             	mov    %r12,%rdx
    5d85:	48 89 c6             	mov    %rax,%rsi
    5d88:	48 89 df             	mov    %rbx,%rdi
    5d8b:	e8 f6 02 00 00       	call   6086 <_ZNSt4pairIKciEC1IS0_iLb1EEERS0_RKi>
    5d90:	90                   	nop
    5d91:	90                   	nop
    5d92:	48 8b 45 88          	mov    -0x78(%rbp),%rax
    5d96:	48 81 c4 88 00 00 00 	add    $0x88,%rsp
    5d9d:	5b                   	pop    %rbx
    5d9e:	41 5c                	pop    %r12
    5da0:	41 5d                	pop    %r13
    5da2:	5d                   	pop    %rbp
    5da3:	c3                   	ret

0000000000005da4 <_ZNSt10_HashtableIcSt4pairIKciESaIS2_ENSt8__detail10_Select1stESt8equal_toIcESt4hashIcENS4_18_Mod_range_hashingENS4_20_Default_ranged_hashENS4_20_Prime_rehash_policyENS4_17_Hashtable_traitsILb0ELb0ELb1EEEE13_M_rehash_auxEmSt17integral_constantIbLb1EE>:
    5da4:	55                   	push   %rbp
    5da5:	48 89 e5             	mov    %rsp,%rbp
    5da8:	48 83 ec 40          	sub    $0x40,%rsp
    5dac:	48 89 7d c8          	mov    %rdi,-0x38(%rbp)
    5db0:	48 89 75 c0          	mov    %rsi,-0x40(%rbp)
    5db4:	48 8b 55 c0          	mov    -0x40(%rbp),%rdx
    5db8:	48 8b 45 c8          	mov    -0x38(%rbp),%rax
    5dbc:	48 89 d6             	mov    %rdx,%rsi
    5dbf:	48 89 c7             	mov    %rax,%rdi
    5dc2:	e8 bd ea ff ff       	call   4884 <_ZNSt10_HashtableIcSt4pairIKciESaIS2_ENSt8__detail10_Select1stESt8equal_toIcESt4hashIcENS4_18_Mod_range_hashingENS4_20_Default_ranged_hashENS4_20_Prime_rehash_policyENS4_17_Hashtable_traitsILb0ELb0ELb1EEEE19_M_allocate_bucketsEm>
    5dc7:	48 89 45 e8          	mov    %rax,-0x18(%rbp)
    5dcb:	48 8b 45 c8          	mov    -0x38(%rbp),%rax
    5dcf:	48 89 c7             	mov    %rax,%rdi
    5dd2:	e8 e5 e8 ff ff       	call   46bc <_ZNKSt10_HashtableIcSt4pairIKciESaIS2_ENSt8__detail10_Select1stESt8equal_toIcESt4hashIcENS4_18_Mod_range_hashingENS4_20_Default_ranged_hashENS4_20_Prime_rehash_policyENS4_17_Hashtable_traitsILb0ELb0ELb1EEEE8_M_beginEv>
    5dd7:	48 89 45 d8          	mov    %rax,-0x28(%rbp)
    5ddb:	48 8b 45 c8          	mov    -0x38(%rbp),%rax
    5ddf:	48 c7 40 10 00 00 00 	movq   $0x0,0x10(%rax)
    5de6:	00 
    5de7:	48 c7 45 e0 00 00 00 	movq   $0x0,-0x20(%rbp)
    5dee:	00 
    5def:	e9 f8 00 00 00       	jmp    5eec <_ZNSt10_HashtableIcSt4pairIKciESaIS2_ENSt8__detail10_Select1stESt8equal_toIcESt4hashIcENS4_18_Mod_range_hashingENS4_20_Default_ranged_hashENS4_20_Prime_rehash_policyENS4_17_Hashtable_traitsILb0ELb0ELb1EEEE13_M_rehash_auxEmSt17integral_constantIbLb1EE+0x148>
    5df4:	48 8b 45 d8          	mov    -0x28(%rbp),%rax
    5df8:	48 89 c7             	mov    %rax,%rdi
    5dfb:	e8 4c eb ff ff       	call   494c <_ZNKSt8__detail10_Hash_nodeISt4pairIKciELb0EE7_M_nextEv>
    5e00:	48 89 45 f0          	mov    %rax,-0x10(%rbp)
    5e04:	48 8b 45 d8          	mov    -0x28(%rbp),%rax
    5e08:	48 8d 48 08          	lea    0x8(%rax),%rcx
    5e0c:	48 8b 55 c0          	mov    -0x40(%rbp),%rdx
    5e10:	48 8b 45 c8          	mov    -0x38(%rbp),%rax
    5e14:	48 89 ce             	mov    %rcx,%rsi
    5e17:	48 89 c7             	mov    %rax,%rdi
    5e1a:	e8 2d 01 00 00       	call   5f4c <_ZNKSt8__detail15_Hash_code_baseIcSt4pairIKciENS_10_Select1stESt4hashIcENS_18_Mod_range_hashingENS_20_Default_ranged_hashELb0EE15_M_bucket_indexERKNS_16_Hash_node_valueIS3_Lb0EEEm>
    5e1f:	48 89 45 f8          	mov    %rax,-0x8(%rbp)
    5e23:	48 8b 45 f8          	mov    -0x8(%rbp),%rax
    5e27:	48 8d 14 c5 00 00 00 	lea    0x0(,%rax,8),%rdx
    5e2e:	00 
    5e2f:	48 8b 45 e8          	mov    -0x18(%rbp),%rax
    5e33:	48 01 d0             	add    %rdx,%rax
    5e36:	48 8b 00             	mov    (%rax),%rax
    5e39:	48 85 c0             	test   %rax,%rax
    5e3c:	75 69                	jne    5ea7 <_ZNSt10_HashtableIcSt4pairIKciESaIS2_ENSt8__detail10_Select1stESt8equal_toIcESt4hashIcENS4_18_Mod_range_hashingENS4_20_Default_ranged_hashENS4_20_Prime_rehash_policyENS4_17_Hashtable_traitsILb0ELb0ELb1EEEE13_M_rehash_auxEmSt17integral_constantIbLb1EE+0x103>
    5e3e:	48 8b 45 c8          	mov    -0x38(%rbp),%rax
    5e42:	48 8b 50 10          	mov    0x10(%rax),%rdx
    5e46:	48 8b 45 d8          	mov    -0x28(%rbp),%rax
    5e4a:	48 89 10             	mov    %rdx,(%rax)
    5e4d:	48 8b 45 c8          	mov    -0x38(%rbp),%rax
    5e51:	48 8b 55 d8          	mov    -0x28(%rbp),%rdx
    5e55:	48 89 50 10          	mov    %rdx,0x10(%rax)
    5e59:	48 8b 45 f8          	mov    -0x8(%rbp),%rax
    5e5d:	48 8d 14 c5 00 00 00 	lea    0x0(,%rax,8),%rdx
    5e64:	00 
    5e65:	48 8b 45 e8          	mov    -0x18(%rbp),%rax
    5e69:	48 01 d0             	add    %rdx,%rax
    5e6c:	48 8b 55 c8          	mov    -0x38(%rbp),%rdx
    5e70:	48 83 c2 10          	add    $0x10,%rdx
    5e74:	48 89 10             	mov    %rdx,(%rax)
    5e77:	48 8b 45 d8          	mov    -0x28(%rbp),%rax
    5e7b:	48 8b 00             	mov    (%rax),%rax
    5e7e:	48 85 c0             	test   %rax,%rax
    5e81:	74 1a                	je     5e9d <_ZNSt10_HashtableIcSt4pairIKciESaIS2_ENSt8__detail10_Select1stESt8equal_toIcESt4hashIcENS4_18_Mod_range_hashingENS4_20_Default_ranged_hashENS4_20_Prime_rehash_policyENS4_17_Hashtable_traitsILb0ELb0ELb1EEEE13_M_rehash_auxEmSt17integral_constantIbLb1EE+0xf9>
    5e83:	48 8b 45 e0          	mov    -0x20(%rbp),%rax
    5e87:	48 8d 14 c5 00 00 00 	lea    0x0(,%rax,8),%rdx
    5e8e:	00 
    5e8f:	48 8b 45 e8          	mov    -0x18(%rbp),%rax
    5e93:	48 01 d0             	add    %rdx,%rax
    5e96:	48 8b 55 d8          	mov    -0x28(%rbp),%rdx
    5e9a:	48 89 10             	mov    %rdx,(%rax)
    5e9d:	48 8b 45 f8          	mov    -0x8(%rbp),%rax
    5ea1:	48 89 45 e0          	mov    %rax,-0x20(%rbp)
    5ea5:	eb 3d                	jmp    5ee4 <_ZNSt10_HashtableIcSt4pairIKciESaIS2_ENSt8__detail10_Select1stESt8equal_toIcESt4hashIcENS4_18_Mod_range_hashingENS4_20_Default_ranged_hashENS4_20_Prime_rehash_policyENS4_17_Hashtable_traitsILb0ELb0ELb1EEEE13_M_rehash_auxEmSt17integral_constantIbLb1EE+0x140>
    5ea7:	48 8b 45 f8          	mov    -0x8(%rbp),%rax
    5eab:	48 8d 14 c5 00 00 00 	lea    0x0(,%rax,8),%rdx
    5eb2:	00 
    5eb3:	48 8b 45 e8          	mov    -0x18(%rbp),%rax
    5eb7:	48 01 d0             	add    %rdx,%rax
    5eba:	48 8b 00             	mov    (%rax),%rax
    5ebd:	48 8b 10             	mov    (%rax),%rdx
    5ec0:	48 8b 45 d8          	mov    -0x28(%rbp),%rax
    5ec4:	48 89 10             	mov    %rdx,(%rax)
    5ec7:	48 8b 45 f8          	mov    -0x8(%rbp),%rax
    5ecb:	48 8d 14 c5 00 00 00 	lea    0x0(,%rax,8),%rdx
    5ed2:	00 
    5ed3:	48 8b 45 e8          	mov    -0x18(%rbp),%rax
    5ed7:	48 01 d0             	add    %rdx,%rax
    5eda:	48 8b 00             	mov    (%rax),%rax
    5edd:	48 8b 55 d8          	mov    -0x28(%rbp),%rdx
    5ee1:	48 89 10             	mov    %rdx,(%rax)
    5ee4:	48 8b 45 f0          	mov    -0x10(%rbp),%rax
    5ee8:	48 89 45 d8          	mov    %rax,-0x28(%rbp)
    5eec:	48 83 7d d8 00       	cmpq   $0x0,-0x28(%rbp)
    5ef1:	0f 85 fd fe ff ff    	jne    5df4 <_ZNSt10_HashtableIcSt4pairIKciESaIS2_ENSt8__detail10_Select1stESt8equal_toIcESt4hashIcENS4_18_Mod_range_hashingENS4_20_Default_ranged_hashENS4_20_Prime_rehash_policyENS4_17_Hashtable_traitsILb0ELb0ELb1EEEE13_M_rehash_auxEmSt17integral_constantIbLb1EE+0x50>
    5ef7:	48 8b 45 c8          	mov    -0x38(%rbp),%rax
    5efb:	48 89 c7             	mov    %rax,%rdi
    5efe:	e8 4f e6 ff ff       	call   4552 <_ZNSt10_HashtableIcSt4pairIKciESaIS2_ENSt8__detail10_Select1stESt8equal_toIcESt4hashIcENS4_18_Mod_range_hashingENS4_20_Default_ranged_hashENS4_20_Prime_rehash_policyENS4_17_Hashtable_traitsILb0ELb0ELb1EEEE21_M_deallocate_bucketsEv>
    5f03:	48 8b 45 c8          	mov    -0x38(%rbp),%rax
    5f07:	48 8b 55 c0          	mov    -0x40(%rbp),%rdx
    5f0b:	48 89 50 08          	mov    %rdx,0x8(%rax)
    5f0f:	48 8b 45 c8          	mov    -0x38(%rbp),%rax
    5f13:	48 8b 55 e8          	mov    -0x18(%rbp),%rdx
    5f17:	48 89 10             	mov    %rdx,(%rax)
    5f1a:	90                   	nop
    5f1b:	c9                   	leave
    5f1c:	c3                   	ret
    5f1d:	90                   	nop

0000000000005f1e <_ZNK9__gnu_cxx16__aligned_bufferISt4pairIKciEE6_M_ptrEv>:
    5f1e:	55                   	push   %rbp
    5f1f:	48 89 e5             	mov    %rsp,%rbp
    5f22:	48 83 ec 10          	sub    $0x10,%rsp
    5f26:	48 89 7d f8          	mov    %rdi,-0x8(%rbp)
    5f2a:	48 8b 45 f8          	mov    -0x8(%rbp),%rax
    5f2e:	48 89 c7             	mov    %rax,%rdi
    5f31:	e8 a4 00 00 00       	call   5fda <_ZNK9__gnu_cxx16__aligned_bufferISt4pairIKciEE7_M_addrEv>
    5f36:	c9                   	leave
    5f37:	c3                   	ret

0000000000005f38 <_ZNSt8__detail15_Hashtable_baseIcSt4pairIKciENS_10_Select1stESt8equal_toIcESt4hashIcENS_18_Mod_range_hashingENS_20_Default_ranged_hashENS_17_Hashtable_traitsILb0ELb0ELb1EEEE9_S_equalsEmRKNS_21_Hash_node_code_cacheILb0EEE>:
    5f38:	55                   	push   %rbp
    5f39:	48 89 e5             	mov    %rsp,%rbp
    5f3c:	48 89 7d f8          	mov    %rdi,-0x8(%rbp)
    5f40:	48 89 75 f0          	mov    %rsi,-0x10(%rbp)
    5f44:	b8 01 00 00 00       	mov    $0x1,%eax
    5f49:	5d                   	pop    %rbp
    5f4a:	c3                   	ret
    5f4b:	90                   	nop

0000000000005f4c <_ZNKSt8__detail15_Hash_code_baseIcSt4pairIKciENS_10_Select1stESt4hashIcENS_18_Mod_range_hashingENS_20_Default_ranged_hashELb0EE15_M_bucket_indexERKNS_16_Hash_node_valueIS3_Lb0EEEm>:
    5f4c:	55                   	push   %rbp
    5f4d:	48 89 e5             	mov    %rsp,%rbp
    5f50:	48 83 ec 30          	sub    $0x30,%rsp
    5f54:	48 89 7d e8          	mov    %rdi,-0x18(%rbp)
    5f58:	48 89 75 e0          	mov    %rsi,-0x20(%rbp)
    5f5c:	48 89 55 d8          	mov    %rdx,-0x28(%rbp)
    5f60:	64 48 8b 04 25 28 00 	mov    %fs:0x28,%rax
    5f67:	00 00 
    5f69:	48 89 45 f8          	mov    %rax,-0x8(%rbp)
    5f6d:	31 c0                	xor    %eax,%eax
    5f6f:	48 8b 45 e0          	mov    -0x20(%rbp),%rax
    5f73:	48 89 c7             	mov    %rax,%rdi
    5f76:	e8 6b f8 ff ff       	call   57e6 <_ZNKSt8__detail21_Hash_node_value_baseISt4pairIKciEE4_M_vEv>
    5f7b:	48 89 c2             	mov    %rax,%rdx
    5f7e:	48 8d 45 f7          	lea    -0x9(%rbp),%rax
    5f82:	48 89 d6             	mov    %rdx,%rsi
    5f85:	48 89 c7             	mov    %rax,%rdi
    5f88:	e8 f3 ef ff ff       	call   4f80 <_ZNKSt8__detail10_Select1stclIRKSt4pairIKciEEEONS0_10__1st_typeIT_E4typeEOS8_>
    5f8d:	48 89 c2             	mov    %rax,%rdx
    5f90:	48 8b 45 e8          	mov    -0x18(%rbp),%rax
    5f94:	48 89 d6             	mov    %rdx,%rsi
    5f97:	48 89 c7             	mov    %rax,%rdi
    5f9a:	e8 49 00 00 00       	call   5fe8 <_ZNKSt8__detail15_Hash_code_baseIcSt4pairIKciENS_10_Select1stESt4hashIcENS_18_Mod_range_hashingENS_20_Default_ranged_hashELb0EE12_M_hash_codeERS2_>
    5f9f:	48 89 c1             	mov    %rax,%rcx
    5fa2:	48 8b 55 d8          	mov    -0x28(%rbp),%rdx
    5fa6:	48 8d 45 f6          	lea    -0xa(%rbp),%rax
    5faa:	48 89 ce             	mov    %rcx,%rsi
    5fad:	48 89 c7             	mov    %rax,%rdi
    5fb0:	e8 a1 e1 ff ff       	call   4156 <_ZNKSt8__detail18_Mod_range_hashingclEmm>
    5fb5:	48 8b 55 f8          	mov    -0x8(%rbp),%rdx
    5fb9:	64 48 2b 14 25 28 00 	sub    %fs:0x28,%rdx
    5fc0:	00 00 
    5fc2:	74 05                	je     5fc9 <_ZNKSt8__detail15_Hash_code_baseIcSt4pairIKciENS_10_Select1stESt4hashIcENS_18_Mod_range_hashingENS_20_Default_ranged_hashELb0EE15_M_bucket_indexERKNS_16_Hash_node_valueIS3_Lb0EEEm+0x7d>
    5fc4:	e8 d7 d2 ff ff       	call   32a0 <__stack_chk_fail@plt>
    5fc9:	c9                   	leave
    5fca:	c3                   	ret

0000000000005fcb <_ZSt12__to_addressINSt8__detail10_Hash_nodeISt4pairIKciELb0EEEEPT_S7_>:
    5fcb:	55                   	push   %rbp
    5fcc:	48 89 e5             	mov    %rsp,%rbp
    5fcf:	48 89 7d f8          	mov    %rdi,-0x8(%rbp)
    5fd3:	48 8b 45 f8          	mov    -0x8(%rbp),%rax
    5fd7:	5d                   	pop    %rbp
    5fd8:	c3                   	ret
    5fd9:	90                   	nop

0000000000005fda <_ZNK9__gnu_cxx16__aligned_bufferISt4pairIKciEE7_M_addrEv>:
    5fda:	55                   	push   %rbp
    5fdb:	48 89 e5             	mov    %rsp,%rbp
    5fde:	48 89 7d f8          	mov    %rdi,-0x8(%rbp)
    5fe2:	48 8b 45 f8          	mov    -0x8(%rbp),%rax
    5fe6:	5d                   	pop    %rbp
    5fe7:	c3                   	ret

0000000000005fe8 <_ZNKSt8__detail15_Hash_code_baseIcSt4pairIKciENS_10_Select1stESt4hashIcENS_18_Mod_range_hashingENS_20_Default_ranged_hashELb0EE12_M_hash_codeERS2_>:
    5fe8:	55                   	push   %rbp
    5fe9:	48 89 e5             	mov    %rsp,%rbp
    5fec:	48 83 ec 10          	sub    $0x10,%rsp
    5ff0:	48 89 7d f8          	mov    %rdi,-0x8(%rbp)
    5ff4:	48 89 75 f0          	mov    %rsi,-0x10(%rbp)
    5ff8:	48 8b 45 f8          	mov    -0x8(%rbp),%rax
    5ffc:	48 89 c7             	mov    %rax,%rdi
    5fff:	e8 30 f8 ff ff       	call   5834 <_ZNKSt8__detail15_Hash_code_baseIcSt4pairIKciENS_10_Select1stESt4hashIcENS_18_Mod_range_hashingENS_20_Default_ranged_hashELb0EE7_M_hashEv>
    6004:	48 89 c2             	mov    %rax,%rdx
    6007:	48 8b 45 f0          	mov    -0x10(%rbp),%rax
    600b:	0f b6 00             	movzbl (%rax),%eax
    600e:	0f be c0             	movsbl %al,%eax
    6011:	89 c6                	mov    %eax,%esi
    6013:	48 89 d7             	mov    %rdx,%rdi
    6016:	e8 11 e1 ff ff       	call   412c <_ZNKSt4hashIcEclEc>
    601b:	c9                   	leave
    601c:	c3                   	ret
    601d:	90                   	nop

000000000000601e <_ZNSt15__new_allocatorINSt8__detail10_Hash_nodeISt4pairIKciELb0EEEE8allocateEmPKv>:
    601e:	55                   	push   %rbp
    601f:	48 89 e5             	mov    %rsp,%rbp
    6022:	48 83 ec 30          	sub    $0x30,%rsp
    6026:	48 89 7d e8          	mov    %rdi,-0x18(%rbp)
    602a:	48 89 75 e0          	mov    %rsi,-0x20(%rbp)
    602e:	48 89 55 d8          	mov    %rdx,-0x28(%rbp)
    6032:	48 8b 45 e8          	mov    -0x18(%rbp),%rax
    6036:	48 89 45 f8          	mov    %rax,-0x8(%rbp)
    603a:	48 b8 ff ff ff ff ff 	movabs $0x7ffffffffffffff,%rax
    6041:	ff ff 07 
    6044:	48 3b 45 e0          	cmp    -0x20(%rbp),%rax
    6048:	0f 92 c0             	setb   %al
    604b:	0f b6 c0             	movzbl %al,%eax
    604e:	48 85 c0             	test   %rax,%rax
    6051:	0f 95 c0             	setne  %al
    6054:	84 c0                	test   %al,%al
    6056:	74 1a                	je     6072 <_ZNSt15__new_allocatorINSt8__detail10_Hash_nodeISt4pairIKciELb0EEEE8allocateEmPKv+0x54>
    6058:	48 b8 ff ff ff ff ff 	movabs $0xfffffffffffffff,%rax
    605f:	ff ff 0f 
    6062:	48 3b 45 e0          	cmp    -0x20(%rbp),%rax
    6066:	73 05                	jae    606d <_ZNSt15__new_allocatorINSt8__detail10_Hash_nodeISt4pairIKciELb0EEEE8allocateEmPKv+0x4f>
    6068:	e8 43 d1 ff ff       	call   31b0 <_ZSt28__throw_bad_array_new_lengthv@plt>
    606d:	e8 1e d0 ff ff       	call   3090 <_ZSt17__throw_bad_allocv@plt>
    6072:	48 8b 45 e0          	mov    -0x20(%rbp),%rax
    6076:	48 c1 e0 04          	shl    $0x4,%rax
    607a:	48 89 c7             	mov    %rax,%rdi
    607d:	e8 ae d1 ff ff       	call   3230 <_Znwm@plt>
    6082:	90                   	nop
    6083:	c9                   	leave
    6084:	c3                   	ret
    6085:	90                   	nop

0000000000006086 <_ZNSt4pairIKciEC1IS0_iLb1EEERS0_RKi>:
    6086:	55                   	push   %rbp
    6087:	48 89 e5             	mov    %rsp,%rbp
    608a:	48 89 7d f8          	mov    %rdi,-0x8(%rbp)
    608e:	48 89 75 f0          	mov    %rsi,-0x10(%rbp)
    6092:	48 89 55 e8          	mov    %rdx,-0x18(%rbp)
    6096:	48 8b 45 f0          	mov    -0x10(%rbp),%rax
    609a:	0f b6 00             	movzbl (%rax),%eax
    609d:	48 8b 55 f8          	mov    -0x8(%rbp),%rdx
    60a1:	88 02                	mov    %al,(%rdx)
    60a3:	48 8b 45 e8          	mov    -0x18(%rbp),%rax
    60a7:	8b 10                	mov    (%rax),%edx
    60a9:	48 8b 45 f8          	mov    -0x8(%rbp),%rax
    60ad:	89 50 04             	mov    %edx,0x4(%rax)
    60b0:	90                   	nop
    60b1:	5d                   	pop    %rbp
    60b2:	c3                   	ret
    60b3:	90                   	nop

00000000000060b4 <_ZNSt13unordered_mapIciSt4hashIcESt8equal_toIcESaISt4pairIKciEEED1Ev>:
    60b4:	55                   	push   %rbp
    60b5:	48 89 e5             	mov    %rsp,%rbp
    60b8:	48 83 ec 10          	sub    $0x10,%rsp
    60bc:	48 89 7d f8          	mov    %rdi,-0x8(%rbp)
    60c0:	48 8b 45 f8          	mov    -0x8(%rbp),%rax
    60c4:	48 89 c7             	mov    %rax,%rdi
    60c7:	e8 26 e3 ff ff       	call   43f2 <_ZNSt10_HashtableIcSt4pairIKciESaIS2_ENSt8__detail10_Select1stESt8equal_toIcESt4hashIcENS4_18_Mod_range_hashingENS4_20_Default_ranged_hashENS4_20_Prime_rehash_policyENS4_17_Hashtable_traitsILb0ELb0ELb1EEEED1Ev>
    60cc:	90                   	nop
    60cd:	c9                   	leave
    60ce:	c3                   	ret

00000000000060cf <_Z16bit_scan_forwardm>:
    60cf:	55                   	push   %rbp
    60d0:	48 89 e5             	mov    %rsp,%rbp
    60d3:	48 89 7d e8          	mov    %rdi,-0x18(%rbp)
    60d7:	48 8b 45 e8          	mov    -0x18(%rbp),%rax
    60db:	48 ff c8             	dec    %rax
    60de:	48 31 45 e8          	xor    %rax,-0x18(%rbp)
    60e2:	48 8b 45 e8          	mov    -0x18(%rbp),%rax
    60e6:	89 c2                	mov    %eax,%edx
    60e8:	48 8b 45 e8          	mov    -0x18(%rbp),%rax
    60ec:	48 c1 e8 20          	shr    $0x20,%rax
    60f0:	31 d0                	xor    %edx,%eax
    60f2:	89 45 fc             	mov    %eax,-0x4(%rbp)
    60f5:	8b 45 fc             	mov    -0x4(%rbp),%eax
    60f8:	69 c0 cf 1a 29 78    	imul   $0x78291acf,%eax,%eax
    60fe:	c1 e8 1a             	shr    $0x1a,%eax
    6101:	89 c0                	mov    %eax,%eax
    6103:	48 8d 14 85 00 00 00 	lea    0x0(,%rax,4),%rdx
    610a:	00 
    610b:	48 8d 05 8e b3 00 00 	lea    0xb38e(%rip),%rax        # 114a0 <_ZL12lsb_64_table>
    6112:	8b 04 02             	mov    (%rdx,%rax,1),%eax
    6115:	5d                   	pop    %rbp
    6116:	c3                   	ret

0000000000006117 <_Z16bit_drop_forwardRm>:
    6117:	55                   	push   %rbp
    6118:	48 89 e5             	mov    %rsp,%rbp
    611b:	48 83 ec 18          	sub    $0x18,%rsp
    611f:	48 89 7d e8          	mov    %rdi,-0x18(%rbp)
    6123:	48 8b 45 e8          	mov    -0x18(%rbp),%rax
    6127:	48 8b 00             	mov    (%rax),%rax
    612a:	48 89 c7             	mov    %rax,%rdi
    612d:	e8 9d ff ff ff       	call   60cf <_Z16bit_scan_forwardm>
    6132:	89 45 fc             	mov    %eax,-0x4(%rbp)
    6135:	48 8b 45 e8          	mov    -0x18(%rbp),%rax
    6139:	48 8b 10             	mov    (%rax),%rdx
    613c:	48 8b 45 e8          	mov    -0x18(%rbp),%rax
    6140:	48 8b 00             	mov    (%rax),%rax
    6143:	48 ff c8             	dec    %rax
    6146:	48 21 c2             	and    %rax,%rdx
    6149:	48 8b 45 e8          	mov    -0x18(%rbp),%rax
    614d:	48 89 10             	mov    %rdx,(%rax)
    6150:	8b 45 fc             	mov    -0x4(%rbp),%eax
    6153:	c9                   	leave
    6154:	c3                   	ret

0000000000006155 <_Z7printBBRKm>:
