
lishex:     file format elf64-x86-64


Disassembly of section .init:

0000000000003000 <_init>:
    3000:	f3 0f 1e fa          	endbr64
    3004:	48 83 ec 08          	sub    $0x8,%rsp
    3008:	48 8b 05 c9 4f 01 00 	mov    0x14fc9(%rip),%rax        # 17fd8 <__gmon_start__@Base>
    300f:	48 85 c0             	test   %rax,%rax
    3012:	74 02                	je     3016 <_init+0x16>
    3014:	ff d0                	call   *%rax
    3016:	48 83 c4 08          	add    $0x8,%rsp
    301a:	c3                   	ret

Disassembly of section .plt:

0000000000003020 <_ZNKSt7__cxx1112basic_stringIcSt11char_traitsIcESaIcEE8capacityEv@plt-0x10>:
    3020:	ff 35 ca 4f 01 00    	push   0x14fca(%rip)        # 17ff0 <_GLOBAL_OFFSET_TABLE_+0x8>
    3026:	ff 25 cc 4f 01 00    	jmp    *0x14fcc(%rip)        # 17ff8 <_GLOBAL_OFFSET_TABLE_+0x10>
    302c:	0f 1f 40 00          	nopl   0x0(%rax)

0000000000003030 <_ZNKSt7__cxx1112basic_stringIcSt11char_traitsIcESaIcEE8capacityEv@plt>:
    3030:	ff 25 ca 4f 01 00    	jmp    *0x14fca(%rip)        # 18000 <_ZNKSt7__cxx1112basic_stringIcSt11char_traitsIcESaIcEE8capacityEv@GLIBCXX_3.4.21>
    3036:	68 00 00 00 00       	push   $0x0
    303b:	e9 e0 ff ff ff       	jmp    3020 <_init+0x20>

0000000000003040 <__errno_location@plt>:
    3040:	ff 25 c2 4f 01 00    	jmp    *0x14fc2(%rip)        # 18008 <__errno_location@GLIBC_2.2.5>
    3046:	68 01 00 00 00       	push   $0x1
    304b:	e9 d0 ff ff ff       	jmp    3020 <_init+0x20>

0000000000003050 <printf@plt>:
    3050:	ff 25 ba 4f 01 00    	jmp    *0x14fba(%rip)        # 18010 <printf@GLIBC_2.2.5>
    3056:	68 02 00 00 00       	push   $0x2
    305b:	e9 c0 ff ff ff       	jmp    3020 <_init+0x20>

0000000000003060 <_ZSt7getlineIcSt11char_traitsIcESaIcEERSt13basic_istreamIT_T0_ES7_RNSt7__cxx1112basic_stringIS4_S5_T1_EE@plt>:
    3060:	ff 25 b2 4f 01 00    	jmp    *0x14fb2(%rip)        # 18018 <_ZSt7getlineIcSt11char_traitsIcESaIcEERSt13basic_istreamIT_T0_ES7_RNSt7__cxx1112basic_stringIS4_S5_T1_EE@GLIBCXX_3.4.21>
    3066:	68 03 00 00 00       	push   $0x3
    306b:	e9 b0 ff ff ff       	jmp    3020 <_init+0x20>

0000000000003070 <_ZNSolsEm@plt>:
    3070:	ff 25 aa 4f 01 00    	jmp    *0x14faa(%rip)        # 18020 <_ZNSolsEm@GLIBCXX_3.4>
    3076:	68 04 00 00 00       	push   $0x4
    307b:	e9 a0 ff ff ff       	jmp    3020 <_init+0x20>

0000000000003080 <_ZNSolsEPFRSt8ios_baseS0_E@plt>:
    3080:	ff 25 a2 4f 01 00    	jmp    *0x14fa2(%rip)        # 18028 <_ZNSolsEPFRSt8ios_baseS0_E@GLIBCXX_3.4>
    3086:	68 05 00 00 00       	push   $0x5
    308b:	e9 90 ff ff ff       	jmp    3020 <_init+0x20>

0000000000003090 <_ZSt17__throw_bad_allocv@plt>:
    3090:	ff 25 9a 4f 01 00    	jmp    *0x14f9a(%rip)        # 18030 <_ZSt17__throw_bad_allocv@GLIBCXX_3.4>
    3096:	68 06 00 00 00       	push   $0x6
    309b:	e9 80 ff ff ff       	jmp    3020 <_init+0x20>

00000000000030a0 <__cxa_begin_catch@plt>:
    30a0:	ff 25 92 4f 01 00    	jmp    *0x14f92(%rip)        # 18038 <__cxa_begin_catch@CXXABI_1.3>
    30a6:	68 07 00 00 00       	push   $0x7
    30ab:	e9 70 ff ff ff       	jmp    3020 <_init+0x20>

00000000000030b0 <_ZNKSt7__cxx1112basic_stringIcSt11char_traitsIcESaIcEE5c_strEv@plt>:
    30b0:	ff 25 8a 4f 01 00    	jmp    *0x14f8a(%rip)        # 18040 <_ZNKSt7__cxx1112basic_stringIcSt11char_traitsIcESaIcEE5c_strEv@GLIBCXX_3.4.21>
    30b6:	68 08 00 00 00       	push   $0x8
    30bb:	e9 60 ff ff ff       	jmp    3020 <_init+0x20>

00000000000030c0 <strlen@plt>:
    30c0:	ff 25 82 4f 01 00    	jmp    *0x14f82(%rip)        # 18048 <strlen@GLIBC_2.2.5>
    30c6:	68 09 00 00 00       	push   $0x9
    30cb:	e9 50 ff ff ff       	jmp    3020 <_init+0x20>

00000000000030d0 <memcmp@plt>:
    30d0:	ff 25 7a 4f 01 00    	jmp    *0x14f7a(%rip)        # 18050 <memcmp@GLIBC_2.2.5>
    30d6:	68 0a 00 00 00       	push   $0xa
    30db:	e9 40 ff ff ff       	jmp    3020 <_init+0x20>

00000000000030e0 <_ZNKSt9basic_iosIcSt11char_traitsIcEEntEv@plt>:
    30e0:	ff 25 72 4f 01 00    	jmp    *0x14f72(%rip)        # 18058 <_ZNKSt9basic_iosIcSt11char_traitsIcEEntEv@GLIBCXX_3.4>
    30e6:	68 0b 00 00 00       	push   $0xb
    30eb:	e9 30 ff ff ff       	jmp    3020 <_init+0x20>

00000000000030f0 <_ZNSt7__cxx1119basic_istringstreamIcSt11char_traitsIcESaIcEED1Ev@plt>:
    30f0:	ff 25 6a 4f 01 00    	jmp    *0x14f6a(%rip)        # 18060 <_ZNSt7__cxx1119basic_istringstreamIcSt11char_traitsIcESaIcEED1Ev@GLIBCXX_3.4.21>
    30f6:	68 0c 00 00 00       	push   $0xc
    30fb:	e9 20 ff ff ff       	jmp    3020 <_init+0x20>

0000000000003100 <_ZSt20__throw_length_errorPKc@plt>:
    3100:	ff 25 62 4f 01 00    	jmp    *0x14f62(%rip)        # 18068 <_ZSt20__throw_length_errorPKc@GLIBCXX_3.4>
    3106:	68 0d 00 00 00       	push   $0xd
    310b:	e9 10 ff ff ff       	jmp    3020 <_init+0x20>

0000000000003110 <memset@plt>:
    3110:	ff 25 5a 4f 01 00    	jmp    *0x14f5a(%rip)        # 18070 <memset@GLIBC_2.2.5>
    3116:	68 0e 00 00 00       	push   $0xe
    311b:	e9 00 ff ff ff       	jmp    3020 <_init+0x20>

0000000000003120 <_ZNSt7__cxx1112basic_stringIcSt11char_traitsIcESaIcEEC1EOS4_@plt>:
    3120:	ff 25 52 4f 01 00    	jmp    *0x14f52(%rip)        # 18078 <_ZNSt7__cxx1112basic_stringIcSt11char_traitsIcESaIcEEC1EOS4_@GLIBCXX_3.4.21>
    3126:	68 0f 00 00 00       	push   $0xf
    312b:	e9 f0 fe ff ff       	jmp    3020 <_init+0x20>

0000000000003130 <_ZSt24__throw_invalid_argumentPKc@plt>:
    3130:	ff 25 4a 4f 01 00    	jmp    *0x14f4a(%rip)        # 18080 <_ZSt24__throw_invalid_argumentPKc@GLIBCXX_3.4>
    3136:	68 10 00 00 00       	push   $0x10
    313b:	e9 e0 fe ff ff       	jmp    3020 <_init+0x20>

0000000000003140 <_ZNSt7__cxx1112basic_stringIcSt11char_traitsIcESaIcEEpLEc@plt>:
    3140:	ff 25 42 4f 01 00    	jmp    *0x14f42(%rip)        # 18088 <_ZNSt7__cxx1112basic_stringIcSt11char_traitsIcESaIcEEpLEc@GLIBCXX_3.4.21>
    3146:	68 11 00 00 00       	push   $0x11
    314b:	e9 d0 fe ff ff       	jmp    3020 <_init+0x20>

0000000000003150 <__cxa_guard_abort@plt>:
    3150:	ff 25 3a 4f 01 00    	jmp    *0x14f3a(%rip)        # 18090 <__cxa_guard_abort@CXXABI_1.3>
    3156:	68 12 00 00 00       	push   $0x12
    315b:	e9 c0 fe ff ff       	jmp    3020 <_init+0x20>

0000000000003160 <__cxa_guard_release@plt>:
    3160:	ff 25 32 4f 01 00    	jmp    *0x14f32(%rip)        # 18098 <__cxa_guard_release@CXXABI_1.3>
    3166:	68 13 00 00 00       	push   $0x13
    316b:	e9 b0 fe ff ff       	jmp    3020 <_init+0x20>

0000000000003170 <_ZNSt7__cxx1112basic_stringIcSt11char_traitsIcESaIcEE13_M_set_lengthEm@plt>:
    3170:	ff 25 2a 4f 01 00    	jmp    *0x14f2a(%rip)        # 180a0 <_ZNSt7__cxx1112basic_stringIcSt11char_traitsIcESaIcEE13_M_set_lengthEm@GLIBCXX_3.4.21>
    3176:	68 14 00 00 00       	push   $0x14
    317b:	e9 a0 fe ff ff       	jmp    3020 <_init+0x20>

0000000000003180 <_ZNKSt7__cxx1112basic_stringIcSt11char_traitsIcESaIcEE4sizeEv@plt>:
    3180:	ff 25 22 4f 01 00    	jmp    *0x14f22(%rip)        # 180a8 <_ZNKSt7__cxx1112basic_stringIcSt11char_traitsIcESaIcEE4sizeEv@GLIBCXX_3.4.21>
    3186:	68 15 00 00 00       	push   $0x15
    318b:	e9 90 fe ff ff       	jmp    3020 <_init+0x20>

0000000000003190 <_ZNKSt8__detail20_Prime_rehash_policy11_M_next_bktEm@plt>:
    3190:	ff 25 1a 4f 01 00    	jmp    *0x14f1a(%rip)        # 180b0 <_ZNKSt8__detail20_Prime_rehash_policy11_M_next_bktEm@GLIBCXX_3.4.18>
    3196:	68 16 00 00 00       	push   $0x16
    319b:	e9 80 fe ff ff       	jmp    3020 <_init+0x20>

00000000000031a0 <_ZSt19__throw_logic_errorPKc@plt>:
    31a0:	ff 25 12 4f 01 00    	jmp    *0x14f12(%rip)        # 180b8 <_ZSt19__throw_logic_errorPKc@GLIBCXX_3.4>
    31a6:	68 17 00 00 00       	push   $0x17
    31ab:	e9 70 fe ff ff       	jmp    3020 <_init+0x20>

00000000000031b0 <_ZSt28__throw_bad_array_new_lengthv@plt>:
    31b0:	ff 25 0a 4f 01 00    	jmp    *0x14f0a(%rip)        # 180c0 <_ZSt28__throw_bad_array_new_lengthv@GLIBCXX_3.4.29>
    31b6:	68 18 00 00 00       	push   $0x18
    31bb:	e9 60 fe ff ff       	jmp    3020 <_init+0x20>

00000000000031c0 <_ZNSt7__cxx1112basic_stringIcSt11char_traitsIcESaIcEE13_M_local_dataEv@plt>:
    31c0:	ff 25 02 4f 01 00    	jmp    *0x14f02(%rip)        # 180c8 <_ZNSt7__cxx1112basic_stringIcSt11char_traitsIcESaIcEE13_M_local_dataEv@GLIBCXX_3.4.21>
    31c6:	68 19 00 00 00       	push   $0x19
    31cb:	e9 50 fe ff ff       	jmp    3020 <_init+0x20>

00000000000031d0 <memcpy@plt>:
    31d0:	ff 25 fa 4e 01 00    	jmp    *0x14efa(%rip)        # 180d0 <memcpy@GLIBC_2.14>
    31d6:	68 1a 00 00 00       	push   $0x1a
    31db:	e9 40 fe ff ff       	jmp    3020 <_init+0x20>

00000000000031e0 <_ZNSt7__cxx1112basic_stringIcSt11char_traitsIcESaIcEE7_M_dataEPc@plt>:
    31e0:	ff 25 f2 4e 01 00    	jmp    *0x14ef2(%rip)        # 180d8 <_ZNSt7__cxx1112basic_stringIcSt11char_traitsIcESaIcEE7_M_dataEPc@GLIBCXX_3.4.21>
    31e6:	68 1b 00 00 00       	push   $0x1b
    31eb:	e9 30 fe ff ff       	jmp    3020 <_init+0x20>

00000000000031f0 <_ZNSt7__cxx1112basic_stringIcSt11char_traitsIcESaIcEE9push_backEc@plt>:
    31f0:	ff 25 ea 4e 01 00    	jmp    *0x14eea(%rip)        # 180e0 <_ZNSt7__cxx1112basic_stringIcSt11char_traitsIcESaIcEE9push_backEc@GLIBCXX_3.4.21>
    31f6:	68 1c 00 00 00       	push   $0x1c
    31fb:	e9 20 fe ff ff       	jmp    3020 <_init+0x20>

0000000000003200 <__cxa_atexit@plt>:
    3200:	ff 25 e2 4e 01 00    	jmp    *0x14ee2(%rip)        # 180e8 <__cxa_atexit@GLIBC_2.2.5>
    3206:	68 1d 00 00 00       	push   $0x1d
    320b:	e9 10 fe ff ff       	jmp    3020 <_init+0x20>

0000000000003210 <_ZStlsIcSt11char_traitsIcESaIcEERSt13basic_ostreamIT_T0_ES7_RKNSt7__cxx1112basic_stringIS4_S5_T1_EE@plt>:
    3210:	ff 25 da 4e 01 00    	jmp    *0x14eda(%rip)        # 180f0 <_ZStlsIcSt11char_traitsIcESaIcEERSt13basic_ostreamIT_T0_ES7_RKNSt7__cxx1112basic_stringIS4_S5_T1_EE@GLIBCXX_3.4.21>
    3216:	68 1e 00 00 00       	push   $0x1e
    321b:	e9 00 fe ff ff       	jmp    3020 <_init+0x20>

0000000000003220 <_ZStlsISt11char_traitsIcEERSt13basic_ostreamIcT_ES5_PKc@plt>:
    3220:	ff 25 d2 4e 01 00    	jmp    *0x14ed2(%rip)        # 180f8 <_ZStlsISt11char_traitsIcEERSt13basic_ostreamIcT_ES5_PKc@GLIBCXX_3.4>
    3226:	68 1f 00 00 00       	push   $0x1f
    322b:	e9 f0 fd ff ff       	jmp    3020 <_init+0x20>

0000000000003230 <_Znwm@plt>:
    3230:	ff 25 ca 4e 01 00    	jmp    *0x14eca(%rip)        # 18100 <_Znwm@GLIBCXX_3.4>
    3236:	68 20 00 00 00       	push   $0x20
    323b:	e9 e0 fd ff ff       	jmp    3020 <_init+0x20>

0000000000003240 <_ZdlPvm@plt>:
    3240:	ff 25 c2 4e 01 00    	jmp    *0x14ec2(%rip)        # 18108 <_ZdlPvm@CXXABI_1.3.9>
    3246:	68 21 00 00 00       	push   $0x21
    324b:	e9 d0 fd ff ff       	jmp    3020 <_init+0x20>

0000000000003250 <_ZNSolsEPFRSoS_E@plt>:
    3250:	ff 25 ba 4e 01 00    	jmp    *0x14eba(%rip)        # 18110 <_ZNSolsEPFRSoS_E@GLIBCXX_3.4>
    3256:	68 22 00 00 00       	push   $0x22
    325b:	e9 c0 fd ff ff       	jmp    3020 <_init+0x20>

0000000000003260 <_ZNSt7__cxx1112basic_stringIcSt11char_traitsIcESaIcEE12_Alloc_hiderC1EPcRKS3_@plt>:
    3260:	ff 25 b2 4e 01 00    	jmp    *0x14eb2(%rip)        # 18118 <_ZNSt7__cxx1112basic_stringIcSt11char_traitsIcESaIcEE12_Alloc_hiderC1EPcRKS3_@GLIBCXX_3.4.21>
    3266:	68 23 00 00 00       	push   $0x23
    326b:	e9 b0 fd ff ff       	jmp    3020 <_init+0x20>

0000000000003270 <_ZNKSt7__cxx1112basic_stringIcSt11char_traitsIcESaIcEE7_M_dataEv@plt>:
    3270:	ff 25 aa 4e 01 00    	jmp    *0x14eaa(%rip)        # 18120 <_ZNKSt7__cxx1112basic_stringIcSt11char_traitsIcESaIcEE7_M_dataEv@GLIBCXX_3.4.21>
    3276:	68 24 00 00 00       	push   $0x24
    327b:	e9 a0 fd ff ff       	jmp    3020 <_init+0x20>

0000000000003280 <_ZNKSt7__cxx1112basic_stringIcSt11char_traitsIcESaIcEEixEm@plt>:
    3280:	ff 25 a2 4e 01 00    	jmp    *0x14ea2(%rip)        # 18128 <_ZNKSt7__cxx1112basic_stringIcSt11char_traitsIcESaIcEEixEm@GLIBCXX_3.4.21>
    3286:	68 25 00 00 00       	push   $0x25
    328b:	e9 90 fd ff ff       	jmp    3020 <_init+0x20>

0000000000003290 <_ZNSt7__cxx1112basic_stringIcSt11char_traitsIcESaIcEE13_S_copy_charsEPcPKcS7_@plt>:
    3290:	ff 25 9a 4e 01 00    	jmp    *0x14e9a(%rip)        # 18130 <_ZNSt7__cxx1112basic_stringIcSt11char_traitsIcESaIcEE13_S_copy_charsEPcPKcS7_@GLIBCXX_3.4.21>
    3296:	68 26 00 00 00       	push   $0x26
    329b:	e9 80 fd ff ff       	jmp    3020 <_init+0x20>

00000000000032a0 <__stack_chk_fail@plt>:
    32a0:	ff 25 92 4e 01 00    	jmp    *0x14e92(%rip)        # 18138 <__stack_chk_fail@GLIBC_2.4>
    32a6:	68 27 00 00 00       	push   $0x27
    32ab:	e9 70 fd ff ff       	jmp    3020 <_init+0x20>

00000000000032b0 <_ZNSt7__cxx1112basic_stringIcSt11char_traitsIcESaIcEEC1ESt16initializer_listIcERKS3_@plt>:
    32b0:	ff 25 8a 4e 01 00    	jmp    *0x14e8a(%rip)        # 18140 <_ZNSt7__cxx1112basic_stringIcSt11char_traitsIcESaIcEEC1ESt16initializer_listIcERKS3_@GLIBCXX_3.4.21>
    32b6:	68 28 00 00 00       	push   $0x28
    32bb:	e9 60 fd ff ff       	jmp    3020 <_init+0x20>

00000000000032c0 <_ZStlsISt11char_traitsIcEERSt13basic_ostreamIcT_ES5_c@plt>:
    32c0:	ff 25 82 4e 01 00    	jmp    *0x14e82(%rip)        # 18148 <_ZStlsISt11char_traitsIcEERSt13basic_ostreamIcT_ES5_c@GLIBCXX_3.4>
    32c6:	68 29 00 00 00       	push   $0x29
    32cb:	e9 50 fd ff ff       	jmp    3020 <_init+0x20>

00000000000032d0 <exit@plt>:
    32d0:	ff 25 7a 4e 01 00    	jmp    *0x14e7a(%rip)        # 18150 <exit@GLIBC_2.2.5>
    32d6:	68 2a 00 00 00       	push   $0x2a
    32db:	e9 40 fd ff ff       	jmp    3020 <_init+0x20>

00000000000032e0 <_ZNSt7__cxx1112basic_stringIcSt11char_traitsIcESaIcEE10_M_disposeEv@plt>:
    32e0:	ff 25 72 4e 01 00    	jmp    *0x14e72(%rip)        # 18158 <_ZNSt7__cxx1112basic_stringIcSt11char_traitsIcESaIcEE10_M_disposeEv@GLIBCXX_3.4.21>
    32e6:	68 2b 00 00 00       	push   $0x2b
    32eb:	e9 30 fd ff ff       	jmp    3020 <_init+0x20>

00000000000032f0 <_ZStrsIcSt11char_traitsIcESaIcEERSt13basic_istreamIT_T0_ES7_RNSt7__cxx1112basic_stringIS4_S5_T1_EE@plt>:
    32f0:	ff 25 6a 4e 01 00    	jmp    *0x14e6a(%rip)        # 18160 <_ZStrsIcSt11char_traitsIcESaIcEERSt13basic_istreamIT_T0_ES7_RNSt7__cxx1112basic_stringIS4_S5_T1_EE@GLIBCXX_3.4.21>
    32f6:	68 2c 00 00 00       	push   $0x2c
    32fb:	e9 20 fd ff ff       	jmp    3020 <_init+0x20>

0000000000003300 <_ZNKSt7__cxx1112basic_stringIcSt11char_traitsIcESaIcEE4dataEv@plt>:
    3300:	ff 25 62 4e 01 00    	jmp    *0x14e62(%rip)        # 18168 <_ZNKSt7__cxx1112basic_stringIcSt11char_traitsIcESaIcEE4dataEv@GLIBCXX_3.4.21>
    3306:	68 2d 00 00 00       	push   $0x2d
    330b:	e9 10 fd ff ff       	jmp    3020 <_init+0x20>

0000000000003310 <_ZNKSt7__cxx1112basic_stringIcSt11char_traitsIcESaIcEE4findEcm@plt>:
    3310:	ff 25 5a 4e 01 00    	jmp    *0x14e5a(%rip)        # 18170 <_ZNKSt7__cxx1112basic_stringIcSt11char_traitsIcESaIcEE4findEcm@GLIBCXX_3.4.21>
    3316:	68 2e 00 00 00       	push   $0x2e
    331b:	e9 00 fd ff ff       	jmp    3020 <_init+0x20>

0000000000003320 <_ZNSt7__cxx1112basic_stringIcSt11char_traitsIcESaIcEE5clearEv@plt>:
    3320:	ff 25 52 4e 01 00    	jmp    *0x14e52(%rip)        # 18178 <_ZNSt7__cxx1112basic_stringIcSt11char_traitsIcESaIcEE5clearEv@GLIBCXX_3.4.21>
    3326:	68 2f 00 00 00       	push   $0x2f
    332b:	e9 f0 fc ff ff       	jmp    3020 <_init+0x20>

0000000000003330 <_ZNKSt8__detail20_Prime_rehash_policy14_M_need_rehashEmmm@plt>:
    3330:	ff 25 4a 4e 01 00    	jmp    *0x14e4a(%rip)        # 18180 <_ZNKSt8__detail20_Prime_rehash_policy14_M_need_rehashEmmm@GLIBCXX_3.4.18>
    3336:	68 30 00 00 00       	push   $0x30
    333b:	e9 e0 fc ff ff       	jmp    3020 <_init+0x20>

0000000000003340 <_ZNSt7__cxx1112basic_stringIcSt11char_traitsIcESaIcEEC1Ev@plt>:
    3340:	ff 25 42 4e 01 00    	jmp    *0x14e42(%rip)        # 18188 <_ZNSt7__cxx1112basic_stringIcSt11char_traitsIcESaIcEEC1Ev@GLIBCXX_3.4.21>
    3346:	68 31 00 00 00       	push   $0x31
    334b:	e9 d0 fc ff ff       	jmp    3020 <_init+0x20>

0000000000003350 <_ZSt20__throw_out_of_rangePKc@plt>:
    3350:	ff 25 3a 4e 01 00    	jmp    *0x14e3a(%rip)        # 18190 <_ZSt20__throw_out_of_rangePKc@GLIBCXX_3.4>
    3356:	68 32 00 00 00       	push   $0x32
    335b:	e9 c0 fc ff ff       	jmp    3020 <_init+0x20>

0000000000003360 <__cxa_rethrow@plt>:
    3360:	ff 25 32 4e 01 00    	jmp    *0x14e32(%rip)        # 18198 <__cxa_rethrow@CXXABI_1.3>
    3366:	68 33 00 00 00       	push   $0x33
    336b:	e9 b0 fc ff ff       	jmp    3020 <_init+0x20>

0000000000003370 <_ZNSt7__cxx1112basic_stringIcSt11char_traitsIcESaIcEE6insertEmRKS4_@plt>:
    3370:	ff 25 2a 4e 01 00    	jmp    *0x14e2a(%rip)        # 181a0 <_ZNSt7__cxx1112basic_stringIcSt11char_traitsIcESaIcEE6insertEmRKS4_@GLIBCXX_3.4.21>
    3376:	68 34 00 00 00       	push   $0x34
    337b:	e9 a0 fc ff ff       	jmp    3020 <_init+0x20>

0000000000003380 <__cxa_end_catch@plt>:
    3380:	ff 25 22 4e 01 00    	jmp    *0x14e22(%rip)        # 181a8 <__cxa_end_catch@CXXABI_1.3>
    3386:	68 35 00 00 00       	push   $0x35
    338b:	e9 90 fc ff ff       	jmp    3020 <_init+0x20>

0000000000003390 <_ZNKSt7__cxx1112basic_stringIcSt11char_traitsIcESaIcEE5emptyEv@plt>:
    3390:	ff 25 1a 4e 01 00    	jmp    *0x14e1a(%rip)        # 181b0 <_ZNKSt7__cxx1112basic_stringIcSt11char_traitsIcESaIcEE5emptyEv@GLIBCXX_3.4.21>
    3396:	68 36 00 00 00       	push   $0x36
    339b:	e9 80 fc ff ff       	jmp    3020 <_init+0x20>

00000000000033a0 <_ZNSirsEPFRSt8ios_baseS0_E@plt>:
    33a0:	ff 25 12 4e 01 00    	jmp    *0x14e12(%rip)        # 181b8 <_ZNSirsEPFRSt8ios_baseS0_E@GLIBCXX_3.4>
    33a6:	68 37 00 00 00       	push   $0x37
    33ab:	e9 70 fc ff ff       	jmp    3020 <_init+0x20>

00000000000033b0 <_ZNSt7__cxx1119basic_istringstreamIcSt11char_traitsIcESaIcEEC1ERKNS_12basic_stringIcS2_S3_EESt13_Ios_Openmode@plt>:
    33b0:	ff 25 0a 4e 01 00    	jmp    *0x14e0a(%rip)        # 181c0 <_ZNSt7__cxx1119basic_istringstreamIcSt11char_traitsIcESaIcEEC1ERKNS_12basic_stringIcS2_S3_EESt13_Ios_Openmode@GLIBCXX_3.4.21>
    33b6:	68 38 00 00 00       	push   $0x38
    33bb:	e9 60 fc ff ff       	jmp    3020 <_init+0x20>

00000000000033c0 <_ZNSolsEi@plt>:
    33c0:	ff 25 02 4e 01 00    	jmp    *0x14e02(%rip)        # 181c8 <_ZNSolsEi@GLIBCXX_3.4>
    33c6:	68 39 00 00 00       	push   $0x39
    33cb:	e9 50 fc ff ff       	jmp    3020 <_init+0x20>

00000000000033d0 <_Unwind_Resume@plt>:
    33d0:	ff 25 fa 4d 01 00    	jmp    *0x14dfa(%rip)        # 181d0 <_Unwind_Resume@GCC_3.0>
    33d6:	68 3a 00 00 00       	push   $0x3a
    33db:	e9 40 fc ff ff       	jmp    3020 <_init+0x20>

00000000000033e0 <_ZNSt7__cxx1112basic_stringIcSt11char_traitsIcESaIcEE9_M_createERmm@plt>:
    33e0:	ff 25 f2 4d 01 00    	jmp    *0x14df2(%rip)        # 181d8 <_ZNSt7__cxx1112basic_stringIcSt11char_traitsIcESaIcEE9_M_createERmm@GLIBCXX_3.4.21>
    33e6:	68 3b 00 00 00       	push   $0x3b
    33eb:	e9 30 fc ff ff       	jmp    3020 <_init+0x20>

00000000000033f0 <__cxa_guard_acquire@plt>:
    33f0:	ff 25 ea 4d 01 00    	jmp    *0x14dea(%rip)        # 181e0 <__cxa_guard_acquire@CXXABI_1.3>
    33f6:	68 3c 00 00 00       	push   $0x3c
    33fb:	e9 20 fc ff ff       	jmp    3020 <_init+0x20>

0000000000003400 <_ZNSt7__cxx1112basic_stringIcSt11char_traitsIcESaIcEE6appendERKS4_@plt>:
    3400:	ff 25 e2 4d 01 00    	jmp    *0x14de2(%rip)        # 181e8 <_ZNSt7__cxx1112basic_stringIcSt11char_traitsIcESaIcEE6appendERKS4_@GLIBCXX_3.4.21>
    3406:	68 3d 00 00 00       	push   $0x3d
    340b:	e9 10 fc ff ff       	jmp    3020 <_init+0x20>

0000000000003410 <_ZNSt7__cxx1112basic_stringIcSt11char_traitsIcESaIcEE11_M_capacityEm@plt>:
    3410:	ff 25 da 4d 01 00    	jmp    *0x14dda(%rip)        # 181f0 <_ZNSt7__cxx1112basic_stringIcSt11char_traitsIcESaIcEE11_M_capacityEm@GLIBCXX_3.4.21>
    3416:	68 3e 00 00 00       	push   $0x3e
    341b:	e9 00 fc ff ff       	jmp    3020 <_init+0x20>

0000000000003420 <_ZNSt7__cxx1112basic_stringIcSt11char_traitsIcESaIcEEixEm@plt>:
    3420:	ff 25 d2 4d 01 00    	jmp    *0x14dd2(%rip)        # 181f8 <_ZNSt7__cxx1112basic_stringIcSt11char_traitsIcESaIcEEixEm@GLIBCXX_3.4.21>
    3426:	68 3f 00 00 00       	push   $0x3f
    342b:	e9 f0 fb ff ff       	jmp    3020 <_init+0x20>

Disassembly of section .plt.got:

0000000000003430 <_ZNSt7__cxx1112basic_stringIcSt11char_traitsIcESaIcEED1Ev@plt>:
    3430:	ff 25 82 4b 01 00    	jmp    *0x14b82(%rip)        # 17fb8 <_ZNSt7__cxx1112basic_stringIcSt11char_traitsIcESaIcEED1Ev@GLIBCXX_3.4.21>
    3436:	66 90                	xchg   %ax,%ax

Disassembly of section .text:

0000000000003440 <_start>:
    3440:	f3 0f 1e fa          	endbr64
    3444:	31 ed                	xor    %ebp,%ebp
    3446:	49 89 d1             	mov    %rdx,%r9
    3449:	5e                   	pop    %rsi
    344a:	48 89 e2             	mov    %rsp,%rdx
    344d:	48 83 e4 f0          	and    $0xfffffffffffffff0,%rsp
    3451:	50                   	push   %rax
    3452:	54                   	push   %rsp
    3453:	45 31 c0             	xor    %r8d,%r8d
    3456:	31 c9                	xor    %ecx,%ecx
    3458:	48 8d 3d b1 8e 00 00 	lea    0x8eb1(%rip),%rdi        # c310 <main>
    345f:	ff 15 5b 4b 01 00    	call   *0x14b5b(%rip)        # 17fc0 <__libc_start_main@GLIBC_2.34>
    3465:	f4                   	hlt
    3466:	66 2e 0f 1f 84 00 00 	cs nopw 0x0(%rax,%rax,1)
    346d:	00 00 00 
    3470:	48 8d 3d b1 51 01 00 	lea    0x151b1(%rip),%rdi        # 18628 <__TMC_END__>
    3477:	48 8d 05 aa 51 01 00 	lea    0x151aa(%rip),%rax        # 18628 <__TMC_END__>
    347e:	48 39 f8             	cmp    %rdi,%rax
    3481:	74 15                	je     3498 <_start+0x58>
    3483:	48 8b 05 46 4b 01 00 	mov    0x14b46(%rip),%rax        # 17fd0 <_ITM_deregisterTMCloneTable@Base>
    348a:	48 85 c0             	test   %rax,%rax
    348d:	74 09                	je     3498 <_start+0x58>
    348f:	ff e0                	jmp    *%rax
    3491:	0f 1f 80 00 00 00 00 	nopl   0x0(%rax)
    3498:	c3                   	ret
    3499:	0f 1f 80 00 00 00 00 	nopl   0x0(%rax)
    34a0:	48 8d 3d 81 51 01 00 	lea    0x15181(%rip),%rdi        # 18628 <__TMC_END__>
    34a7:	48 8d 35 7a 51 01 00 	lea    0x1517a(%rip),%rsi        # 18628 <__TMC_END__>
    34ae:	48 29 fe             	sub    %rdi,%rsi
    34b1:	48 89 f0             	mov    %rsi,%rax
    34b4:	48 c1 ee 3f          	shr    $0x3f,%rsi
    34b8:	48 c1 f8 03          	sar    $0x3,%rax
    34bc:	48 01 c6             	add    %rax,%rsi
    34bf:	48 d1 fe             	sar    %rsi
    34c2:	74 14                	je     34d8 <_start+0x98>
    34c4:	48 8b 05 15 4b 01 00 	mov    0x14b15(%rip),%rax        # 17fe0 <_ITM_registerTMCloneTable@Base>
    34cb:	48 85 c0             	test   %rax,%rax
    34ce:	74 08                	je     34d8 <_start+0x98>
    34d0:	ff e0                	jmp    *%rax
    34d2:	66 0f 1f 44 00 00    	nopw   0x0(%rax,%rax,1)
    34d8:	c3                   	ret
    34d9:	0f 1f 80 00 00 00 00 	nopl   0x0(%rax)
    34e0:	f3 0f 1e fa          	endbr64
    34e4:	80 3d 8d 53 01 00 00 	cmpb   $0x0,0x1538d(%rip)        # 18878 <_ZSt3cin@GLIBCXX_3.4+0x118>
    34eb:	75 33                	jne    3520 <_start+0xe0>
    34ed:	55                   	push   %rbp
    34ee:	48 83 3d b2 4a 01 00 	cmpq   $0x0,0x14ab2(%rip)        # 17fa8 <__cxa_finalize@GLIBC_2.2.5>
    34f5:	00 
    34f6:	48 89 e5             	mov    %rsp,%rbp
    34f9:	74 0d                	je     3508 <_start+0xc8>
    34fb:	48 8b 3d 06 4d 01 00 	mov    0x14d06(%rip),%rdi        # 18208 <__dso_handle>
    3502:	ff 15 a0 4a 01 00    	call   *0x14aa0(%rip)        # 17fa8 <__cxa_finalize@GLIBC_2.2.5>
    3508:	e8 63 ff ff ff       	call   3470 <_start+0x30>
    350d:	c6 05 64 53 01 00 01 	movb   $0x1,0x15364(%rip)        # 18878 <_ZSt3cin@GLIBCXX_3.4+0x118>
    3514:	5d                   	pop    %rbp
    3515:	c3                   	ret
    3516:	66 2e 0f 1f 84 00 00 	cs nopw 0x0(%rax,%rax,1)
    351d:	00 00 00 
    3520:	c3                   	ret
    3521:	66 66 2e 0f 1f 84 00 	data16 cs nopw 0x0(%rax,%rax,1)
    3528:	00 00 00 00 
    352c:	0f 1f 40 00          	nopl   0x0(%rax)
    3530:	f3 0f 1e fa          	endbr64
    3534:	e9 67 ff ff ff       	jmp    34a0 <_start+0x60>

0000000000003539 <_Z17init_leap_attacksv>:
    3539:	55                   	push   %rbp
    353a:	48 89 e5             	mov    %rsp,%rbp
    353d:	48 83 ec 20          	sub    $0x20,%rsp
    3541:	c7 45 ec 00 00 00 00 	movl   $0x0,-0x14(%rbp)
    3548:	eb 3b                	jmp    3585 <_Z17init_leap_attacksv+0x4c>
    354a:	8b 45 ec             	mov    -0x14(%rbp),%eax
    354d:	48 98                	cltq
    354f:	48 8d 14 c5 00 00 00 	lea    0x0(,%rax,8),%rdx
    3556:	00 
    3557:	48 8d 05 22 57 01 00 	lea    0x15722(%rip),%rax        # 18c80 <knight_attacks>
    355e:	48 c7 04 02 00 00 00 	movq   $0x0,(%rdx,%rax,1)
    3565:	00 
    3566:	8b 45 ec             	mov    -0x14(%rbp),%eax
    3569:	48 98                	cltq
    356b:	48 8d 14 c5 00 00 00 	lea    0x0(,%rax,8),%rdx
    3572:	00 
    3573:	48 8d 05 06 59 01 00 	lea    0x15906(%rip),%rax        # 18e80 <king_attacks>
    357a:	48 c7 04 02 00 00 00 	movq   $0x0,(%rdx,%rax,1)
    3581:	00 
    3582:	ff 45 ec             	incl   -0x14(%rbp)
    3585:	83 7d ec 3f          	cmpl   $0x3f,-0x14(%rbp)
    3589:	7e bf                	jle    354a <_Z17init_leap_attacksv+0x11>
    358b:	c7 45 f0 00 00 00 00 	movl   $0x0,-0x10(%rbp)
    3592:	e9 2c 02 00 00       	jmp    37c3 <_Z17init_leap_attacksv+0x28a>
    3597:	8b 45 f0             	mov    -0x10(%rbp),%eax
    359a:	ba 01 00 00 00       	mov    $0x1,%edx
    359f:	c4 e2 f9 f7 c2       	shlx   %rax,%rdx,%rax
    35a4:	48 89 45 f8          	mov    %rax,-0x8(%rbp)
    35a8:	48 8b 45 f8          	mov    -0x8(%rbp),%rax
    35ac:	48 89 c7             	mov    %rax,%rdi
    35af:	e8 1b 0c 00 00       	call   41cf <_Z7n_shiftm>
    35b4:	8b 55 f0             	mov    -0x10(%rbp),%edx
    35b7:	48 63 d2             	movslq %edx,%rdx
    35ba:	48 8d 0c d5 00 00 00 	lea    0x0(,%rdx,8),%rcx
    35c1:	00 
    35c2:	48 8d 15 b7 58 01 00 	lea    0x158b7(%rip),%rdx        # 18e80 <king_attacks>
    35c9:	48 8b 14 11          	mov    (%rcx,%rdx,1),%rdx
    35cd:	48 09 d0             	or     %rdx,%rax
    35d0:	48 89 c1             	mov    %rax,%rcx
    35d3:	8b 45 f0             	mov    -0x10(%rbp),%eax
    35d6:	48 98                	cltq
    35d8:	48 8d 14 c5 00 00 00 	lea    0x0(,%rax,8),%rdx
    35df:	00 
    35e0:	48 8d 05 99 58 01 00 	lea    0x15899(%rip),%rax        # 18e80 <king_attacks>
    35e7:	48 89 0c 02          	mov    %rcx,(%rdx,%rax,1)
    35eb:	48 8b 45 f8          	mov    -0x8(%rbp),%rax
    35ef:	48 89 c7             	mov    %rax,%rdi
    35f2:	e8 3c 0c 00 00       	call   4233 <_Z8ne_shiftm>
    35f7:	8b 55 f0             	mov    -0x10(%rbp),%edx
    35fa:	48 63 d2             	movslq %edx,%rdx
    35fd:	48 8d 0c d5 00 00 00 	lea    0x0(,%rdx,8),%rcx
    3604:	00 
    3605:	48 8d 15 74 58 01 00 	lea    0x15874(%rip),%rdx        # 18e80 <king_attacks>
    360c:	48 8b 14 11          	mov    (%rcx,%rdx,1),%rdx
    3610:	48 09 d0             	or     %rdx,%rax
    3613:	48 89 c1             	mov    %rax,%rcx
    3616:	8b 45 f0             	mov    -0x10(%rbp),%eax
    3619:	48 98                	cltq
    361b:	48 8d 14 c5 00 00 00 	lea    0x0(,%rax,8),%rdx
    3622:	00 
    3623:	48 8d 05 56 58 01 00 	lea    0x15856(%rip),%rax        # 18e80 <king_attacks>
    362a:	48 89 0c 02          	mov    %rcx,(%rdx,%rax,1)
    362e:	48 8b 45 f8          	mov    -0x8(%rbp),%rax
    3632:	48 89 c7             	mov    %rax,%rdi
    3635:	e8 b9 0b 00 00       	call   41f3 <_Z7e_shiftm>
    363a:	8b 55 f0             	mov    -0x10(%rbp),%edx
    363d:	48 63 d2             	movslq %edx,%rdx
    3640:	48 8d 0c d5 00 00 00 	lea    0x0(,%rdx,8),%rcx
    3647:	00 
    3648:	48 8d 15 31 58 01 00 	lea    0x15831(%rip),%rdx        # 18e80 <king_attacks>
    364f:	48 8b 14 11          	mov    (%rcx,%rdx,1),%rdx
    3653:	48 09 d0             	or     %rdx,%rax
    3656:	48 89 c1             	mov    %rax,%rcx
    3659:	8b 45 f0             	mov    -0x10(%rbp),%eax
    365c:	48 98                	cltq
    365e:	48 8d 14 c5 00 00 00 	lea    0x0(,%rax,8),%rdx
    3665:	00 
    3666:	48 8d 05 13 58 01 00 	lea    0x15813(%rip),%rax        # 18e80 <king_attacks>
    366d:	48 89 0c 02          	mov    %rcx,(%rdx,%rax,1)
    3671:	48 8b 45 f8          	mov    -0x8(%rbp),%rax
    3675:	48 89 c7             	mov    %rax,%rdi
    3678:	e8 d8 0b 00 00       	call   4255 <_Z8se_shiftm>
    367d:	8b 55 f0             	mov    -0x10(%rbp),%edx
    3680:	48 63 d2             	movslq %edx,%rdx
    3683:	48 8d 0c d5 00 00 00 	lea    0x0(,%rdx,8),%rcx
    368a:	00 
    368b:	48 8d 15 ee 57 01 00 	lea    0x157ee(%rip),%rdx        # 18e80 <king_attacks>
    3692:	48 8b 14 11          	mov    (%rcx,%rdx,1),%rdx
    3696:	48 09 d0             	or     %rdx,%rax
    3699:	48 89 c1             	mov    %rax,%rcx
    369c:	8b 45 f0             	mov    -0x10(%rbp),%eax
    369f:	48 98                	cltq
    36a1:	48 8d 14 c5 00 00 00 	lea    0x0(,%rax,8),%rdx
    36a8:	00 
    36a9:	48 8d 05 d0 57 01 00 	lea    0x157d0(%rip),%rax        # 18e80 <king_attacks>
    36b0:	48 89 0c 02          	mov    %rcx,(%rdx,%rax,1)
    36b4:	48 8b 45 f8          	mov    -0x8(%rbp),%rax
    36b8:	48 89 c7             	mov    %rax,%rdi
    36bb:	e8 21 0b 00 00       	call   41e1 <_Z7s_shiftm>
    36c0:	8b 55 f0             	mov    -0x10(%rbp),%edx
    36c3:	48 63 d2             	movslq %edx,%rdx
    36c6:	48 8d 0c d5 00 00 00 	lea    0x0(,%rdx,8),%rcx
    36cd:	00 
    36ce:	48 8d 15 ab 57 01 00 	lea    0x157ab(%rip),%rdx        # 18e80 <king_attacks>
    36d5:	48 8b 14 11          	mov    (%rcx,%rdx,1),%rdx
    36d9:	48 09 d0             	or     %rdx,%rax
    36dc:	48 89 c1             	mov    %rax,%rcx
    36df:	8b 45 f0             	mov    -0x10(%rbp),%eax
    36e2:	48 98                	cltq
    36e4:	48 8d 14 c5 00 00 00 	lea    0x0(,%rax,8),%rdx
    36eb:	00 
    36ec:	48 8d 05 8d 57 01 00 	lea    0x1578d(%rip),%rax        # 18e80 <king_attacks>
    36f3:	48 89 0c 02          	mov    %rcx,(%rdx,%rax,1)
    36f7:	48 8b 45 f8          	mov    -0x8(%rbp),%rax
    36fb:	48 89 c7             	mov    %rax,%rdi
    36fe:	e8 74 0b 00 00       	call   4277 <_Z8sw_shiftm>
    3703:	8b 55 f0             	mov    -0x10(%rbp),%edx
    3706:	48 63 d2             	movslq %edx,%rdx
    3709:	48 8d 0c d5 00 00 00 	lea    0x0(,%rdx,8),%rcx
    3710:	00 
    3711:	48 8d 15 68 57 01 00 	lea    0x15768(%rip),%rdx        # 18e80 <king_attacks>
    3718:	48 8b 14 11          	mov    (%rcx,%rdx,1),%rdx
    371c:	48 09 d0             	or     %rdx,%rax
    371f:	48 89 c1             	mov    %rax,%rcx
    3722:	8b 45 f0             	mov    -0x10(%rbp),%eax
    3725:	48 98                	cltq
    3727:	48 8d 14 c5 00 00 00 	lea    0x0(,%rax,8),%rdx
    372e:	00 
    372f:	48 8d 05 4a 57 01 00 	lea    0x1574a(%rip),%rax        # 18e80 <king_attacks>
    3736:	48 89 0c 02          	mov    %rcx,(%rdx,%rax,1)
    373a:	48 8b 45 f8          	mov    -0x8(%rbp),%rax
    373e:	48 89 c7             	mov    %rax,%rdi
    3741:	e8 cc 0a 00 00       	call   4212 <_Z7w_shiftm>
    3746:	8b 55 f0             	mov    -0x10(%rbp),%edx
    3749:	48 63 d2             	movslq %edx,%rdx
    374c:	48 8d 0c d5 00 00 00 	lea    0x0(,%rdx,8),%rcx
    3753:	00 
    3754:	48 8d 15 25 57 01 00 	lea    0x15725(%rip),%rdx        # 18e80 <king_attacks>
    375b:	48 8b 14 11          	mov    (%rcx,%rdx,1),%rdx
    375f:	48 09 d0             	or     %rdx,%rax
    3762:	48 89 c1             	mov    %rax,%rcx
    3765:	8b 45 f0             	mov    -0x10(%rbp),%eax
    3768:	48 98                	cltq
    376a:	48 8d 14 c5 00 00 00 	lea    0x0(,%rax,8),%rdx
    3771:	00 
    3772:	48 8d 05 07 57 01 00 	lea    0x15707(%rip),%rax        # 18e80 <king_attacks>
    3779:	48 89 0c 02          	mov    %rcx,(%rdx,%rax,1)
    377d:	48 8b 45 f8          	mov    -0x8(%rbp),%rax
    3781:	48 89 c7             	mov    %rax,%rdi
    3784:	e8 10 0b 00 00       	call   4299 <_Z8nw_shiftm>
    3789:	8b 55 f0             	mov    -0x10(%rbp),%edx
    378c:	48 63 d2             	movslq %edx,%rdx
    378f:	48 8d 0c d5 00 00 00 	lea    0x0(,%rdx,8),%rcx
    3796:	00 
    3797:	48 8d 15 e2 56 01 00 	lea    0x156e2(%rip),%rdx        # 18e80 <king_attacks>
    379e:	48 8b 14 11          	mov    (%rcx,%rdx,1),%rdx
    37a2:	48 09 d0             	or     %rdx,%rax
    37a5:	48 89 c1             	mov    %rax,%rcx
    37a8:	8b 45 f0             	mov    -0x10(%rbp),%eax
    37ab:	48 98                	cltq
    37ad:	48 8d 14 c5 00 00 00 	lea    0x0(,%rax,8),%rdx
    37b4:	00 
    37b5:	48 8d 05 c4 56 01 00 	lea    0x156c4(%rip),%rax        # 18e80 <king_attacks>
    37bc:	48 89 0c 02          	mov    %rcx,(%rdx,%rax,1)
    37c0:	ff 45 f0             	incl   -0x10(%rbp)
    37c3:	83 7d f0 3f          	cmpl   $0x3f,-0x10(%rbp)
    37c7:	0f 8e ca fd ff ff    	jle    3597 <_Z17init_leap_attacksv+0x5e>
    37cd:	c7 45 f4 00 00 00 00 	movl   $0x0,-0xc(%rbp)
    37d4:	e9 6c 02 00 00       	jmp    3a45 <_Z17init_leap_attacksv+0x50c>
    37d9:	8b 45 f4             	mov    -0xc(%rbp),%eax
    37dc:	ba 01 00 00 00       	mov    $0x1,%edx
    37e1:	c4 e2 f9 f7 c2       	shlx   %rax,%rdx,%rax
    37e6:	48 89 45 f8          	mov    %rax,-0x8(%rbp)
    37ea:	48 8b 45 f8          	mov    -0x8(%rbp),%rax
    37ee:	48 89 c7             	mov    %rax,%rdi
    37f1:	e8 d9 09 00 00       	call   41cf <_Z7n_shiftm>
    37f6:	48 89 c7             	mov    %rax,%rdi
    37f9:	e8 35 0a 00 00       	call   4233 <_Z8ne_shiftm>
    37fe:	8b 55 f4             	mov    -0xc(%rbp),%edx
    3801:	48 63 d2             	movslq %edx,%rdx
    3804:	48 8d 0c d5 00 00 00 	lea    0x0(,%rdx,8),%rcx
    380b:	00 
    380c:	48 8d 15 6d 54 01 00 	lea    0x1546d(%rip),%rdx        # 18c80 <knight_attacks>
    3813:	48 8b 14 11          	mov    (%rcx,%rdx,1),%rdx
    3817:	48 09 d0             	or     %rdx,%rax
    381a:	48 89 c1             	mov    %rax,%rcx
    381d:	8b 45 f4             	mov    -0xc(%rbp),%eax
    3820:	48 98                	cltq
    3822:	48 8d 14 c5 00 00 00 	lea    0x0(,%rax,8),%rdx
    3829:	00 
    382a:	48 8d 05 4f 54 01 00 	lea    0x1544f(%rip),%rax        # 18c80 <knight_attacks>
    3831:	48 89 0c 02          	mov    %rcx,(%rdx,%rax,1)
    3835:	48 8b 45 f8          	mov    -0x8(%rbp),%rax
    3839:	48 89 c7             	mov    %rax,%rdi
    383c:	e8 b2 09 00 00       	call   41f3 <_Z7e_shiftm>
    3841:	48 89 c7             	mov    %rax,%rdi
    3844:	e8 ea 09 00 00       	call   4233 <_Z8ne_shiftm>
    3849:	8b 55 f4             	mov    -0xc(%rbp),%edx
    384c:	48 63 d2             	movslq %edx,%rdx
    384f:	48 8d 0c d5 00 00 00 	lea    0x0(,%rdx,8),%rcx
    3856:	00 
    3857:	48 8d 15 22 54 01 00 	lea    0x15422(%rip),%rdx        # 18c80 <knight_attacks>
    385e:	48 8b 14 11          	mov    (%rcx,%rdx,1),%rdx
    3862:	48 09 d0             	or     %rdx,%rax
    3865:	48 89 c1             	mov    %rax,%rcx
    3868:	8b 45 f4             	mov    -0xc(%rbp),%eax
    386b:	48 98                	cltq
    386d:	48 8d 14 c5 00 00 00 	lea    0x0(,%rax,8),%rdx
    3874:	00 
    3875:	48 8d 05 04 54 01 00 	lea    0x15404(%rip),%rax        # 18c80 <knight_attacks>
    387c:	48 89 0c 02          	mov    %rcx,(%rdx,%rax,1)
    3880:	48 8b 45 f8          	mov    -0x8(%rbp),%rax
    3884:	48 89 c7             	mov    %rax,%rdi
    3887:	e8 67 09 00 00       	call   41f3 <_Z7e_shiftm>
    388c:	48 89 c7             	mov    %rax,%rdi
    388f:	e8 c1 09 00 00       	call   4255 <_Z8se_shiftm>
    3894:	8b 55 f4             	mov    -0xc(%rbp),%edx
    3897:	48 63 d2             	movslq %edx,%rdx
    389a:	48 8d 0c d5 00 00 00 	lea    0x0(,%rdx,8),%rcx
    38a1:	00 
    38a2:	48 8d 15 d7 53 01 00 	lea    0x153d7(%rip),%rdx        # 18c80 <knight_attacks>
    38a9:	48 8b 14 11          	mov    (%rcx,%rdx,1),%rdx
    38ad:	48 09 d0             	or     %rdx,%rax
    38b0:	48 89 c1             	mov    %rax,%rcx
    38b3:	8b 45 f4             	mov    -0xc(%rbp),%eax
    38b6:	48 98                	cltq
    38b8:	48 8d 14 c5 00 00 00 	lea    0x0(,%rax,8),%rdx
    38bf:	00 
    38c0:	48 8d 05 b9 53 01 00 	lea    0x153b9(%rip),%rax        # 18c80 <knight_attacks>
    38c7:	48 89 0c 02          	mov    %rcx,(%rdx,%rax,1)
    38cb:	48 8b 45 f8          	mov    -0x8(%rbp),%rax
    38cf:	48 89 c7             	mov    %rax,%rdi
    38d2:	e8 0a 09 00 00       	call   41e1 <_Z7s_shiftm>
    38d7:	48 89 c7             	mov    %rax,%rdi
    38da:	e8 76 09 00 00       	call   4255 <_Z8se_shiftm>
    38df:	8b 55 f4             	mov    -0xc(%rbp),%edx
    38e2:	48 63 d2             	movslq %edx,%rdx
    38e5:	48 8d 0c d5 00 00 00 	lea    0x0(,%rdx,8),%rcx
    38ec:	00 
    38ed:	48 8d 15 8c 53 01 00 	lea    0x1538c(%rip),%rdx        # 18c80 <knight_attacks>
    38f4:	48 8b 14 11          	mov    (%rcx,%rdx,1),%rdx
    38f8:	48 09 d0             	or     %rdx,%rax
    38fb:	48 89 c1             	mov    %rax,%rcx
    38fe:	8b 45 f4             	mov    -0xc(%rbp),%eax
    3901:	48 98                	cltq
    3903:	48 8d 14 c5 00 00 00 	lea    0x0(,%rax,8),%rdx
    390a:	00 
    390b:	48 8d 05 6e 53 01 00 	lea    0x1536e(%rip),%rax        # 18c80 <knight_attacks>
    3912:	48 89 0c 02          	mov    %rcx,(%rdx,%rax,1)
    3916:	48 8b 45 f8          	mov    -0x8(%rbp),%rax
    391a:	48 89 c7             	mov    %rax,%rdi
    391d:	e8 bf 08 00 00       	call   41e1 <_Z7s_shiftm>
    3922:	48 89 c7             	mov    %rax,%rdi
    3925:	e8 4d 09 00 00       	call   4277 <_Z8sw_shiftm>
    392a:	8b 55 f4             	mov    -0xc(%rbp),%edx
    392d:	48 63 d2             	movslq %edx,%rdx
    3930:	48 8d 0c d5 00 00 00 	lea    0x0(,%rdx,8),%rcx
    3937:	00 
    3938:	48 8d 15 41 53 01 00 	lea    0x15341(%rip),%rdx        # 18c80 <knight_attacks>
    393f:	48 8b 14 11          	mov    (%rcx,%rdx,1),%rdx
    3943:	48 09 d0             	or     %rdx,%rax
    3946:	48 89 c1             	mov    %rax,%rcx
    3949:	8b 45 f4             	mov    -0xc(%rbp),%eax
    394c:	48 98                	cltq
    394e:	48 8d 14 c5 00 00 00 	lea    0x0(,%rax,8),%rdx
    3955:	00 
    3956:	48 8d 05 23 53 01 00 	lea    0x15323(%rip),%rax        # 18c80 <knight_attacks>
    395d:	48 89 0c 02          	mov    %rcx,(%rdx,%rax,1)
    3961:	48 8b 45 f8          	mov    -0x8(%rbp),%rax
    3965:	48 89 c7             	mov    %rax,%rdi
    3968:	e8 a5 08 00 00       	call   4212 <_Z7w_shiftm>
    396d:	48 89 c7             	mov    %rax,%rdi
    3970:	e8 02 09 00 00       	call   4277 <_Z8sw_shiftm>
    3975:	8b 55 f4             	mov    -0xc(%rbp),%edx
    3978:	48 63 d2             	movslq %edx,%rdx
    397b:	48 8d 0c d5 00 00 00 	lea    0x0(,%rdx,8),%rcx
    3982:	00 
    3983:	48 8d 15 f6 52 01 00 	lea    0x152f6(%rip),%rdx        # 18c80 <knight_attacks>
    398a:	48 8b 14 11          	mov    (%rcx,%rdx,1),%rdx
    398e:	48 09 d0             	or     %rdx,%rax
    3991:	48 89 c1             	mov    %rax,%rcx
    3994:	8b 45 f4             	mov    -0xc(%rbp),%eax
    3997:	48 98                	cltq
    3999:	48 8d 14 c5 00 00 00 	lea    0x0(,%rax,8),%rdx
    39a0:	00 
    39a1:	48 8d 05 d8 52 01 00 	lea    0x152d8(%rip),%rax        # 18c80 <knight_attacks>
    39a8:	48 89 0c 02          	mov    %rcx,(%rdx,%rax,1)
    39ac:	48 8b 45 f8          	mov    -0x8(%rbp),%rax
    39b0:	48 89 c7             	mov    %rax,%rdi
    39b3:	e8 5a 08 00 00       	call   4212 <_Z7w_shiftm>
    39b8:	48 89 c7             	mov    %rax,%rdi
    39bb:	e8 d9 08 00 00       	call   4299 <_Z8nw_shiftm>
    39c0:	8b 55 f4             	mov    -0xc(%rbp),%edx
    39c3:	48 63 d2             	movslq %edx,%rdx
    39c6:	48 8d 0c d5 00 00 00 	lea    0x0(,%rdx,8),%rcx
    39cd:	00 
    39ce:	48 8d 15 ab 52 01 00 	lea    0x152ab(%rip),%rdx        # 18c80 <knight_attacks>
    39d5:	48 8b 14 11          	mov    (%rcx,%rdx,1),%rdx
    39d9:	48 09 d0             	or     %rdx,%rax
    39dc:	48 89 c1             	mov    %rax,%rcx
    39df:	8b 45 f4             	mov    -0xc(%rbp),%eax
    39e2:	48 98                	cltq
    39e4:	48 8d 14 c5 00 00 00 	lea    0x0(,%rax,8),%rdx
    39eb:	00 
    39ec:	48 8d 05 8d 52 01 00 	lea    0x1528d(%rip),%rax        # 18c80 <knight_attacks>
    39f3:	48 89 0c 02          	mov    %rcx,(%rdx,%rax,1)
    39f7:	48 8b 45 f8          	mov    -0x8(%rbp),%rax
    39fb:	48 89 c7             	mov    %rax,%rdi
    39fe:	e8 cc 07 00 00       	call   41cf <_Z7n_shiftm>
    3a03:	48 89 c7             	mov    %rax,%rdi
    3a06:	e8 8e 08 00 00       	call   4299 <_Z8nw_shiftm>
    3a0b:	8b 55 f4             	mov    -0xc(%rbp),%edx
    3a0e:	48 63 d2             	movslq %edx,%rdx
    3a11:	48 8d 0c d5 00 00 00 	lea    0x0(,%rdx,8),%rcx
    3a18:	00 
    3a19:	48 8d 15 60 52 01 00 	lea    0x15260(%rip),%rdx        # 18c80 <knight_attacks>
    3a20:	48 8b 14 11          	mov    (%rcx,%rdx,1),%rdx
    3a24:	48 09 d0             	or     %rdx,%rax
    3a27:	48 89 c1             	mov    %rax,%rcx
    3a2a:	8b 45 f4             	mov    -0xc(%rbp),%eax
    3a2d:	48 98                	cltq
    3a2f:	48 8d 14 c5 00 00 00 	lea    0x0(,%rax,8),%rdx
    3a36:	00 
    3a37:	48 8d 05 42 52 01 00 	lea    0x15242(%rip),%rax        # 18c80 <knight_attacks>
    3a3e:	48 89 0c 02          	mov    %rcx,(%rdx,%rax,1)
    3a42:	ff 45 f4             	incl   -0xc(%rbp)
    3a45:	83 7d f4 3f          	cmpl   $0x3f,-0xc(%rbp)
    3a49:	0f 8e 8a fd ff ff    	jle    37d9 <_Z17init_leap_attacksv+0x2a0>
    3a4f:	90                   	nop
    3a50:	90                   	nop
    3a51:	c9                   	leave
    3a52:	c3                   	ret

0000000000003a53 <_Z23init_bishop_occupanciesv>:
    3a53:	55                   	push   %rbp
    3a54:	48 89 e5             	mov    %rsp,%rbp
    3a57:	48 83 ec 20          	sub    $0x20,%rsp
    3a5b:	48 c7 45 e8 00 00 00 	movq   $0x0,-0x18(%rbp)
    3a62:	00 
    3a63:	c7 45 e4 00 00 00 00 	movl   $0x0,-0x1c(%rbp)
    3a6a:	e9 fb 00 00 00       	jmp    3b6a <_Z23init_bishop_occupanciesv+0x117>
    3a6f:	48 c7 45 e8 00 00 00 	movq   $0x0,-0x18(%rbp)
    3a76:	00 
    3a77:	8b 45 e4             	mov    -0x1c(%rbp),%eax
    3a7a:	ba 01 00 00 00       	mov    $0x1,%edx
    3a7f:	c4 e2 f9 f7 c2       	shlx   %rax,%rdx,%rax
    3a84:	48 89 45 f8          	mov    %rax,-0x8(%rbp)
    3a88:	48 8b 45 f8          	mov    -0x8(%rbp),%rax
    3a8c:	48 89 45 f0          	mov    %rax,-0x10(%rbp)
    3a90:	eb 08                	jmp    3a9a <_Z23init_bishop_occupanciesv+0x47>
    3a92:	48 8b 45 f0          	mov    -0x10(%rbp),%rax
    3a96:	48 09 45 e8          	or     %rax,-0x18(%rbp)
    3a9a:	48 8b 45 f0          	mov    -0x10(%rbp),%rax
    3a9e:	48 89 c7             	mov    %rax,%rdi
    3aa1:	e8 8d 07 00 00       	call   4233 <_Z8ne_shiftm>
    3aa6:	48 89 45 f0          	mov    %rax,-0x10(%rbp)
    3aaa:	48 83 7d f0 00       	cmpq   $0x0,-0x10(%rbp)
    3aaf:	0f 95 c0             	setne  %al
    3ab2:	84 c0                	test   %al,%al
    3ab4:	75 dc                	jne    3a92 <_Z23init_bishop_occupanciesv+0x3f>
    3ab6:	48 8b 45 f8          	mov    -0x8(%rbp),%rax
    3aba:	48 89 45 f0          	mov    %rax,-0x10(%rbp)
    3abe:	eb 08                	jmp    3ac8 <_Z23init_bishop_occupanciesv+0x75>
    3ac0:	48 8b 45 f0          	mov    -0x10(%rbp),%rax
    3ac4:	48 09 45 e8          	or     %rax,-0x18(%rbp)
    3ac8:	48 8b 45 f0          	mov    -0x10(%rbp),%rax
    3acc:	48 89 c7             	mov    %rax,%rdi
    3acf:	e8 81 07 00 00       	call   4255 <_Z8se_shiftm>
    3ad4:	48 89 45 f0          	mov    %rax,-0x10(%rbp)
    3ad8:	48 83 7d f0 00       	cmpq   $0x0,-0x10(%rbp)
    3add:	0f 95 c0             	setne  %al
    3ae0:	84 c0                	test   %al,%al
    3ae2:	75 dc                	jne    3ac0 <_Z23init_bishop_occupanciesv+0x6d>
    3ae4:	48 8b 45 f8          	mov    -0x8(%rbp),%rax
    3ae8:	48 89 45 f0          	mov    %rax,-0x10(%rbp)
    3aec:	eb 08                	jmp    3af6 <_Z23init_bishop_occupanciesv+0xa3>
    3aee:	48 8b 45 f0          	mov    -0x10(%rbp),%rax
    3af2:	48 09 45 e8          	or     %rax,-0x18(%rbp)
    3af6:	48 8b 45 f0          	mov    -0x10(%rbp),%rax
    3afa:	48 89 c7             	mov    %rax,%rdi
    3afd:	e8 75 07 00 00       	call   4277 <_Z8sw_shiftm>
    3b02:	48 89 45 f0          	mov    %rax,-0x10(%rbp)
    3b06:	48 83 7d f0 00       	cmpq   $0x0,-0x10(%rbp)
    3b0b:	0f 95 c0             	setne  %al
    3b0e:	84 c0                	test   %al,%al
    3b10:	75 dc                	jne    3aee <_Z23init_bishop_occupanciesv+0x9b>
    3b12:	48 8b 45 f8          	mov    -0x8(%rbp),%rax
    3b16:	48 89 45 f0          	mov    %rax,-0x10(%rbp)
    3b1a:	eb 08                	jmp    3b24 <_Z23init_bishop_occupanciesv+0xd1>
    3b1c:	48 8b 45 f0          	mov    -0x10(%rbp),%rax
    3b20:	48 09 45 e8          	or     %rax,-0x18(%rbp)
    3b24:	48 8b 45 f0          	mov    -0x10(%rbp),%rax
    3b28:	48 89 c7             	mov    %rax,%rdi
    3b2b:	e8 69 07 00 00       	call   4299 <_Z8nw_shiftm>
    3b30:	48 89 45 f0          	mov    %rax,-0x10(%rbp)
    3b34:	48 83 7d f0 00       	cmpq   $0x0,-0x10(%rbp)
    3b39:	0f 95 c0             	setne  %al
    3b3c:	84 c0                	test   %al,%al
    3b3e:	75 dc                	jne    3b1c <_Z23init_bishop_occupanciesv+0xc9>
    3b40:	48 b8 00 7e 7e 7e 7e 	movabs $0x7e7e7e7e7e7e00,%rax
    3b47:	7e 7e 00 
    3b4a:	48 23 45 e8          	and    -0x18(%rbp),%rax
    3b4e:	8b 55 e4             	mov    -0x1c(%rbp),%edx
    3b51:	48 63 d2             	movslq %edx,%rdx
    3b54:	48 8d 0c d5 00 00 00 	lea    0x0(,%rdx,8),%rcx
    3b5b:	00 
    3b5c:	48 8d 15 1d 55 01 00 	lea    0x1551d(%rip),%rdx        # 19080 <bishop_occupancies>
    3b63:	48 89 04 11          	mov    %rax,(%rcx,%rdx,1)
    3b67:	ff 45 e4             	incl   -0x1c(%rbp)
    3b6a:	83 7d e4 3f          	cmpl   $0x3f,-0x1c(%rbp)
    3b6e:	0f 8e fb fe ff ff    	jle    3a6f <_Z23init_bishop_occupanciesv+0x1c>
    3b74:	90                   	nop
    3b75:	90                   	nop
    3b76:	c9                   	leave
    3b77:	c3                   	ret

0000000000003b78 <_Z21init_rook_occupanciesv>:
    3b78:	55                   	push   %rbp
    3b79:	48 89 e5             	mov    %rsp,%rbp
    3b7c:	48 83 ec 20          	sub    $0x20,%rsp
    3b80:	48 c7 45 e8 00 00 00 	movq   $0x0,-0x18(%rbp)
    3b87:	00 
    3b88:	c7 45 e4 00 00 00 00 	movl   $0x0,-0x1c(%rbp)
    3b8f:	e9 10 01 00 00       	jmp    3ca4 <_Z21init_rook_occupanciesv+0x12c>
    3b94:	48 c7 45 e8 00 00 00 	movq   $0x0,-0x18(%rbp)
    3b9b:	00 
    3b9c:	8b 45 e4             	mov    -0x1c(%rbp),%eax
    3b9f:	ba 01 00 00 00       	mov    $0x1,%edx
    3ba4:	c4 e2 f9 f7 c2       	shlx   %rax,%rdx,%rax
    3ba9:	48 89 45 f8          	mov    %rax,-0x8(%rbp)
    3bad:	48 8b 45 f8          	mov    -0x8(%rbp),%rax
    3bb1:	48 89 45 f0          	mov    %rax,-0x10(%rbp)
    3bb5:	eb 12                	jmp    3bc9 <_Z21init_rook_occupanciesv+0x51>
    3bb7:	48 b8 ff ff ff ff ff 	movabs $0xffffffffffffff,%rax
    3bbe:	ff ff 00 
    3bc1:	48 23 45 f0          	and    -0x10(%rbp),%rax
    3bc5:	48 09 45 e8          	or     %rax,-0x18(%rbp)
    3bc9:	48 8b 45 f0          	mov    -0x10(%rbp),%rax
    3bcd:	48 89 c7             	mov    %rax,%rdi
    3bd0:	e8 fa 05 00 00       	call   41cf <_Z7n_shiftm>
    3bd5:	48 89 45 f0          	mov    %rax,-0x10(%rbp)
    3bd9:	48 83 7d f0 00       	cmpq   $0x0,-0x10(%rbp)
    3bde:	0f 95 c0             	setne  %al
    3be1:	84 c0                	test   %al,%al
    3be3:	75 d2                	jne    3bb7 <_Z21init_rook_occupanciesv+0x3f>
    3be5:	48 8b 45 f8          	mov    -0x8(%rbp),%rax
    3be9:	48 89 45 f0          	mov    %rax,-0x10(%rbp)
    3bed:	eb 12                	jmp    3c01 <_Z21init_rook_occupanciesv+0x89>
    3bef:	48 b8 7f 7f 7f 7f 7f 	movabs $0x7f7f7f7f7f7f7f7f,%rax
    3bf6:	7f 7f 7f 
    3bf9:	48 23 45 f0          	and    -0x10(%rbp),%rax
    3bfd:	48 09 45 e8          	or     %rax,-0x18(%rbp)
    3c01:	48 8b 45 f0          	mov    -0x10(%rbp),%rax
    3c05:	48 89 c7             	mov    %rax,%rdi
    3c08:	e8 e6 05 00 00       	call   41f3 <_Z7e_shiftm>
    3c0d:	48 89 45 f0          	mov    %rax,-0x10(%rbp)
    3c11:	48 83 7d f0 00       	cmpq   $0x0,-0x10(%rbp)
    3c16:	0f 95 c0             	setne  %al
    3c19:	84 c0                	test   %al,%al
    3c1b:	75 d2                	jne    3bef <_Z21init_rook_occupanciesv+0x77>
    3c1d:	48 8b 45 f8          	mov    -0x8(%rbp),%rax
    3c21:	48 89 45 f0          	mov    %rax,-0x10(%rbp)
    3c25:	eb 0a                	jmp    3c31 <_Z21init_rook_occupanciesv+0xb9>
    3c27:	48 8b 45 f0          	mov    -0x10(%rbp),%rax
    3c2b:	b0 00                	mov    $0x0,%al
    3c2d:	48 09 45 e8          	or     %rax,-0x18(%rbp)
    3c31:	48 8b 45 f0          	mov    -0x10(%rbp),%rax
    3c35:	48 89 c7             	mov    %rax,%rdi
    3c38:	e8 a4 05 00 00       	call   41e1 <_Z7s_shiftm>
    3c3d:	48 89 45 f0          	mov    %rax,-0x10(%rbp)
    3c41:	48 83 7d f0 00       	cmpq   $0x0,-0x10(%rbp)
    3c46:	0f 95 c0             	setne  %al
    3c49:	84 c0                	test   %al,%al
    3c4b:	75 da                	jne    3c27 <_Z21init_rook_occupanciesv+0xaf>
    3c4d:	48 8b 45 f8          	mov    -0x8(%rbp),%rax
    3c51:	48 89 45 f0          	mov    %rax,-0x10(%rbp)
    3c55:	eb 12                	jmp    3c69 <_Z21init_rook_occupanciesv+0xf1>
    3c57:	48 b8 fe fe fe fe fe 	movabs $0xfefefefefefefefe,%rax
    3c5e:	fe fe fe 
    3c61:	48 23 45 f0          	and    -0x10(%rbp),%rax
    3c65:	48 09 45 e8          	or     %rax,-0x18(%rbp)
    3c69:	48 8b 45 f0          	mov    -0x10(%rbp),%rax
    3c6d:	48 89 c7             	mov    %rax,%rdi
    3c70:	e8 9d 05 00 00       	call   4212 <_Z7w_shiftm>
    3c75:	48 89 45 f0          	mov    %rax,-0x10(%rbp)
    3c79:	48 83 7d f0 00       	cmpq   $0x0,-0x10(%rbp)
    3c7e:	0f 95 c0             	setne  %al
    3c81:	84 c0                	test   %al,%al
    3c83:	75 d2                	jne    3c57 <_Z21init_rook_occupanciesv+0xdf>
    3c85:	8b 45 e4             	mov    -0x1c(%rbp),%eax
    3c88:	48 98                	cltq
    3c8a:	48 8d 14 c5 00 00 00 	lea    0x0(,%rax,8),%rdx
    3c91:	00 
    3c92:	48 8d 05 e7 55 01 00 	lea    0x155e7(%rip),%rax        # 19280 <rook_occupancies>
    3c99:	48 8b 4d e8          	mov    -0x18(%rbp),%rcx
    3c9d:	48 89 0c 02          	mov    %rcx,(%rdx,%rax,1)
    3ca1:	ff 45 e4             	incl   -0x1c(%rbp)
    3ca4:	83 7d e4 3f          	cmpl   $0x3f,-0x1c(%rbp)
    3ca8:	0f 8e e6 fe ff ff    	jle    3b94 <_Z21init_rook_occupanciesv+0x1c>
    3cae:	90                   	nop
    3caf:	90                   	nop
    3cb0:	c9                   	leave
    3cb1:	c3                   	ret

0000000000003cb2 <_Z16generate_attacksILi3EEmim>:
    3cb2:	55                   	push   %rbp
    3cb3:	48 89 e5             	mov    %rsp,%rbp
    3cb6:	48 83 ec 30          	sub    $0x30,%rsp
    3cba:	89 7d dc             	mov    %edi,-0x24(%rbp)
    3cbd:	48 89 75 d0          	mov    %rsi,-0x30(%rbp)
    3cc1:	48 c7 45 e8 00 00 00 	movq   $0x0,-0x18(%rbp)
    3cc8:	00 
    3cc9:	8b 45 dc             	mov    -0x24(%rbp),%eax
    3ccc:	ba 01 00 00 00       	mov    $0x1,%edx
    3cd1:	c4 e2 f9 f7 c2       	shlx   %rax,%rdx,%rax
    3cd6:	48 89 45 f8          	mov    %rax,-0x8(%rbp)
    3cda:	48 8b 45 f8          	mov    -0x8(%rbp),%rax
    3cde:	48 89 45 f0          	mov    %rax,-0x10(%rbp)
    3ce2:	eb 15                	jmp    3cf9 <_Z16generate_attacksILi3EEmim+0x47>
    3ce4:	48 8b 45 f0          	mov    -0x10(%rbp),%rax
    3ce8:	48 09 45 e8          	or     %rax,-0x18(%rbp)
    3cec:	48 8b 45 f0          	mov    -0x10(%rbp),%rax
    3cf0:	48 23 45 d0          	and    -0x30(%rbp),%rax
    3cf4:	48 85 c0             	test   %rax,%rax
    3cf7:	75 1e                	jne    3d17 <_Z16generate_attacksILi3EEmim+0x65>
    3cf9:	48 8b 45 f0          	mov    -0x10(%rbp),%rax
    3cfd:	48 89 c7             	mov    %rax,%rdi
    3d00:	e8 2e 05 00 00       	call   4233 <_Z8ne_shiftm>
    3d05:	48 89 45 f0          	mov    %rax,-0x10(%rbp)
    3d09:	48 83 7d f0 00       	cmpq   $0x0,-0x10(%rbp)
    3d0e:	0f 95 c0             	setne  %al
    3d11:	84 c0                	test   %al,%al
    3d13:	75 cf                	jne    3ce4 <_Z16generate_attacksILi3EEmim+0x32>
    3d15:	eb 01                	jmp    3d18 <_Z16generate_attacksILi3EEmim+0x66>
    3d17:	90                   	nop
    3d18:	48 8b 45 f8          	mov    -0x8(%rbp),%rax
    3d1c:	48 89 45 f0          	mov    %rax,-0x10(%rbp)
    3d20:	eb 15                	jmp    3d37 <_Z16generate_attacksILi3EEmim+0x85>
    3d22:	48 8b 45 f0          	mov    -0x10(%rbp),%rax
    3d26:	48 09 45 e8          	or     %rax,-0x18(%rbp)
    3d2a:	48 8b 45 f0          	mov    -0x10(%rbp),%rax
    3d2e:	48 23 45 d0          	and    -0x30(%rbp),%rax
    3d32:	48 85 c0             	test   %rax,%rax
    3d35:	75 1e                	jne    3d55 <_Z16generate_attacksILi3EEmim+0xa3>
    3d37:	48 8b 45 f0          	mov    -0x10(%rbp),%rax
    3d3b:	48 89 c7             	mov    %rax,%rdi
    3d3e:	e8 12 05 00 00       	call   4255 <_Z8se_shiftm>
    3d43:	48 89 45 f0          	mov    %rax,-0x10(%rbp)
    3d47:	48 83 7d f0 00       	cmpq   $0x0,-0x10(%rbp)
    3d4c:	0f 95 c0             	setne  %al
    3d4f:	84 c0                	test   %al,%al
    3d51:	75 cf                	jne    3d22 <_Z16generate_attacksILi3EEmim+0x70>
    3d53:	eb 01                	jmp    3d56 <_Z16generate_attacksILi3EEmim+0xa4>
    3d55:	90                   	nop
    3d56:	48 8b 45 f8          	mov    -0x8(%rbp),%rax
    3d5a:	48 89 45 f0          	mov    %rax,-0x10(%rbp)
    3d5e:	eb 15                	jmp    3d75 <_Z16generate_attacksILi3EEmim+0xc3>
    3d60:	48 8b 45 f0          	mov    -0x10(%rbp),%rax
    3d64:	48 09 45 e8          	or     %rax,-0x18(%rbp)
    3d68:	48 8b 45 f0          	mov    -0x10(%rbp),%rax
    3d6c:	48 23 45 d0          	and    -0x30(%rbp),%rax
    3d70:	48 85 c0             	test   %rax,%rax
    3d73:	75 1e                	jne    3d93 <_Z16generate_attacksILi3EEmim+0xe1>
    3d75:	48 8b 45 f0          	mov    -0x10(%rbp),%rax
    3d79:	48 89 c7             	mov    %rax,%rdi
    3d7c:	e8 f6 04 00 00       	call   4277 <_Z8sw_shiftm>
    3d81:	48 89 45 f0          	mov    %rax,-0x10(%rbp)
    3d85:	48 83 7d f0 00       	cmpq   $0x0,-0x10(%rbp)
    3d8a:	0f 95 c0             	setne  %al
    3d8d:	84 c0                	test   %al,%al
    3d8f:	75 cf                	jne    3d60 <_Z16generate_attacksILi3EEmim+0xae>
    3d91:	eb 01                	jmp    3d94 <_Z16generate_attacksILi3EEmim+0xe2>
    3d93:	90                   	nop
    3d94:	48 8b 45 f8          	mov    -0x8(%rbp),%rax
    3d98:	48 89 45 f0          	mov    %rax,-0x10(%rbp)
    3d9c:	eb 15                	jmp    3db3 <_Z16generate_attacksILi3EEmim+0x101>
    3d9e:	48 8b 45 f0          	mov    -0x10(%rbp),%rax
    3da2:	48 09 45 e8          	or     %rax,-0x18(%rbp)
    3da6:	48 8b 45 f0          	mov    -0x10(%rbp),%rax
    3daa:	48 23 45 d0          	and    -0x30(%rbp),%rax
    3dae:	48 85 c0             	test   %rax,%rax
    3db1:	75 1e                	jne    3dd1 <_Z16generate_attacksILi3EEmim+0x11f>
    3db3:	48 8b 45 f0          	mov    -0x10(%rbp),%rax
    3db7:	48 89 c7             	mov    %rax,%rdi
    3dba:	e8 da 04 00 00       	call   4299 <_Z8nw_shiftm>
    3dbf:	48 89 45 f0          	mov    %rax,-0x10(%rbp)
    3dc3:	48 83 7d f0 00       	cmpq   $0x0,-0x10(%rbp)
    3dc8:	0f 95 c0             	setne  %al
    3dcb:	84 c0                	test   %al,%al
    3dcd:	75 cf                	jne    3d9e <_Z16generate_attacksILi3EEmim+0xec>
    3dcf:	eb 01                	jmp    3dd2 <_Z16generate_attacksILi3EEmim+0x120>
    3dd1:	90                   	nop
    3dd2:	48 8b 45 e8          	mov    -0x18(%rbp),%rax
    3dd6:	c9                   	leave
    3dd7:	c3                   	ret

0000000000003dd8 <_Z16generate_attacksILi4EEmim>:
    3dd8:	55                   	push   %rbp
    3dd9:	48 89 e5             	mov    %rsp,%rbp
    3ddc:	48 83 ec 30          	sub    $0x30,%rsp
    3de0:	89 7d dc             	mov    %edi,-0x24(%rbp)
    3de3:	48 89 75 d0          	mov    %rsi,-0x30(%rbp)
    3de7:	48 c7 45 e8 00 00 00 	movq   $0x0,-0x18(%rbp)
    3dee:	00 
    3def:	8b 45 dc             	mov    -0x24(%rbp),%eax
    3df2:	ba 01 00 00 00       	mov    $0x1,%edx
    3df7:	c4 e2 f9 f7 c2       	shlx   %rax,%rdx,%rax
    3dfc:	48 89 45 f8          	mov    %rax,-0x8(%rbp)
    3e00:	48 8b 45 f8          	mov    -0x8(%rbp),%rax
    3e04:	48 89 45 f0          	mov    %rax,-0x10(%rbp)
    3e08:	eb 15                	jmp    3e1f <_Z16generate_attacksILi4EEmim+0x47>
    3e0a:	48 8b 45 f0          	mov    -0x10(%rbp),%rax
    3e0e:	48 09 45 e8          	or     %rax,-0x18(%rbp)
    3e12:	48 8b 45 f0          	mov    -0x10(%rbp),%rax
    3e16:	48 23 45 d0          	and    -0x30(%rbp),%rax
    3e1a:	48 85 c0             	test   %rax,%rax
    3e1d:	75 1e                	jne    3e3d <_Z16generate_attacksILi4EEmim+0x65>
    3e1f:	48 8b 45 f0          	mov    -0x10(%rbp),%rax
    3e23:	48 89 c7             	mov    %rax,%rdi
    3e26:	e8 a4 03 00 00       	call   41cf <_Z7n_shiftm>
    3e2b:	48 89 45 f0          	mov    %rax,-0x10(%rbp)
    3e2f:	48 83 7d f0 00       	cmpq   $0x0,-0x10(%rbp)
    3e34:	0f 95 c0             	setne  %al
    3e37:	84 c0                	test   %al,%al
    3e39:	75 cf                	jne    3e0a <_Z16generate_attacksILi4EEmim+0x32>
    3e3b:	eb 01                	jmp    3e3e <_Z16generate_attacksILi4EEmim+0x66>
    3e3d:	90                   	nop
    3e3e:	48 8b 45 f8          	mov    -0x8(%rbp),%rax
    3e42:	48 89 45 f0          	mov    %rax,-0x10(%rbp)
    3e46:	eb 15                	jmp    3e5d <_Z16generate_attacksILi4EEmim+0x85>
    3e48:	48 8b 45 f0          	mov    -0x10(%rbp),%rax
    3e4c:	48 09 45 e8          	or     %rax,-0x18(%rbp)
    3e50:	48 8b 45 f0          	mov    -0x10(%rbp),%rax
    3e54:	48 23 45 d0          	and    -0x30(%rbp),%rax
    3e58:	48 85 c0             	test   %rax,%rax
    3e5b:	75 1e                	jne    3e7b <_Z16generate_attacksILi4EEmim+0xa3>
    3e5d:	48 8b 45 f0          	mov    -0x10(%rbp),%rax
    3e61:	48 89 c7             	mov    %rax,%rdi
    3e64:	e8 8a 03 00 00       	call   41f3 <_Z7e_shiftm>
    3e69:	48 89 45 f0          	mov    %rax,-0x10(%rbp)
    3e6d:	48 83 7d f0 00       	cmpq   $0x0,-0x10(%rbp)
    3e72:	0f 95 c0             	setne  %al
    3e75:	84 c0                	test   %al,%al
    3e77:	75 cf                	jne    3e48 <_Z16generate_attacksILi4EEmim+0x70>
    3e79:	eb 01                	jmp    3e7c <_Z16generate_attacksILi4EEmim+0xa4>
    3e7b:	90                   	nop
    3e7c:	48 8b 45 f8          	mov    -0x8(%rbp),%rax
    3e80:	48 89 45 f0          	mov    %rax,-0x10(%rbp)
    3e84:	eb 15                	jmp    3e9b <_Z16generate_attacksILi4EEmim+0xc3>
    3e86:	48 8b 45 f0          	mov    -0x10(%rbp),%rax
    3e8a:	48 09 45 e8          	or     %rax,-0x18(%rbp)
    3e8e:	48 8b 45 f0          	mov    -0x10(%rbp),%rax
    3e92:	48 23 45 d0          	and    -0x30(%rbp),%rax
    3e96:	48 85 c0             	test   %rax,%rax
    3e99:	75 1e                	jne    3eb9 <_Z16generate_attacksILi4EEmim+0xe1>
    3e9b:	48 8b 45 f0          	mov    -0x10(%rbp),%rax
    3e9f:	48 89 c7             	mov    %rax,%rdi
    3ea2:	e8 3a 03 00 00       	call   41e1 <_Z7s_shiftm>
    3ea7:	48 89 45 f0          	mov    %rax,-0x10(%rbp)
    3eab:	48 83 7d f0 00       	cmpq   $0x0,-0x10(%rbp)
    3eb0:	0f 95 c0             	setne  %al
    3eb3:	84 c0                	test   %al,%al
    3eb5:	75 cf                	jne    3e86 <_Z16generate_attacksILi4EEmim+0xae>
    3eb7:	eb 01                	jmp    3eba <_Z16generate_attacksILi4EEmim+0xe2>
    3eb9:	90                   	nop
    3eba:	48 8b 45 f8          	mov    -0x8(%rbp),%rax
    3ebe:	48 89 45 f0          	mov    %rax,-0x10(%rbp)
    3ec2:	eb 15                	jmp    3ed9 <_Z16generate_attacksILi4EEmim+0x101>
    3ec4:	48 8b 45 f0          	mov    -0x10(%rbp),%rax
    3ec8:	48 09 45 e8          	or     %rax,-0x18(%rbp)
    3ecc:	48 8b 45 f0          	mov    -0x10(%rbp),%rax
    3ed0:	48 23 45 d0          	and    -0x30(%rbp),%rax
    3ed4:	48 85 c0             	test   %rax,%rax
    3ed7:	75 1e                	jne    3ef7 <_Z16generate_attacksILi4EEmim+0x11f>
    3ed9:	48 8b 45 f0          	mov    -0x10(%rbp),%rax
    3edd:	48 89 c7             	mov    %rax,%rdi
    3ee0:	e8 2d 03 00 00       	call   4212 <_Z7w_shiftm>
    3ee5:	48 89 45 f0          	mov    %rax,-0x10(%rbp)
    3ee9:	48 83 7d f0 00       	cmpq   $0x0,-0x10(%rbp)
    3eee:	0f 95 c0             	setne  %al
    3ef1:	84 c0                	test   %al,%al
    3ef3:	75 cf                	jne    3ec4 <_Z16generate_attacksILi4EEmim+0xec>
    3ef5:	eb 01                	jmp    3ef8 <_Z16generate_attacksILi4EEmim+0x120>
    3ef7:	90                   	nop
    3ef8:	48 8b 45 e8          	mov    -0x18(%rbp),%rax
    3efc:	c9                   	leave
    3efd:	c3                   	ret

0000000000003efe <_Z19init_slider_attacksv>:
    3efe:	55                   	push   %rbp
    3eff:	48 89 e5             	mov    %rsp,%rbp
    3f02:	c7 45 fc 00 00 00 00 	movl   $0x0,-0x4(%rbp)
    3f09:	eb 3b                	jmp    3f46 <_Z19init_slider_attacksv+0x48>
    3f0b:	8b 45 fc             	mov    -0x4(%rbp),%eax
    3f0e:	48 98                	cltq
    3f10:	48 8d 14 c5 00 00 00 	lea    0x0(,%rax,8),%rdx
    3f17:	00 
    3f18:	48 8d 05 61 55 01 00 	lea    0x15561(%rip),%rax        # 19480 <bishop_attacks>
    3f1f:	48 c7 04 02 00 00 00 	movq   $0x0,(%rdx,%rax,1)
    3f26:	00 
    3f27:	8b 45 fc             	mov    -0x4(%rbp),%eax
    3f2a:	48 98                	cltq
    3f2c:	48 8d 14 c5 00 00 00 	lea    0x0(,%rax,8),%rdx
    3f33:	00 
    3f34:	48 8d 05 45 f9 01 00 	lea    0x1f945(%rip),%rax        # 23880 <rook_attacks>
    3f3b:	48 c7 04 02 00 00 00 	movq   $0x0,(%rdx,%rax,1)
    3f42:	00 
    3f43:	ff 45 fc             	incl   -0x4(%rbp)
    3f46:	83 7d fc 3f          	cmpl   $0x3f,-0x4(%rbp)
    3f4a:	7e bf                	jle    3f0b <_Z19init_slider_attacksv+0xd>
    3f4c:	90                   	nop
    3f4d:	90                   	nop
    3f4e:	5d                   	pop    %rbp
    3f4f:	c3                   	ret

0000000000003f50 <_Z41__static_initialization_and_destruction_0v>:
    3f50:	55                   	push   %rbp
    3f51:	48 89 e5             	mov    %rsp,%rbp
    3f54:	41 52                	push   %r10
    3f56:	53                   	push   %rbx
    3f57:	48 83 c4 80          	add    $0xffffffffffffff80,%rsp
    3f5b:	4c 8d 55 10          	lea    0x10(%rbp),%r10
    3f5f:	64 48 8b 0c 25 28 00 	mov    %fs:0x28,%rcx
    3f66:	00 00 
    3f68:	48 89 4d e8          	mov    %rcx,-0x18(%rbp)
    3f6c:	31 c9                	xor    %ecx,%ecx
    3f6e:	48 8d 0d 43 89 0e 00 	lea    0xe8943(%rip),%rcx        # ec8b8 <_ZGV13char_to_piece>
    3f75:	0f b6 09             	movzbl (%rcx),%ecx
    3f78:	84 c9                	test   %cl,%cl
    3f7a:	0f 85 71 01 00 00    	jne    40f1 <_Z41__static_initialization_and_destruction_0v+0x1a1>
    3f80:	48 8d 0d 31 89 0e 00 	lea    0xe8931(%rip),%rcx        # ec8b8 <_ZGV13char_to_piece>
    3f87:	c6 01 01             	movb   $0x1,(%rcx)
    3f8a:	c5 f9 ef c0          	vpxor  %xmm0,%xmm0,%xmm0
    3f8e:	c5 fe 7f 45 80       	vmovdqu %ymm0,-0x80(%rbp)
    3f93:	c5 fe 7f 45 a0       	vmovdqu %ymm0,-0x60(%rbp)
    3f98:	c5 fe 7f 45 c0       	vmovdqu %ymm0,-0x40(%rbp)
    3f9d:	c5 f9 d6 45 e0       	vmovq  %xmm0,-0x20(%rbp)
    3fa2:	c6 45 80 30          	movb   $0x30,-0x80(%rbp)
    3fa6:	c6 45 88 50          	movb   $0x50,-0x78(%rbp)
    3faa:	c7 45 8c 01 00 00 00 	movl   $0x1,-0x74(%rbp)
    3fb1:	c6 45 90 52          	movb   $0x52,-0x70(%rbp)
    3fb5:	c7 45 94 04 00 00 00 	movl   $0x4,-0x6c(%rbp)
    3fbc:	c6 45 98 4e          	movb   $0x4e,-0x68(%rbp)
    3fc0:	c7 45 9c 02 00 00 00 	movl   $0x2,-0x64(%rbp)
    3fc7:	c6 45 a0 42          	movb   $0x42,-0x60(%rbp)
    3fcb:	c7 45 a4 03 00 00 00 	movl   $0x3,-0x5c(%rbp)
    3fd2:	c6 45 a8 51          	movb   $0x51,-0x58(%rbp)
    3fd6:	c7 45 ac 05 00 00 00 	movl   $0x5,-0x54(%rbp)
    3fdd:	c6 45 b0 4b          	movb   $0x4b,-0x50(%rbp)
    3fe1:	c7 45 b4 06 00 00 00 	movl   $0x6,-0x4c(%rbp)
    3fe8:	c6 45 b8 70          	movb   $0x70,-0x48(%rbp)
    3fec:	c7 45 bc 09 00 00 00 	movl   $0x9,-0x44(%rbp)
    3ff3:	c6 45 c0 6e          	movb   $0x6e,-0x40(%rbp)
    3ff7:	c7 45 c4 0a 00 00 00 	movl   $0xa,-0x3c(%rbp)
    3ffe:	c6 45 c8 72          	movb   $0x72,-0x38(%rbp)
    4002:	c7 45 cc 0c 00 00 00 	movl   $0xc,-0x34(%rbp)
    4009:	c6 45 d0 62          	movb   $0x62,-0x30(%rbp)
    400d:	c7 45 d4 0b 00 00 00 	movl   $0xb,-0x2c(%rbp)
    4014:	c6 45 d8 71          	movb   $0x71,-0x28(%rbp)
    4018:	c7 45 dc 0d 00 00 00 	movl   $0xd,-0x24(%rbp)
    401f:	c6 45 e0 6b          	movb   $0x6b,-0x20(%rbp)
    4023:	c7 45 e4 0e 00 00 00 	movl   $0xe,-0x1c(%rbp)
    402a:	48 8d 4d 80          	lea    -0x80(%rbp),%rcx
    402e:	48 89 c8             	mov    %rcx,%rax
    4031:	ba 0d 00 00 00       	mov    $0xd,%edx
    4036:	48 8d 8d 77 ff ff ff 	lea    -0x89(%rbp),%rcx
    403d:	48 89 8d 78 ff ff ff 	mov    %rcx,-0x88(%rbp)
    4044:	90                   	nop
    4045:	90                   	nop
    4046:	48 8d b5 76 ff ff ff 	lea    -0x8a(%rbp),%rsi
    404d:	48 8d 8d 75 ff ff ff 	lea    -0x8b(%rbp),%rcx
    4054:	49 89 c0             	mov    %rax,%r8
    4057:	49 89 d1             	mov    %rdx,%r9
    405a:	4c 89 c7             	mov    %r8,%rdi
    405d:	48 83 ec 08          	sub    $0x8,%rsp
    4061:	48 8d 85 77 ff ff ff 	lea    -0x89(%rbp),%rax
    4068:	50                   	push   %rax
    4069:	49 89 f1             	mov    %rsi,%r9
    406c:	49 89 c8             	mov    %rcx,%r8
    406f:	b9 00 00 00 00       	mov    $0x0,%ecx
    4074:	48 89 fe             	mov    %rdi,%rsi
    4077:	48 8d 05 02 88 0e 00 	lea    0xe8802(%rip),%rax        # ec880 <char_to_piece>
    407e:	48 89 c7             	mov    %rax,%rdi
    4081:	e8 36 02 00 00       	call   42bc <_ZNSt13unordered_mapIciSt4hashIcESt8equal_toIcESaISt4pairIKciEEEC1ESt16initializer_listIS6_EmRKS1_RKS3_RKS7_>
    4086:	48 83 c4 10          	add    $0x10,%rsp
    408a:	48 8d 85 77 ff ff ff 	lea    -0x89(%rbp),%rax
    4091:	48 89 c7             	mov    %rax,%rdi
    4094:	e8 8f 02 00 00       	call   4328 <_ZNSt15__new_allocatorISt4pairIKciEED1Ev>
    4099:	90                   	nop
    409a:	48 8d 05 67 41 01 00 	lea    0x14167(%rip),%rax        # 18208 <__dso_handle>
    40a1:	48 89 c2             	mov    %rax,%rdx
    40a4:	48 8d 05 d5 87 0e 00 	lea    0xe87d5(%rip),%rax        # ec880 <char_to_piece>
    40ab:	48 89 c6             	mov    %rax,%rsi
    40ae:	48 8d 05 ff 1f 00 00 	lea    0x1fff(%rip),%rax        # 60b4 <_ZNSt13unordered_mapIciSt4hashIcESt8equal_toIcESaISt4pairIKciEEED1Ev>
    40b5:	48 89 c7             	mov    %rax,%rdi
    40b8:	e8 43 f1 ff ff       	call   3200 <__cxa_atexit@plt>
    40bd:	eb 32                	jmp    40f1 <_Z41__static_initialization_and_destruction_0v+0x1a1>
    40bf:	48 89 c3             	mov    %rax,%rbx
    40c2:	48 8d 85 77 ff ff ff 	lea    -0x89(%rbp),%rax
    40c9:	48 89 c7             	mov    %rax,%rdi
    40cc:	e8 57 02 00 00       	call   4328 <_ZNSt15__new_allocatorISt4pairIKciEED1Ev>
    40d1:	90                   	nop
    40d2:	48 89 d8             	mov    %rbx,%rax
    40d5:	48 8b 55 e8          	mov    -0x18(%rbp),%rdx
    40d9:	64 48 2b 14 25 28 00 	sub    %fs:0x28,%rdx
    40e0:	00 00 
    40e2:	74 05                	je     40e9 <_Z41__static_initialization_and_destruction_0v+0x199>
    40e4:	e8 b7 f1 ff ff       	call   32a0 <__stack_chk_fail@plt>
    40e9:	48 89 c7             	mov    %rax,%rdi
    40ec:	e8 df f2 ff ff       	call   33d0 <_Unwind_Resume@plt>
    40f1:	90                   	nop
    40f2:	48 8b 45 e8          	mov    -0x18(%rbp),%rax
    40f6:	64 48 2b 04 25 28 00 	sub    %fs:0x28,%rax
    40fd:	00 00 
    40ff:	74 05                	je     4106 <_Z41__static_initialization_and_destruction_0v+0x1b6>
    4101:	e8 9a f1 ff ff       	call   32a0 <__stack_chk_fail@plt>
    4106:	48 8d 65 f0          	lea    -0x10(%rbp),%rsp
    410a:	5b                   	pop    %rbx
    410b:	41 5a                	pop    %r10
    410d:	5d                   	pop    %rbp
    410e:	c3                   	ret

000000000000410f <_GLOBAL__sub_I_pawn_attacks>:
    410f:	55                   	push   %rbp
    4110:	48 89 e5             	mov    %rsp,%rbp
    4113:	e8 38 fe ff ff       	call   3f50 <_Z41__static_initialization_and_destruction_0v>
    4118:	5d                   	pop    %rbp
    4119:	c3                   	ret

000000000000411a <_ZnwmPv>:
    411a:	55                   	push   %rbp
    411b:	48 89 e5             	mov    %rsp,%rbp
    411e:	48 89 7d f8          	mov    %rdi,-0x8(%rbp)
    4122:	48 89 75 f0          	mov    %rsi,-0x10(%rbp)
    4126:	48 8b 45 f0          	mov    -0x10(%rbp),%rax
    412a:	5d                   	pop    %rbp
    412b:	c3                   	ret

000000000000412c <_ZNKSt4hashIcEclEc>:
    412c:	55                   	push   %rbp
    412d:	48 89 e5             	mov    %rsp,%rbp
    4130:	48 89 7d f8          	mov    %rdi,-0x8(%rbp)
    4134:	89 f0                	mov    %esi,%eax
    4136:	88 45 f4             	mov    %al,-0xc(%rbp)
    4139:	48 0f be 45 f4       	movsbq -0xc(%rbp),%rax
    413e:	5d                   	pop    %rbp
    413f:	c3                   	ret

0000000000004140 <_ZNSt8__detail15_Hash_node_baseC1Ev>:
    4140:	55                   	push   %rbp
    4141:	48 89 e5             	mov    %rsp,%rbp
    4144:	48 89 7d f8          	mov    %rdi,-0x8(%rbp)
    4148:	48 8b 45 f8          	mov    -0x8(%rbp),%rax
    414c:	48 c7 00 00 00 00 00 	movq   $0x0,(%rax)
    4153:	90                   	nop
    4154:	5d                   	pop    %rbp
    4155:	c3                   	ret

0000000000004156 <_ZNKSt8__detail18_Mod_range_hashingclEmm>:
    4156:	55                   	push   %rbp
    4157:	48 89 e5             	mov    %rsp,%rbp
    415a:	48 89 7d f8          	mov    %rdi,-0x8(%rbp)
    415e:	48 89 75 f0          	mov    %rsi,-0x10(%rbp)
    4162:	48 89 55 e8          	mov    %rdx,-0x18(%rbp)
    4166:	48 8b 45 f0          	mov    -0x10(%rbp),%rax
    416a:	ba 00 00 00 00       	mov    $0x0,%edx
    416f:	48 f7 75 e8          	divq   -0x18(%rbp)
    4173:	48 89 d0             	mov    %rdx,%rax
    4176:	5d                   	pop    %rbp
    4177:	c3                   	ret

0000000000004178 <_ZNSt8__detail20_Prime_rehash_policyC1Ef>:
    4178:	55                   	push   %rbp
    4179:	48 89 e5             	mov    %rsp,%rbp
    417c:	48 89 7d f8          	mov    %rdi,-0x8(%rbp)
    4180:	c5 fa 11 45 f4       	vmovss %xmm0,-0xc(%rbp)
    4185:	48 8b 45 f8          	mov    -0x8(%rbp),%rax
    4189:	c5 fa 10 45 f4       	vmovss -0xc(%rbp),%xmm0
    418e:	c5 fa 11 00          	vmovss %xmm0,(%rax)
    4192:	48 8b 45 f8          	mov    -0x8(%rbp),%rax
    4196:	48 c7 40 08 00 00 00 	movq   $0x0,0x8(%rax)
    419d:	00 
    419e:	90                   	nop
    419f:	5d                   	pop    %rbp
    41a0:	c3                   	ret
    41a1:	90                   	nop

00000000000041a2 <_ZNKSt8__detail20_Prime_rehash_policy8_M_stateEv>:
    41a2:	55                   	push   %rbp
    41a3:	48 89 e5             	mov    %rsp,%rbp
    41a6:	48 89 7d f8          	mov    %rdi,-0x8(%rbp)
    41aa:	48 8b 45 f8          	mov    -0x8(%rbp),%rax
    41ae:	48 8b 40 08          	mov    0x8(%rax),%rax
    41b2:	5d                   	pop    %rbp
    41b3:	c3                   	ret

00000000000041b4 <_ZNSt8__detail20_Prime_rehash_policy8_M_resetEm>:
    41b4:	55                   	push   %rbp
    41b5:	48 89 e5             	mov    %rsp,%rbp
    41b8:	48 89 7d f8          	mov    %rdi,-0x8(%rbp)
    41bc:	48 89 75 f0          	mov    %rsi,-0x10(%rbp)
    41c0:	48 8b 45 f8          	mov    -0x8(%rbp),%rax
    41c4:	48 8b 55 f0          	mov    -0x10(%rbp),%rdx
    41c8:	48 89 50 08          	mov    %rdx,0x8(%rax)
    41cc:	90                   	nop
    41cd:	5d                   	pop    %rbp
    41ce:	c3                   	ret

00000000000041cf <_Z7n_shiftm>:
    41cf:	55                   	push   %rbp
    41d0:	48 89 e5             	mov    %rsp,%rbp
    41d3:	48 89 7d f8          	mov    %rdi,-0x8(%rbp)
    41d7:	48 8b 45 f8          	mov    -0x8(%rbp),%rax
    41db:	48 c1 e0 08          	shl    $0x8,%rax
    41df:	5d                   	pop    %rbp
    41e0:	c3                   	ret

00000000000041e1 <_Z7s_shiftm>:
    41e1:	55                   	push   %rbp
    41e2:	48 89 e5             	mov    %rsp,%rbp
    41e5:	48 89 7d f8          	mov    %rdi,-0x8(%rbp)
    41e9:	48 8b 45 f8          	mov    -0x8(%rbp),%rax
    41ed:	48 c1 e8 08          	shr    $0x8,%rax
    41f1:	5d                   	pop    %rbp
    41f2:	c3                   	ret

00000000000041f3 <_Z7e_shiftm>:
    41f3:	55                   	push   %rbp
    41f4:	48 89 e5             	mov    %rsp,%rbp
    41f7:	48 89 7d f8          	mov    %rdi,-0x8(%rbp)
    41fb:	48 8b 45 f8          	mov    -0x8(%rbp),%rax
    41ff:	48 8d 14 00          	lea    (%rax,%rax,1),%rdx
    4203:	48 b8 fe fe fe fe fe 	movabs $0xfefefefefefefefe,%rax
    420a:	fe fe fe 
    420d:	48 21 d0             	and    %rdx,%rax
    4210:	5d                   	pop    %rbp
    4211:	c3                   	ret

0000000000004212 <_Z7w_shiftm>:
    4212:	55                   	push   %rbp
    4213:	48 89 e5             	mov    %rsp,%rbp
    4216:	48 89 7d f8          	mov    %rdi,-0x8(%rbp)
    421a:	48 8b 45 f8          	mov    -0x8(%rbp),%rax
    421e:	48 d1 e8             	shr    %rax
    4221:	48 89 c2             	mov    %rax,%rdx
    4224:	48 b8 7f 7f 7f 7f 7f 	movabs $0x7f7f7f7f7f7f7f7f,%rax
    422b:	7f 7f 7f 
    422e:	48 21 d0             	and    %rdx,%rax
    4231:	5d                   	pop    %rbp
    4232:	c3                   	ret

0000000000004233 <_Z8ne_shiftm>:
    4233:	55                   	push   %rbp
    4234:	48 89 e5             	mov    %rsp,%rbp
    4237:	48 89 7d f8          	mov    %rdi,-0x8(%rbp)
    423b:	48 8b 45 f8          	mov    -0x8(%rbp),%rax
    423f:	48 c1 e0 09          	shl    $0x9,%rax
    4243:	48 89 c2             	mov    %rax,%rdx
    4246:	48 b8 00 fe fe fe fe 	movabs $0xfefefefefefefe00,%rax
    424d:	fe fe fe 
    4250:	48 21 d0             	and    %rdx,%rax
    4253:	5d                   	pop    %rbp
    4254:	c3                   	ret

0000000000004255 <_Z8se_shiftm>:
    4255:	55                   	push   %rbp
    4256:	48 89 e5             	mov    %rsp,%rbp
    4259:	48 89 7d f8          	mov    %rdi,-0x8(%rbp)
    425d:	48 8b 45 f8          	mov    -0x8(%rbp),%rax
    4261:	48 c1 e8 07          	shr    $0x7,%rax
    4265:	48 89 c2             	mov    %rax,%rdx
    4268:	48 b8 fe fe fe fe fe 	movabs $0xfefefefefefefe,%rax
    426f:	fe fe 00 
    4272:	48 21 d0             	and    %rdx,%rax
    4275:	5d                   	pop    %rbp
    4276:	c3                   	ret

0000000000004277 <_Z8sw_shiftm>:
    4277:	55                   	push   %rbp
    4278:	48 89 e5             	mov    %rsp,%rbp
    427b:	48 89 7d f8          	mov    %rdi,-0x8(%rbp)
    427f:	48 8b 45 f8          	mov    -0x8(%rbp),%rax
    4283:	48 c1 e8 09          	shr    $0x9,%rax
    4287:	48 89 c2             	mov    %rax,%rdx
    428a:	48 b8 7f 7f 7f 7f 7f 	movabs $0x7f7f7f7f7f7f7f,%rax
    4291:	7f 7f 00 
    4294:	48 21 d0             	and    %rdx,%rax
    4297:	5d                   	pop    %rbp
    4298:	c3                   	ret

0000000000004299 <_Z8nw_shiftm>:
    4299:	55                   	push   %rbp
    429a:	48 89 e5             	mov    %rsp,%rbp
    429d:	48 89 7d f8          	mov    %rdi,-0x8(%rbp)
    42a1:	48 8b 45 f8          	mov    -0x8(%rbp),%rax
    42a5:	48 c1 e0 07          	shl    $0x7,%rax
    42a9:	48 89 c2             	mov    %rax,%rdx
    42ac:	48 b8 00 7f 7f 7f 7f 	movabs $0x7f7f7f7f7f7f7f00,%rax
    42b3:	7f 7f 7f 
    42b6:	48 21 d0             	and    %rdx,%rax
    42b9:	5d                   	pop    %rbp
    42ba:	c3                   	ret
    42bb:	90                   	nop

00000000000042bc <_ZNSt13unordered_mapIciSt4hashIcESt8equal_toIcESaISt4pairIKciEEEC1ESt16initializer_listIS6_EmRKS1_RKS3_RKS7_>:
    42bc:	55                   	push   %rbp
    42bd:	48 89 e5             	mov    %rsp,%rbp
    42c0:	48 83 ec 30          	sub    $0x30,%rsp
    42c4:	48 89 7d f8          	mov    %rdi,-0x8(%rbp)
    42c8:	48 89 f0             	mov    %rsi,%rax
    42cb:	48 89 d6             	mov    %rdx,%rsi
    42ce:	48 89 f2             	mov    %rsi,%rdx
    42d1:	48 89 45 e0          	mov    %rax,-0x20(%rbp)
    42d5:	48 89 55 e8          	mov    %rdx,-0x18(%rbp)
    42d9:	48 89 4d f0          	mov    %rcx,-0x10(%rbp)
    42dd:	4c 89 45 d8          	mov    %r8,-0x28(%rbp)
    42e1:	4c 89 4d d0          	mov    %r9,-0x30(%rbp)
    42e5:	48 8b 45 f8          	mov    -0x8(%rbp),%rax
    42e9:	4c 8b 45 d0          	mov    -0x30(%rbp),%r8
    42ed:	48 8b 7d d8          	mov    -0x28(%rbp),%rdi
    42f1:	48 8b 4d f0          	mov    -0x10(%rbp),%rcx
    42f5:	48 8b 75 e0          	mov    -0x20(%rbp),%rsi
    42f9:	48 8b 55 e8          	mov    -0x18(%rbp),%rdx
    42fd:	48 83 ec 08          	sub    $0x8,%rsp
    4301:	ff 75 10             	push   0x10(%rbp)
    4304:	4d 89 c1             	mov    %r8,%r9
    4307:	49 89 f8             	mov    %rdi,%r8
    430a:	48 89 c7             	mov    %rax,%rdi
    430d:	e8 22 00 00 00       	call   4334 <_ZNSt10_HashtableIcSt4pairIKciESaIS2_ENSt8__detail10_Select1stESt8equal_toIcESt4hashIcENS4_18_Mod_range_hashingENS4_20_Default_ranged_hashENS4_20_Prime_rehash_policyENS4_17_Hashtable_traitsILb0ELb0ELb1EEEEC1ESt16initializer_listIS2_EmRKS9_RKS7_RKS3_>
    4312:	48 83 c4 10          	add    $0x10,%rsp
    4316:	90                   	nop
    4317:	c9                   	leave
    4318:	c3                   	ret

0000000000004319 <_ZSt7forwardIbEOT_RNSt16remove_referenceIS0_E4typeE>:
    4319:	55                   	push   %rbp
    431a:	48 89 e5             	mov    %rsp,%rbp
    431d:	48 89 7d f8          	mov    %rdi,-0x8(%rbp)
    4321:	48 8b 45 f8          	mov    -0x8(%rbp),%rax
    4325:	5d                   	pop    %rbp
    4326:	c3                   	ret
    4327:	90                   	nop

0000000000004328 <_ZNSt15__new_allocatorISt4pairIKciEED1Ev>:
    4328:	55                   	push   %rbp
    4329:	48 89 e5             	mov    %rsp,%rbp
    432c:	48 89 7d f8          	mov    %rdi,-0x8(%rbp)
    4330:	90                   	nop
    4331:	5d                   	pop    %rbp
    4332:	c3                   	ret
    4333:	90                   	nop

0000000000004334 <_ZNSt10_HashtableIcSt4pairIKciESaIS2_ENSt8__detail10_Select1stESt8equal_toIcESt4hashIcENS4_18_Mod_range_hashingENS4_20_Default_ranged_hashENS4_20_Prime_rehash_policyENS4_17_Hashtable_traitsILb0ELb0ELb1EEEEC1ESt16initializer_listIS2_EmRKS9_RKS7_RKS3_>:
    4334:	55                   	push   %rbp
    4335:	48 89 e5             	mov    %rsp,%rbp
    4338:	53                   	push   %rbx
    4339:	48 83 ec 38          	sub    $0x38,%rsp
    433d:	48 89 7d e8          	mov    %rdi,-0x18(%rbp)
    4341:	48 89 f0             	mov    %rsi,%rax
    4344:	48 89 d6             	mov    %rdx,%rsi
    4347:	48 89 f2             	mov    %rsi,%rdx
    434a:	48 89 45 d0          	mov    %rax,-0x30(%rbp)
    434e:	48 89 55 d8          	mov    %rdx,-0x28(%rbp)
    4352:	48 89 4d e0          	mov    %rcx,-0x20(%rbp)
    4356:	4c 89 45 c8          	mov    %r8,-0x38(%rbp)
    435a:	4c 89 4d c0          	mov    %r9,-0x40(%rbp)
    435e:	48 8d 45 d0          	lea    -0x30(%rbp),%rax
    4362:	48 89 c7             	mov    %rax,%rdi
    4365:	e8 ce 00 00 00       	call   4438 <_ZNKSt16initializer_listISt4pairIKciEE3endEv>
    436a:	48 89 c3             	mov    %rax,%rbx
    436d:	48 8d 45 d0          	lea    -0x30(%rbp),%rax
    4371:	48 89 c7             	mov    %rax,%rdi
    4374:	e8 ad 00 00 00       	call   4426 <_ZNKSt16initializer_listISt4pairIKciEE5beginEv>
    4379:	48 89 c6             	mov    %rax,%rsi
    437c:	48 8b 7d c0          	mov    -0x40(%rbp),%rdi
    4380:	48 8b 4d c8          	mov    -0x38(%rbp),%rcx
    4384:	48 8b 55 e0          	mov    -0x20(%rbp),%rdx
    4388:	48 8b 45 e8          	mov    -0x18(%rbp),%rax
    438c:	48 83 ec 08          	sub    $0x8,%rsp
    4390:	ff 75 10             	push   0x10(%rbp)
    4393:	49 89 f9             	mov    %rdi,%r9
    4396:	49 89 c8             	mov    %rcx,%r8
    4399:	48 89 d1             	mov    %rdx,%rcx
    439c:	48 89 da             	mov    %rbx,%rdx
    439f:	48 89 c7             	mov    %rax,%rdi
    43a2:	e8 c7 00 00 00       	call   446e <_ZNSt10_HashtableIcSt4pairIKciESaIS2_ENSt8__detail10_Select1stESt8equal_toIcESt4hashIcENS4_18_Mod_range_hashingENS4_20_Default_ranged_hashENS4_20_Prime_rehash_policyENS4_17_Hashtable_traitsILb0ELb0ELb1EEEEC1IPKS2_EET_SJ_mRKS9_RKS7_RKS3_St17integral_constantIbLb1EE>
    43a7:	48 83 c4 10          	add    $0x10,%rsp
    43ab:	90                   	nop
    43ac:	48 8b 5d f8          	mov    -0x8(%rbp),%rbx
    43b0:	c9                   	leave
    43b1:	c3                   	ret

00000000000043b2 <_ZNSt8__detail21_Hashtable_ebo_helperILi0ESaINS_10_Hash_nodeISt4pairIKciELb0EEEELb1EED1Ev>:
    43b2:	55                   	push   %rbp
    43b3:	48 89 e5             	mov    %rsp,%rbp
    43b6:	48 83 ec 20          	sub    $0x20,%rsp
    43ba:	48 89 7d e8          	mov    %rdi,-0x18(%rbp)
    43be:	48 8b 45 e8          	mov    -0x18(%rbp),%rax
    43c2:	48 89 45 f8          	mov    %rax,-0x8(%rbp)
    43c6:	48 8b 45 f8          	mov    -0x8(%rbp),%rax
    43ca:	48 89 c7             	mov    %rax,%rdi
    43cd:	e8 de 02 00 00       	call   46b0 <_ZNSt15__new_allocatorINSt8__detail10_Hash_nodeISt4pairIKciELb0EEEED1Ev>
    43d2:	90                   	nop
    43d3:	90                   	nop
    43d4:	c9                   	leave
    43d5:	c3                   	ret

00000000000043d6 <_ZNSt8__detail16_Hashtable_allocISaINS_10_Hash_nodeISt4pairIKciELb0EEEEED1Ev>:
    43d6:	55                   	push   %rbp
    43d7:	48 89 e5             	mov    %rsp,%rbp
    43da:	48 83 ec 10          	sub    $0x10,%rsp
    43de:	48 89 7d f8          	mov    %rdi,-0x8(%rbp)
    43e2:	48 8b 45 f8          	mov    -0x8(%rbp),%rax
    43e6:	48 89 c7             	mov    %rax,%rdi
    43e9:	e8 c4 ff ff ff       	call   43b2 <_ZNSt8__detail21_Hashtable_ebo_helperILi0ESaINS_10_Hash_nodeISt4pairIKciELb0EEEELb1EED1Ev>
    43ee:	90                   	nop
    43ef:	c9                   	leave
    43f0:	c3                   	ret
    43f1:	90                   	nop

00000000000043f2 <_ZNSt10_HashtableIcSt4pairIKciESaIS2_ENSt8__detail10_Select1stESt8equal_toIcESt4hashIcENS4_18_Mod_range_hashingENS4_20_Default_ranged_hashENS4_20_Prime_rehash_policyENS4_17_Hashtable_traitsILb0ELb0ELb1EEEED1Ev>:
    43f2:	55                   	push   %rbp
    43f3:	48 89 e5             	mov    %rsp,%rbp
    43f6:	48 83 ec 10          	sub    $0x10,%rsp
    43fa:	48 89 7d f8          	mov    %rdi,-0x8(%rbp)
    43fe:	48 8b 45 f8          	mov    -0x8(%rbp),%rax
    4402:	48 89 c7             	mov    %rax,%rdi
    4405:	e8 de 00 00 00       	call   44e8 <_ZNSt10_HashtableIcSt4pairIKciESaIS2_ENSt8__detail10_Select1stESt8equal_toIcESt4hashIcENS4_18_Mod_range_hashingENS4_20_Default_ranged_hashENS4_20_Prime_rehash_policyENS4_17_Hashtable_traitsILb0ELb0ELb1EEEE5clearEv>
    440a:	48 8b 45 f8          	mov    -0x8(%rbp),%rax
    440e:	48 89 c7             	mov    %rax,%rdi
    4411:	e8 3c 01 00 00       	call   4552 <_ZNSt10_HashtableIcSt4pairIKciESaIS2_ENSt8__detail10_Select1stESt8equal_toIcESt4hashIcENS4_18_Mod_range_hashingENS4_20_Default_ranged_hashENS4_20_Prime_rehash_policyENS4_17_Hashtable_traitsILb0ELb0ELb1EEEE21_M_deallocate_bucketsEv>
    4416:	48 8b 45 f8          	mov    -0x8(%rbp),%rax
    441a:	48 89 c7             	mov    %rax,%rdi
    441d:	e8 b4 ff ff ff       	call   43d6 <_ZNSt8__detail16_Hashtable_allocISaINS_10_Hash_nodeISt4pairIKciELb0EEEEED1Ev>
    4422:	90                   	nop
    4423:	c9                   	leave
    4424:	c3                   	ret
    4425:	90                   	nop

0000000000004426 <_ZNKSt16initializer_listISt4pairIKciEE5beginEv>:
    4426:	55                   	push   %rbp
    4427:	48 89 e5             	mov    %rsp,%rbp
    442a:	48 89 7d f8          	mov    %rdi,-0x8(%rbp)
    442e:	48 8b 45 f8          	mov    -0x8(%rbp),%rax
    4432:	48 8b 00             	mov    (%rax),%rax
    4435:	5d                   	pop    %rbp
    4436:	c3                   	ret
    4437:	90                   	nop

0000000000004438 <_ZNKSt16initializer_listISt4pairIKciEE3endEv>:
    4438:	55                   	push   %rbp
    4439:	48 89 e5             	mov    %rsp,%rbp
    443c:	53                   	push   %rbx
    443d:	48 83 ec 18          	sub    $0x18,%rsp
    4441:	48 89 7d e8          	mov    %rdi,-0x18(%rbp)
    4445:	48 8b 45 e8          	mov    -0x18(%rbp),%rax
    4449:	48 89 c7             	mov    %rax,%rdi
    444c:	e8 d5 ff ff ff       	call   4426 <_ZNKSt16initializer_listISt4pairIKciEE5beginEv>
    4451:	48 89 c3             	mov    %rax,%rbx
    4454:	48 8b 45 e8          	mov    -0x18(%rbp),%rax
    4458:	48 89 c7             	mov    %rax,%rdi
    445b:	e8 20 01 00 00       	call   4580 <_ZNKSt16initializer_listISt4pairIKciEE4sizeEv>
    4460:	48 c1 e0 03          	shl    $0x3,%rax
    4464:	48 01 d8             	add    %rbx,%rax
    4467:	48 8b 5d f8          	mov    -0x8(%rbp),%rbx
    446b:	c9                   	leave
    446c:	c3                   	ret
    446d:	90                   	nop

000000000000446e <_ZNSt10_HashtableIcSt4pairIKciESaIS2_ENSt8__detail10_Select1stESt8equal_toIcESt4hashIcENS4_18_Mod_range_hashingENS4_20_Default_ranged_hashENS4_20_Prime_rehash_policyENS4_17_Hashtable_traitsILb0ELb0ELb1EEEEC1IPKS2_EET_SJ_mRKS9_RKS7_RKS3_St17integral_constantIbLb1EE>:
    446e:	55                   	push   %rbp
    446f:	48 89 e5             	mov    %rsp,%rbp
    4472:	53                   	push   %rbx
    4473:	48 83 ec 38          	sub    $0x38,%rsp
    4477:	48 89 7d e8          	mov    %rdi,-0x18(%rbp)
    447b:	48 89 75 e0          	mov    %rsi,-0x20(%rbp)
    447f:	48 89 55 d8          	mov    %rdx,-0x28(%rbp)
    4483:	48 89 4d d0          	mov    %rcx,-0x30(%rbp)
    4487:	4c 89 45 c8          	mov    %r8,-0x38(%rbp)
    448b:	4c 89 4d c0          	mov    %r9,-0x40(%rbp)
    448f:	48 8b 7d 10          	mov    0x10(%rbp),%rdi
    4493:	48 8b 4d c0          	mov    -0x40(%rbp),%rcx
    4497:	48 8b 55 c8          	mov    -0x38(%rbp),%rdx
    449b:	48 8b 75 d0          	mov    -0x30(%rbp),%rsi
    449f:	48 8b 45 e8          	mov    -0x18(%rbp),%rax
    44a3:	49 89 f8             	mov    %rdi,%r8
    44a6:	48 89 c7             	mov    %rax,%rdi
    44a9:	e8 e4 00 00 00       	call   4592 <_ZNSt10_HashtableIcSt4pairIKciESaIS2_ENSt8__detail10_Select1stESt8equal_toIcESt4hashIcENS4_18_Mod_range_hashingENS4_20_Default_ranged_hashENS4_20_Prime_rehash_policyENS4_17_Hashtable_traitsILb0ELb0ELb1EEEEC1EmRKS9_RKS7_RKS3_>
    44ae:	48 8b 55 d8          	mov    -0x28(%rbp),%rdx
    44b2:	48 8b 4d e0          	mov    -0x20(%rbp),%rcx
    44b6:	48 8b 45 e8          	mov    -0x18(%rbp),%rax
    44ba:	48 89 ce             	mov    %rcx,%rsi
    44bd:	48 89 c7             	mov    %rax,%rdi
    44c0:	e8 75 01 00 00       	call   463a <_ZNSt8__detail12_Insert_baseIcSt4pairIKciESaIS3_ENS_10_Select1stESt8equal_toIcESt4hashIcENS_18_Mod_range_hashingENS_20_Default_ranged_hashENS_20_Prime_rehash_policyENS_17_Hashtable_traitsILb0ELb0ELb1EEEE6insertIPKS3_EEvT_SJ_>
    44c5:	eb 1a                	jmp    44e1 <_ZNSt10_HashtableIcSt4pairIKciESaIS2_ENSt8__detail10_Select1stESt8equal_toIcESt4hashIcENS4_18_Mod_range_hashingENS4_20_Default_ranged_hashENS4_20_Prime_rehash_policyENS4_17_Hashtable_traitsILb0ELb0ELb1EEEEC1IPKS2_EET_SJ_mRKS9_RKS7_RKS3_St17integral_constantIbLb1EE+0x73>
    44c7:	48 89 c3             	mov    %rax,%rbx
    44ca:	48 8b 45 e8          	mov    -0x18(%rbp),%rax
    44ce:	48 89 c7             	mov    %rax,%rdi
    44d1:	e8 1c ff ff ff       	call   43f2 <_ZNSt10_HashtableIcSt4pairIKciESaIS2_ENSt8__detail10_Select1stESt8equal_toIcESt4hashIcENS4_18_Mod_range_hashingENS4_20_Default_ranged_hashENS4_20_Prime_rehash_policyENS4_17_Hashtable_traitsILb0ELb0ELb1EEEED1Ev>
    44d6:	48 89 d8             	mov    %rbx,%rax
    44d9:	48 89 c7             	mov    %rax,%rdi
    44dc:	e8 ef ee ff ff       	call   33d0 <_Unwind_Resume@plt>
    44e1:	48 8b 5d f8          	mov    -0x8(%rbp),%rbx
    44e5:	c9                   	leave
    44e6:	c3                   	ret
    44e7:	90                   	nop

00000000000044e8 <_ZNSt10_HashtableIcSt4pairIKciESaIS2_ENSt8__detail10_Select1stESt8equal_toIcESt4hashIcENS4_18_Mod_range_hashingENS4_20_Default_ranged_hashENS4_20_Prime_rehash_policyENS4_17_Hashtable_traitsILb0ELb0ELb1EEEE5clearEv>:
    44e8:	55                   	push   %rbp
    44e9:	48 89 e5             	mov    %rsp,%rbp
    44ec:	48 83 ec 10          	sub    $0x10,%rsp
    44f0:	48 89 7d f8          	mov    %rdi,-0x8(%rbp)
    44f4:	48 8b 45 f8          	mov    -0x8(%rbp),%rax
    44f8:	48 89 c7             	mov    %rax,%rdi
    44fb:	e8 bc 01 00 00       	call   46bc <_ZNKSt10_HashtableIcSt4pairIKciESaIS2_ENSt8__detail10_Select1stESt8equal_toIcESt4hashIcENS4_18_Mod_range_hashingENS4_20_Default_ranged_hashENS4_20_Prime_rehash_policyENS4_17_Hashtable_traitsILb0ELb0ELb1EEEE8_M_beginEv>
    4500:	48 89 c2             	mov    %rax,%rdx
    4503:	48 8b 45 f8          	mov    -0x8(%rbp),%rax
    4507:	48 89 d6             	mov    %rdx,%rsi
    450a:	48 89 c7             	mov    %rax,%rdi
    450d:	e8 bc 01 00 00       	call   46ce <_ZNSt8__detail16_Hashtable_allocISaINS_10_Hash_nodeISt4pairIKciELb0EEEEE19_M_deallocate_nodesEPS5_>
    4512:	48 8b 45 f8          	mov    -0x8(%rbp),%rax
    4516:	48 8b 40 08          	mov    0x8(%rax),%rax
    451a:	48 8d 14 c5 00 00 00 	lea    0x0(,%rax,8),%rdx
    4521:	00 
    4522:	48 8b 45 f8          	mov    -0x8(%rbp),%rax
    4526:	48 8b 00             	mov    (%rax),%rax
    4529:	be 00 00 00 00       	mov    $0x0,%esi
    452e:	48 89 c7             	mov    %rax,%rdi
    4531:	e8 da eb ff ff       	call   3110 <memset@plt>
    4536:	48 8b 45 f8          	mov    -0x8(%rbp),%rax
    453a:	48 c7 40 18 00 00 00 	movq   $0x0,0x18(%rax)
    4541:	00 
    4542:	48 8b 45 f8          	mov    -0x8(%rbp),%rax
    4546:	48 c7 40 10 00 00 00 	movq   $0x0,0x10(%rax)
    454d:	00 
    454e:	90                   	nop
    454f:	c9                   	leave
    4550:	c3                   	ret
    4551:	90                   	nop

0000000000004552 <_ZNSt10_HashtableIcSt4pairIKciESaIS2_ENSt8__detail10_Select1stESt8equal_toIcESt4hashIcENS4_18_Mod_range_hashingENS4_20_Default_ranged_hashENS4_20_Prime_rehash_policyENS4_17_Hashtable_traitsILb0ELb0ELb1EEEE21_M_deallocate_bucketsEv>:
    4552:	55                   	push   %rbp
    4553:	48 89 e5             	mov    %rsp,%rbp
    4556:	48 83 ec 10          	sub    $0x10,%rsp
    455a:	48 89 7d f8          	mov    %rdi,-0x8(%rbp)
    455e:	48 8b 45 f8          	mov    -0x8(%rbp),%rax
    4562:	48 8b 50 08          	mov    0x8(%rax),%rdx
    4566:	48 8b 45 f8          	mov    -0x8(%rbp),%rax
    456a:	48 8b 08             	mov    (%rax),%rcx
    456d:	48 8b 45 f8          	mov    -0x8(%rbp),%rax
    4571:	48 89 ce             	mov    %rcx,%rsi
    4574:	48 89 c7             	mov    %rax,%rdi
    4577:	e8 9a 01 00 00       	call   4716 <_ZNSt10_HashtableIcSt4pairIKciESaIS2_ENSt8__detail10_Select1stESt8equal_toIcESt4hashIcENS4_18_Mod_range_hashingENS4_20_Default_ranged_hashENS4_20_Prime_rehash_policyENS4_17_Hashtable_traitsILb0ELb0ELb1EEEE21_M_deallocate_bucketsEPPNS4_15_Hash_node_baseEm>
    457c:	90                   	nop
    457d:	c9                   	leave
    457e:	c3                   	ret
    457f:	90                   	nop

0000000000004580 <_ZNKSt16initializer_listISt4pairIKciEE4sizeEv>:
    4580:	55                   	push   %rbp
    4581:	48 89 e5             	mov    %rsp,%rbp
    4584:	48 89 7d f8          	mov    %rdi,-0x8(%rbp)
    4588:	48 8b 45 f8          	mov    -0x8(%rbp),%rax
    458c:	48 8b 40 08          	mov    0x8(%rax),%rax
    4590:	5d                   	pop    %rbp
    4591:	c3                   	ret

0000000000004592 <_ZNSt10_HashtableIcSt4pairIKciESaIS2_ENSt8__detail10_Select1stESt8equal_toIcESt4hashIcENS4_18_Mod_range_hashingENS4_20_Default_ranged_hashENS4_20_Prime_rehash_policyENS4_17_Hashtable_traitsILb0ELb0ELb1EEEEC1EmRKS9_RKS7_RKS3_>:
    4592:	55                   	push   %rbp
    4593:	48 89 e5             	mov    %rsp,%rbp
    4596:	53                   	push   %rbx
    4597:	48 83 ec 48          	sub    $0x48,%rsp
    459b:	48 89 7d d8          	mov    %rdi,-0x28(%rbp)
    459f:	48 89 75 d0          	mov    %rsi,-0x30(%rbp)
    45a3:	48 89 55 c8          	mov    %rdx,-0x38(%rbp)
    45a7:	48 89 4d c0          	mov    %rcx,-0x40(%rbp)
    45ab:	4c 89 45 b8          	mov    %r8,-0x48(%rbp)
    45af:	48 8b 4d b8          	mov    -0x48(%rbp),%rcx
    45b3:	48 8b 55 c0          	mov    -0x40(%rbp),%rdx
    45b7:	48 8b 75 c8          	mov    -0x38(%rbp),%rsi
    45bb:	48 8b 45 d8          	mov    -0x28(%rbp),%rax
    45bf:	48 89 c7             	mov    %rax,%rdi
    45c2:	e8 97 01 00 00       	call   475e <_ZNSt10_HashtableIcSt4pairIKciESaIS2_ENSt8__detail10_Select1stESt8equal_toIcESt4hashIcENS4_18_Mod_range_hashingENS4_20_Default_ranged_hashENS4_20_Prime_rehash_policyENS4_17_Hashtable_traitsILb0ELb0ELb1EEEEC1ERKS9_RKS7_RKS3_>
    45c7:	48 8b 45 d8          	mov    -0x28(%rbp),%rax
    45cb:	48 83 c0 20          	add    $0x20,%rax
    45cf:	48 8b 55 d0          	mov    -0x30(%rbp),%rdx
    45d3:	48 89 d6             	mov    %rdx,%rsi
    45d6:	48 89 c7             	mov    %rax,%rdi
    45d9:	e8 b2 eb ff ff       	call   3190 <_ZNKSt8__detail20_Prime_rehash_policy11_M_next_bktEm@plt>
    45de:	48 89 45 e8          	mov    %rax,-0x18(%rbp)
    45e2:	48 8b 45 d8          	mov    -0x28(%rbp),%rax
    45e6:	48 8b 40 08          	mov    0x8(%rax),%rax
    45ea:	48 3b 45 e8          	cmp    -0x18(%rbp),%rax
    45ee:	73 42                	jae    4632 <_ZNSt10_HashtableIcSt4pairIKciESaIS2_ENSt8__detail10_Select1stESt8equal_toIcESt4hashIcENS4_18_Mod_range_hashingENS4_20_Default_ranged_hashENS4_20_Prime_rehash_policyENS4_17_Hashtable_traitsILb0ELb0ELb1EEEEC1EmRKS9_RKS7_RKS3_+0xa0>
    45f0:	48 8b 55 e8          	mov    -0x18(%rbp),%rdx
    45f4:	48 8b 45 d8          	mov    -0x28(%rbp),%rax
    45f8:	48 89 d6             	mov    %rdx,%rsi
    45fb:	48 89 c7             	mov    %rax,%rdi
    45fe:	e8 81 02 00 00       	call   4884 <_ZNSt10_HashtableIcSt4pairIKciESaIS2_ENSt8__detail10_Select1stESt8equal_toIcESt4hashIcENS4_18_Mod_range_hashingENS4_20_Default_ranged_hashENS4_20_Prime_rehash_policyENS4_17_Hashtable_traitsILb0ELb0ELb1EEEE19_M_allocate_bucketsEm>
    4603:	48 8b 55 d8          	mov    -0x28(%rbp),%rdx
    4607:	48 89 02             	mov    %rax,(%rdx)
    460a:	48 8b 45 d8          	mov    -0x28(%rbp),%rax
    460e:	48 8b 55 e8          	mov    -0x18(%rbp),%rdx
    4612:	48 89 50 08          	mov    %rdx,0x8(%rax)
    4616:	eb 1a                	jmp    4632 <_ZNSt10_HashtableIcSt4pairIKciESaIS2_ENSt8__detail10_Select1stESt8equal_toIcESt4hashIcENS4_18_Mod_range_hashingENS4_20_Default_ranged_hashENS4_20_Prime_rehash_policyENS4_17_Hashtable_traitsILb0ELb0ELb1EEEEC1EmRKS9_RKS7_RKS3_+0xa0>
    4618:	48 89 c3             	mov    %rax,%rbx
    461b:	48 8b 45 d8          	mov    -0x28(%rbp),%rax
    461f:	48 89 c7             	mov    %rax,%rdi
    4622:	e8 cb fd ff ff       	call   43f2 <_ZNSt10_HashtableIcSt4pairIKciESaIS2_ENSt8__detail10_Select1stESt8equal_toIcESt4hashIcENS4_18_Mod_range_hashingENS4_20_Default_ranged_hashENS4_20_Prime_rehash_policyENS4_17_Hashtable_traitsILb0ELb0ELb1EEEED1Ev>
    4627:	48 89 d8             	mov    %rbx,%rax
    462a:	48 89 c7             	mov    %rax,%rdi
    462d:	e8 9e ed ff ff       	call   33d0 <_Unwind_Resume@plt>
    4632:	90                   	nop
    4633:	48 8b 5d f8          	mov    -0x8(%rbp),%rbx
    4637:	c9                   	leave
    4638:	c3                   	ret
    4639:	90                   	nop

000000000000463a <_ZNSt8__detail12_Insert_baseIcSt4pairIKciESaIS3_ENS_10_Select1stESt8equal_toIcESt4hashIcENS_18_Mod_range_hashingENS_20_Default_ranged_hashENS_20_Prime_rehash_policyENS_17_Hashtable_traitsILb0ELb0ELb1EEEE6insertIPKS3_EEvT_SJ_>:
    463a:	55                   	push   %rbp
    463b:	48 89 e5             	mov    %rsp,%rbp
    463e:	48 83 ec 40          	sub    $0x40,%rsp
    4642:	48 89 7d d8          	mov    %rdi,-0x28(%rbp)
    4646:	48 89 75 d0          	mov    %rsi,-0x30(%rbp)
    464a:	48 89 55 c8          	mov    %rdx,-0x38(%rbp)
    464e:	64 48 8b 04 25 28 00 	mov    %fs:0x28,%rax
    4655:	00 00 
    4657:	48 89 45 f8          	mov    %rax,-0x8(%rbp)
    465b:	31 c0                	xor    %eax,%eax
    465d:	48 8b 45 d8          	mov    -0x28(%rbp),%rax
    4661:	48 89 c7             	mov    %rax,%rdi
    4664:	e8 67 02 00 00       	call   48d0 <_ZNSt8__detail12_Insert_baseIcSt4pairIKciESaIS3_ENS_10_Select1stESt8equal_toIcESt4hashIcENS_18_Mod_range_hashingENS_20_Default_ranged_hashENS_20_Prime_rehash_policyENS_17_Hashtable_traitsILb0ELb0ELb1EEEE20_M_conjure_hashtableEv>
    4669:	48 89 45 f0          	mov    %rax,-0x10(%rbp)
    466d:	48 8b 55 f0          	mov    -0x10(%rbp),%rdx
    4671:	48 8d 45 e8          	lea    -0x18(%rbp),%rax
    4675:	48 89 d6             	mov    %rdx,%rsi
    4678:	48 89 c7             	mov    %rax,%rdi
    467b:	e8 5e 02 00 00       	call   48de <_ZNSt8__detail10_AllocNodeISaINS_10_Hash_nodeISt4pairIKciELb0EEEEEC1ERNS_16_Hashtable_allocIS6_EE>
    4680:	48 8d 45 e8          	lea    -0x18(%rbp),%rax
    4684:	48 8b 55 c8          	mov    -0x38(%rbp),%rdx
    4688:	48 8b 75 d0          	mov    -0x30(%rbp),%rsi
    468c:	48 8b 7d d8          	mov    -0x28(%rbp),%rdi
    4690:	48 89 c1             	mov    %rax,%rcx
    4693:	e8 60 02 00 00       	call   48f8 <_ZNSt8__detail12_Insert_baseIcSt4pairIKciESaIS3_ENS_10_Select1stESt8equal_toIcESt4hashIcENS_18_Mod_range_hashingENS_20_Default_ranged_hashENS_20_Prime_rehash_policyENS_17_Hashtable_traitsILb0ELb0ELb1EEEE15_M_insert_rangeIPKS3_NS_10_AllocNodeISaINS_10_Hash_nodeIS3_Lb0EEEEEEEEvT_SO_RKT0_St17integral_constantIbLb1EE>
    4698:	90                   	nop
    4699:	48 8b 45 f8          	mov    -0x8(%rbp),%rax
    469d:	64 48 2b 04 25 28 00 	sub    %fs:0x28,%rax
    46a4:	00 00 
    46a6:	74 05                	je     46ad <_ZNSt8__detail12_Insert_baseIcSt4pairIKciESaIS3_ENS_10_Select1stESt8equal_toIcESt4hashIcENS_18_Mod_range_hashingENS_20_Default_ranged_hashENS_20_Prime_rehash_policyENS_17_Hashtable_traitsILb0ELb0ELb1EEEE6insertIPKS3_EEvT_SJ_+0x73>
    46a8:	e8 f3 eb ff ff       	call   32a0 <__stack_chk_fail@plt>
    46ad:	c9                   	leave
    46ae:	c3                   	ret
    46af:	90                   	nop

00000000000046b0 <_ZNSt15__new_allocatorINSt8__detail10_Hash_nodeISt4pairIKciELb0EEEED1Ev>:
    46b0:	55                   	push   %rbp
    46b1:	48 89 e5             	mov    %rsp,%rbp
    46b4:	48 89 7d f8          	mov    %rdi,-0x8(%rbp)
    46b8:	90                   	nop
    46b9:	5d                   	pop    %rbp
    46ba:	c3                   	ret
    46bb:	90                   	nop

00000000000046bc <_ZNKSt10_HashtableIcSt4pairIKciESaIS2_ENSt8__detail10_Select1stESt8equal_toIcESt4hashIcENS4_18_Mod_range_hashingENS4_20_Default_ranged_hashENS4_20_Prime_rehash_policyENS4_17_Hashtable_traitsILb0ELb0ELb1EEEE8_M_beginEv>:
    46bc:	55                   	push   %rbp
    46bd:	48 89 e5             	mov    %rsp,%rbp
    46c0:	48 89 7d f8          	mov    %rdi,-0x8(%rbp)
    46c4:	48 8b 45 f8          	mov    -0x8(%rbp),%rax
    46c8:	48 8b 40 10          	mov    0x10(%rax),%rax
    46cc:	5d                   	pop    %rbp
    46cd:	c3                   	ret

00000000000046ce <_ZNSt8__detail16_Hashtable_allocISaINS_10_Hash_nodeISt4pairIKciELb0EEEEE19_M_deallocate_nodesEPS5_>:
    46ce:	55                   	push   %rbp
    46cf:	48 89 e5             	mov    %rsp,%rbp
    46d2:	48 83 ec 20          	sub    $0x20,%rsp
    46d6:	48 89 7d e8          	mov    %rdi,-0x18(%rbp)
    46da:	48 89 75 e0          	mov    %rsi,-0x20(%rbp)
    46de:	eb 2b                	jmp    470b <_ZNSt8__detail16_Hashtable_allocISaINS_10_Hash_nodeISt4pairIKciELb0EEEEE19_M_deallocate_nodesEPS5_+0x3d>
    46e0:	48 8b 45 e0          	mov    -0x20(%rbp),%rax
    46e4:	48 89 45 f8          	mov    %rax,-0x8(%rbp)
    46e8:	48 8b 45 e0          	mov    -0x20(%rbp),%rax
    46ec:	48 89 c7             	mov    %rax,%rdi
    46ef:	e8 58 02 00 00       	call   494c <_ZNKSt8__detail10_Hash_nodeISt4pairIKciELb0EE7_M_nextEv>
    46f4:	48 89 45 e0          	mov    %rax,-0x20(%rbp)
    46f8:	48 8b 55 f8          	mov    -0x8(%rbp),%rdx
    46fc:	48 8b 45 e8          	mov    -0x18(%rbp),%rax
    4700:	48 89 d6             	mov    %rdx,%rsi
    4703:	48 89 c7             	mov    %rax,%rdi
    4706:	e8 53 02 00 00       	call   495e <_ZNSt8__detail16_Hashtable_allocISaINS_10_Hash_nodeISt4pairIKciELb0EEEEE18_M_deallocate_nodeEPS5_>
    470b:	48 83 7d e0 00       	cmpq   $0x0,-0x20(%rbp)
    4710:	75 ce                	jne    46e0 <_ZNSt8__detail16_Hashtable_allocISaINS_10_Hash_nodeISt4pairIKciELb0EEEEE19_M_deallocate_nodesEPS5_+0x12>
    4712:	90                   	nop
    4713:	90                   	nop
    4714:	c9                   	leave
    4715:	c3                   	ret

0000000000004716 <_ZNSt10_HashtableIcSt4pairIKciESaIS2_ENSt8__detail10_Select1stESt8equal_toIcESt4hashIcENS4_18_Mod_range_hashingENS4_20_Default_ranged_hashENS4_20_Prime_rehash_policyENS4_17_Hashtable_traitsILb0ELb0ELb1EEEE21_M_deallocate_bucketsEPPNS4_15_Hash_node_baseEm>:
    4716:	55                   	push   %rbp
    4717:	48 89 e5             	mov    %rsp,%rbp
    471a:	48 83 ec 20          	sub    $0x20,%rsp
    471e:	48 89 7d f8          	mov    %rdi,-0x8(%rbp)
    4722:	48 89 75 f0          	mov    %rsi,-0x10(%rbp)
    4726:	48 89 55 e8          	mov    %rdx,-0x18(%rbp)
    472a:	48 8b 55 f0          	mov    -0x10(%rbp),%rdx
    472e:	48 8b 45 f8          	mov    -0x8(%rbp),%rax
    4732:	48 89 d6             	mov    %rdx,%rsi
    4735:	48 89 c7             	mov    %rax,%rdi
    4738:	e8 85 02 00 00       	call   49c2 <_ZNKSt10_HashtableIcSt4pairIKciESaIS2_ENSt8__detail10_Select1stESt8equal_toIcESt4hashIcENS4_18_Mod_range_hashingENS4_20_Default_ranged_hashENS4_20_Prime_rehash_policyENS4_17_Hashtable_traitsILb0ELb0ELb1EEEE21_M_uses_single_bucketEPPNS4_15_Hash_node_baseE>
    473d:	84 c0                	test   %al,%al
    473f:	75 19                	jne    475a <_ZNSt10_HashtableIcSt4pairIKciESaIS2_ENSt8__detail10_Select1stESt8equal_toIcESt4hashIcENS4_18_Mod_range_hashingENS4_20_Default_ranged_hashENS4_20_Prime_rehash_policyENS4_17_Hashtable_traitsILb0ELb0ELb1EEEE21_M_deallocate_bucketsEPPNS4_15_Hash_node_baseEm+0x44>
    4741:	48 8b 55 e8          	mov    -0x18(%rbp),%rdx
    4745:	48 8b 4d f0          	mov    -0x10(%rbp),%rcx
    4749:	48 8b 45 f8          	mov    -0x8(%rbp),%rax
    474d:	48 89 ce             	mov    %rcx,%rsi
    4750:	48 89 c7             	mov    %rax,%rdi
    4753:	e8 90 02 00 00       	call   49e8 <_ZNSt8__detail16_Hashtable_allocISaINS_10_Hash_nodeISt4pairIKciELb0EEEEE21_M_deallocate_bucketsEPPNS_15_Hash_node_baseEm>
    4758:	eb 01                	jmp    475b <_ZNSt10_HashtableIcSt4pairIKciESaIS2_ENSt8__detail10_Select1stESt8equal_toIcESt4hashIcENS4_18_Mod_range_hashingENS4_20_Default_ranged_hashENS4_20_Prime_rehash_policyENS4_17_Hashtable_traitsILb0ELb0ELb1EEEE21_M_deallocate_bucketsEPPNS4_15_Hash_node_baseEm+0x45>
    475a:	90                   	nop
    475b:	c9                   	leave
    475c:	c3                   	ret
    475d:	90                   	nop

000000000000475e <_ZNSt10_HashtableIcSt4pairIKciESaIS2_ENSt8__detail10_Select1stESt8equal_toIcESt4hashIcENS4_18_Mod_range_hashingENS4_20_Default_ranged_hashENS4_20_Prime_rehash_policyENS4_17_Hashtable_traitsILb0ELb0ELb1EEEEC1ERKS9_RKS7_RKS3_>:
    475e:	55                   	push   %rbp
    475f:	48 89 e5             	mov    %rsp,%rbp
    4762:	53                   	push   %rbx
    4763:	48 83 ec 48          	sub    $0x48,%rsp
    4767:	48 89 7d c8          	mov    %rdi,-0x38(%rbp)
    476b:	48 89 75 c0          	mov    %rsi,-0x40(%rbp)
    476f:	48 89 55 b8          	mov    %rdx,-0x48(%rbp)
    4773:	48 89 4d b0          	mov    %rcx,-0x50(%rbp)
    4777:	64 48 8b 04 25 28 00 	mov    %fs:0x28,%rax
    477e:	00 00 
    4780:	48 89 45 e8          	mov    %rax,-0x18(%rbp)
    4784:	31 c0                	xor    %eax,%eax
    4786:	48 8b 55 b8          	mov    -0x48(%rbp),%rdx
    478a:	48 8b 4d c0          	mov    -0x40(%rbp),%rcx
    478e:	48 8b 45 c8          	mov    -0x38(%rbp),%rax
    4792:	48 89 ce             	mov    %rcx,%rsi
    4795:	48 89 c7             	mov    %rax,%rdi
    4798:	e8 e5 02 00 00       	call   4a82 <_ZNSt8__detail15_Hashtable_baseIcSt4pairIKciENS_10_Select1stESt8equal_toIcESt4hashIcENS_18_Mod_range_hashingENS_20_Default_ranged_hashENS_17_Hashtable_traitsILb0ELb0ELb1EEEEC1ERKS8_RKS6_>
    479d:	48 8b 45 b0          	mov    -0x50(%rbp),%rax
    47a1:	48 89 45 d8          	mov    %rax,-0x28(%rbp)
    47a5:	48 8d 45 d7          	lea    -0x29(%rbp),%rax
    47a9:	48 89 45 e0          	mov    %rax,-0x20(%rbp)
    47ad:	90                   	nop
    47ae:	90                   	nop
    47af:	48 8d 45 d7          	lea    -0x29(%rbp),%rax
    47b3:	48 8b 55 c8          	mov    -0x38(%rbp),%rdx
    47b7:	48 89 c6             	mov    %rax,%rsi
    47ba:	48 89 d7             	mov    %rdx,%rdi
    47bd:	e8 fe 02 00 00       	call   4ac0 <_ZNSt8__detail16_Hashtable_allocISaINS_10_Hash_nodeISt4pairIKciELb0EEEEEC1IS6_EEOT_>
    47c2:	48 8d 45 d7          	lea    -0x29(%rbp),%rax
    47c6:	48 89 c7             	mov    %rax,%rdi
    47c9:	e8 e2 fe ff ff       	call   46b0 <_ZNSt15__new_allocatorINSt8__detail10_Hash_nodeISt4pairIKciELb0EEEED1Ev>
    47ce:	90                   	nop
    47cf:	48 8b 45 c8          	mov    -0x38(%rbp),%rax
    47d3:	48 89 c7             	mov    %rax,%rdi
    47d6:	e8 17 03 00 00       	call   4af2 <_ZNSt27_Enable_default_constructorILb1ENSt8__detail15_Hash_node_baseEEC1ESt31_Enable_default_constructor_tag>
    47db:	48 8b 45 c8          	mov    -0x38(%rbp),%rax
    47df:	48 8d 50 30          	lea    0x30(%rax),%rdx
    47e3:	48 8b 45 c8          	mov    -0x38(%rbp),%rax
    47e7:	48 89 10             	mov    %rdx,(%rax)
    47ea:	48 8b 45 c8          	mov    -0x38(%rbp),%rax
    47ee:	48 c7 40 08 01 00 00 	movq   $0x1,0x8(%rax)
    47f5:	00 
    47f6:	48 8b 45 c8          	mov    -0x38(%rbp),%rax
    47fa:	48 83 c0 10          	add    $0x10,%rax
    47fe:	48 89 c7             	mov    %rax,%rdi
    4801:	e8 3a f9 ff ff       	call   4140 <_ZNSt8__detail15_Hash_node_baseC1Ev>
    4806:	48 8b 45 c8          	mov    -0x38(%rbp),%rax
    480a:	48 c7 40 18 00 00 00 	movq   $0x0,0x18(%rax)
    4811:	00 
    4812:	48 8b 45 c8          	mov    -0x38(%rbp),%rax
    4816:	48 8d 50 20          	lea    0x20(%rax),%rdx
    481a:	8b 05 2c ca 00 00    	mov    0xca2c(%rip),%eax        # 1124c <_ZNSt8__detail30__integer_to_chars_is_unsignedIyEE+0x2>
    4820:	c5 f9 6e c0          	vmovd  %eax,%xmm0
    4824:	48 89 d7             	mov    %rdx,%rdi
    4827:	e8 4c f9 ff ff       	call   4178 <_ZNSt8__detail20_Prime_rehash_policyC1Ef>
    482c:	48 8b 45 c8          	mov    -0x38(%rbp),%rax
    4830:	48 c7 40 30 00 00 00 	movq   $0x0,0x30(%rax)
    4837:	00 
    4838:	90                   	nop
    4839:	48 8b 45 e8          	mov    -0x18(%rbp),%rax
    483d:	64 48 2b 04 25 28 00 	sub    %fs:0x28,%rax
    4844:	00 00 
    4846:	74 36                	je     487e <_ZNSt10_HashtableIcSt4pairIKciESaIS2_ENSt8__detail10_Select1stESt8equal_toIcESt4hashIcENS4_18_Mod_range_hashingENS4_20_Default_ranged_hashENS4_20_Prime_rehash_policyENS4_17_Hashtable_traitsILb0ELb0ELb1EEEEC1ERKS9_RKS7_RKS3_+0x120>
    4848:	eb 2f                	jmp    4879 <_ZNSt10_HashtableIcSt4pairIKciESaIS2_ENSt8__detail10_Select1stESt8equal_toIcESt4hashIcENS4_18_Mod_range_hashingENS4_20_Default_ranged_hashENS4_20_Prime_rehash_policyENS4_17_Hashtable_traitsILb0ELb0ELb1EEEEC1ERKS9_RKS7_RKS3_+0x11b>
    484a:	48 89 c3             	mov    %rax,%rbx
    484d:	48 8d 45 d7          	lea    -0x29(%rbp),%rax
    4851:	48 89 c7             	mov    %rax,%rdi
    4854:	e8 57 fe ff ff       	call   46b0 <_ZNSt15__new_allocatorINSt8__detail10_Hash_nodeISt4pairIKciELb0EEEED1Ev>
    4859:	90                   	nop
    485a:	48 89 d8             	mov    %rbx,%rax
    485d:	48 8b 55 e8          	mov    -0x18(%rbp),%rdx
    4861:	64 48 2b 14 25 28 00 	sub    %fs:0x28,%rdx
    4868:	00 00 
    486a:	74 05                	je     4871 <_ZNSt10_HashtableIcSt4pairIKciESaIS2_ENSt8__detail10_Select1stESt8equal_toIcESt4hashIcENS4_18_Mod_range_hashingENS4_20_Default_ranged_hashENS4_20_Prime_rehash_policyENS4_17_Hashtable_traitsILb0ELb0ELb1EEEEC1ERKS9_RKS7_RKS3_+0x113>
    486c:	e8 2f ea ff ff       	call   32a0 <__stack_chk_fail@plt>
    4871:	48 89 c7             	mov    %rax,%rdi
    4874:	e8 57 eb ff ff       	call   33d0 <_Unwind_Resume@plt>
    4879:	e8 22 ea ff ff       	call   32a0 <__stack_chk_fail@plt>
    487e:	48 8b 5d f8          	mov    -0x8(%rbp),%rbx
    4882:	c9                   	leave
    4883:	c3                   	ret

0000000000004884 <_ZNSt10_HashtableIcSt4pairIKciESaIS2_ENSt8__detail10_Select1stESt8equal_toIcESt4hashIcENS4_18_Mod_range_hashingENS4_20_Default_ranged_hashENS4_20_Prime_rehash_policyENS4_17_Hashtable_traitsILb0ELb0ELb1EEEE19_M_allocate_bucketsEm>:
    4884:	55                   	push   %rbp
    4885:	48 89 e5             	mov    %rsp,%rbp
    4888:	48 83 ec 10          	sub    $0x10,%rsp
    488c:	48 89 7d f8          	mov    %rdi,-0x8(%rbp)
    4890:	48 89 75 f0          	mov    %rsi,-0x10(%rbp)
    4894:	48 83 7d f0 01       	cmpq   $0x1,-0x10(%rbp)
    4899:	0f 94 c0             	sete   %al
    489c:	0f b6 c0             	movzbl %al,%eax
    489f:	48 85 c0             	test   %rax,%rax
    48a2:	74 16                	je     48ba <_ZNSt10_HashtableIcSt4pairIKciESaIS2_ENSt8__detail10_Select1stESt8equal_toIcESt4hashIcENS4_18_Mod_range_hashingENS4_20_Default_ranged_hashENS4_20_Prime_rehash_policyENS4_17_Hashtable_traitsILb0ELb0ELb1EEEE19_M_allocate_bucketsEm+0x36>
    48a4:	48 8b 45 f8          	mov    -0x8(%rbp),%rax
    48a8:	48 c7 40 30 00 00 00 	movq   $0x0,0x30(%rax)
    48af:	00 
    48b0:	48 8b 45 f8          	mov    -0x8(%rbp),%rax
    48b4:	48 83 c0 30          	add    $0x30,%rax
    48b8:	eb 14                	jmp    48ce <_ZNSt10_HashtableIcSt4pairIKciESaIS2_ENSt8__detail10_Select1stESt8equal_toIcESt4hashIcENS4_18_Mod_range_hashingENS4_20_Default_ranged_hashENS4_20_Prime_rehash_policyENS4_17_Hashtable_traitsILb0ELb0ELb1EEEE19_M_allocate_bucketsEm+0x4a>
    48ba:	48 8b 55 f0          	mov    -0x10(%rbp),%rdx
    48be:	48 8b 45 f8          	mov    -0x8(%rbp),%rax
    48c2:	48 89 d6             	mov    %rdx,%rsi
    48c5:	48 89 c7             	mov    %rax,%rdi
    48c8:	e8 31 02 00 00       	call   4afe <_ZNSt8__detail16_Hashtable_allocISaINS_10_Hash_nodeISt4pairIKciELb0EEEEE19_M_allocate_bucketsEm>
    48cd:	90                   	nop
    48ce:	c9                   	leave
    48cf:	c3                   	ret

00000000000048d0 <_ZNSt8__detail12_Insert_baseIcSt4pairIKciESaIS3_ENS_10_Select1stESt8equal_toIcESt4hashIcENS_18_Mod_range_hashingENS_20_Default_ranged_hashENS_20_Prime_rehash_policyENS_17_Hashtable_traitsILb0ELb0ELb1EEEE20_M_conjure_hashtableEv>:
    48d0:	55                   	push   %rbp
    48d1:	48 89 e5             	mov    %rsp,%rbp
    48d4:	48 89 7d f8          	mov    %rdi,-0x8(%rbp)
    48d8:	48 8b 45 f8          	mov    -0x8(%rbp),%rax
    48dc:	5d                   	pop    %rbp
    48dd:	c3                   	ret

00000000000048de <_ZNSt8__detail10_AllocNodeISaINS_10_Hash_nodeISt4pairIKciELb0EEEEEC1ERNS_16_Hashtable_allocIS6_EE>:
    48de:	55                   	push   %rbp
    48df:	48 89 e5             	mov    %rsp,%rbp
    48e2:	48 89 7d f8          	mov    %rdi,-0x8(%rbp)
    48e6:	48 89 75 f0          	mov    %rsi,-0x10(%rbp)
    48ea:	48 8b 45 f8          	mov    -0x8(%rbp),%rax
    48ee:	48 8b 55 f0          	mov    -0x10(%rbp),%rdx
    48f2:	48 89 10             	mov    %rdx,(%rax)
    48f5:	90                   	nop
    48f6:	5d                   	pop    %rbp
    48f7:	c3                   	ret

00000000000048f8 <_ZNSt8__detail12_Insert_baseIcSt4pairIKciESaIS3_ENS_10_Select1stESt8equal_toIcESt4hashIcENS_18_Mod_range_hashingENS_20_Default_ranged_hashENS_20_Prime_rehash_policyENS_17_Hashtable_traitsILb0ELb0ELb1EEEE15_M_insert_rangeIPKS3_NS_10_AllocNodeISaINS_10_Hash_nodeIS3_Lb0EEEEEEEEvT_SO_RKT0_St17integral_constantIbLb1EE>:
    48f8:	55                   	push   %rbp
    48f9:	48 89 e5             	mov    %rsp,%rbp
    48fc:	48 83 ec 40          	sub    $0x40,%rsp
    4900:	48 89 7d e8          	mov    %rdi,-0x18(%rbp)
    4904:	48 89 75 e0          	mov    %rsi,-0x20(%rbp)
    4908:	48 89 55 d8          	mov    %rdx,-0x28(%rbp)
    490c:	48 89 4d d0          	mov    %rcx,-0x30(%rbp)
    4910:	48 8b 45 e8          	mov    -0x18(%rbp),%rax
    4914:	48 89 c7             	mov    %rax,%rdi
    4917:	e8 b4 ff ff ff       	call   48d0 <_ZNSt8__detail12_Insert_baseIcSt4pairIKciESaIS3_ENS_10_Select1stESt8equal_toIcESt4hashIcENS_18_Mod_range_hashingENS_20_Default_ranged_hashENS_20_Prime_rehash_policyENS_17_Hashtable_traitsILb0ELb0ELb1EEEE20_M_conjure_hashtableEv>
    491c:	48 89 45 f8          	mov    %rax,-0x8(%rbp)
    4920:	eb 1c                	jmp    493e <_ZNSt8__detail12_Insert_baseIcSt4pairIKciESaIS3_ENS_10_Select1stESt8equal_toIcESt4hashIcENS_18_Mod_range_hashingENS_20_Default_ranged_hashENS_20_Prime_rehash_policyENS_17_Hashtable_traitsILb0ELb0ELb1EEEE15_M_insert_rangeIPKS3_NS_10_AllocNodeISaINS_10_Hash_nodeIS3_Lb0EEEEEEEEvT_SO_RKT0_St17integral_constantIbLb1EE+0x46>
    4922:	48 8b 55 d0          	mov    -0x30(%rbp),%rdx
    4926:	48 8b 4d e0          	mov    -0x20(%rbp),%rcx
    492a:	48 8b 45 f8          	mov    -0x8(%rbp),%rax
    492e:	48 89 ce             	mov    %rcx,%rsi
    4931:	48 89 c7             	mov    %rax,%rdi
    4934:	e8 b3 02 00 00       	call   4bec <_ZNSt10_HashtableIcSt4pairIKciESaIS2_ENSt8__detail10_Select1stESt8equal_toIcESt4hashIcENS4_18_Mod_range_hashingENS4_20_Default_ranged_hashENS4_20_Prime_rehash_policyENS4_17_Hashtable_traitsILb0ELb0ELb1EEEE9_M_insertIRKS2_NS4_10_AllocNodeISaINS4_10_Hash_nodeIS2_Lb0EEEEEEEES0_INS4_14_Node_iteratorIS2_Lb0ELb0EEEbEOT_RKT0_St17integral_constantIbLb1EE>
    4939:	48 83 45 e0 08       	addq   $0x8,-0x20(%rbp)
    493e:	48 8b 45 e0          	mov    -0x20(%rbp),%rax
    4942:	48 3b 45 d8          	cmp    -0x28(%rbp),%rax
    4946:	75 da                	jne    4922 <_ZNSt8__detail12_Insert_baseIcSt4pairIKciESaIS3_ENS_10_Select1stESt8equal_toIcESt4hashIcENS_18_Mod_range_hashingENS_20_Default_ranged_hashENS_20_Prime_rehash_policyENS_17_Hashtable_traitsILb0ELb0ELb1EEEE15_M_insert_rangeIPKS3_NS_10_AllocNodeISaINS_10_Hash_nodeIS3_Lb0EEEEEEEEvT_SO_RKT0_St17integral_constantIbLb1EE+0x2a>
    4948:	90                   	nop
    4949:	90                   	nop
    494a:	c9                   	leave
    494b:	c3                   	ret

000000000000494c <_ZNKSt8__detail10_Hash_nodeISt4pairIKciELb0EE7_M_nextEv>:
    494c:	55                   	push   %rbp
    494d:	48 89 e5             	mov    %rsp,%rbp
    4950:	48 89 7d f8          	mov    %rdi,-0x8(%rbp)
    4954:	48 8b 45 f8          	mov    -0x8(%rbp),%rax
    4958:	48 8b 00             	mov    (%rax),%rax
    495b:	5d                   	pop    %rbp
    495c:	c3                   	ret
    495d:	90                   	nop

000000000000495e <_ZNSt8__detail16_Hashtable_allocISaINS_10_Hash_nodeISt4pairIKciELb0EEEEE18_M_deallocate_nodeEPS5_>:
    495e:	55                   	push   %rbp
    495f:	48 89 e5             	mov    %rsp,%rbp
    4962:	53                   	push   %rbx
    4963:	48 83 ec 38          	sub    $0x38,%rsp
    4967:	48 89 7d c8          	mov    %rdi,-0x38(%rbp)
    496b:	48 89 75 c0          	mov    %rsi,-0x40(%rbp)
    496f:	48 8b 45 c0          	mov    -0x40(%rbp),%rax
    4973:	48 83 c0 08          	add    $0x8,%rax
    4977:	48 89 c7             	mov    %rax,%rdi
    497a:	e8 f5 02 00 00       	call   4c74 <_ZNSt8__detail21_Hash_node_value_baseISt4pairIKciEE9_M_valptrEv>
    497f:	48 89 c3             	mov    %rax,%rbx
    4982:	48 8b 45 c8          	mov    -0x38(%rbp),%rax
    4986:	48 89 c7             	mov    %rax,%rdi
    4989:	e8 cc 02 00 00       	call   4c5a <_ZNSt8__detail16_Hashtable_allocISaINS_10_Hash_nodeISt4pairIKciELb0EEEEE17_M_node_allocatorEv>
    498e:	48 89 45 d0          	mov    %rax,-0x30(%rbp)
    4992:	48 89 5d d8          	mov    %rbx,-0x28(%rbp)
    4996:	48 8b 45 d0          	mov    -0x30(%rbp),%rax
    499a:	48 89 45 e0          	mov    %rax,-0x20(%rbp)
    499e:	48 8b 45 d8          	mov    -0x28(%rbp),%rax
    49a2:	48 89 45 e8          	mov    %rax,-0x18(%rbp)
    49a6:	90                   	nop
    49a7:	90                   	nop
    49a8:	48 8b 55 c0          	mov    -0x40(%rbp),%rdx
    49ac:	48 8b 45 c8          	mov    -0x38(%rbp),%rax
    49b0:	48 89 d6             	mov    %rdx,%rsi
    49b3:	48 89 c7             	mov    %rax,%rdi
    49b6:	e8 d3 02 00 00       	call   4c8e <_ZNSt8__detail16_Hashtable_allocISaINS_10_Hash_nodeISt4pairIKciELb0EEEEE22_M_deallocate_node_ptrEPS5_>
    49bb:	90                   	nop
    49bc:	48 8b 5d f8          	mov    -0x8(%rbp),%rbx
    49c0:	c9                   	leave
    49c1:	c3                   	ret

00000000000049c2 <_ZNKSt10_HashtableIcSt4pairIKciESaIS2_ENSt8__detail10_Select1stESt8equal_toIcESt4hashIcENS4_18_Mod_range_hashingENS4_20_Default_ranged_hashENS4_20_Prime_rehash_policyENS4_17_Hashtable_traitsILb0ELb0ELb1EEEE21_M_uses_single_bucketEPPNS4_15_Hash_node_baseE>:
    49c2:	55                   	push   %rbp
    49c3:	48 89 e5             	mov    %rsp,%rbp
    49c6:	48 89 7d f8          	mov    %rdi,-0x8(%rbp)
    49ca:	48 89 75 f0          	mov    %rsi,-0x10(%rbp)
    49ce:	48 8b 45 f8          	mov    -0x8(%rbp),%rax
    49d2:	48 83 c0 30          	add    $0x30,%rax
    49d6:	48 39 45 f0          	cmp    %rax,-0x10(%rbp)
    49da:	0f 94 c0             	sete   %al
    49dd:	0f b6 c0             	movzbl %al,%eax
    49e0:	48 85 c0             	test   %rax,%rax
    49e3:	0f 95 c0             	setne  %al
    49e6:	5d                   	pop    %rbp
    49e7:	c3                   	ret

00000000000049e8 <_ZNSt8__detail16_Hashtable_allocISaINS_10_Hash_nodeISt4pairIKciELb0EEEEE21_M_deallocate_bucketsEPPNS_15_Hash_node_baseEm>:
    49e8:	55                   	push   %rbp
    49e9:	48 89 e5             	mov    %rsp,%rbp
    49ec:	48 83 ec 60          	sub    $0x60,%rsp
    49f0:	48 89 7d b8          	mov    %rdi,-0x48(%rbp)
    49f4:	48 89 75 b0          	mov    %rsi,-0x50(%rbp)
    49f8:	48 89 55 a8          	mov    %rdx,-0x58(%rbp)
    49fc:	64 48 8b 04 25 28 00 	mov    %fs:0x28,%rax
    4a03:	00 00 
    4a05:	48 89 45 f8          	mov    %rax,-0x8(%rbp)
    4a09:	31 c0                	xor    %eax,%eax
    4a0b:	48 8b 45 b0          	mov    -0x50(%rbp),%rax
    4a0f:	48 89 c7             	mov    %rax,%rdi
    4a12:	e8 d2 02 00 00       	call   4ce9 <_ZNSt19__ptr_traits_ptr_toIPPNSt8__detail15_Hash_node_baseES2_Lb0EE10pointer_toERS2_>
    4a17:	48 89 45 d0          	mov    %rax,-0x30(%rbp)
    4a1b:	48 8b 45 b8          	mov    -0x48(%rbp),%rax
    4a1f:	48 89 c7             	mov    %rax,%rdi
    4a22:	e8 33 02 00 00       	call   4c5a <_ZNSt8__detail16_Hashtable_allocISaINS_10_Hash_nodeISt4pairIKciELb0EEEEE17_M_node_allocatorEv>
    4a27:	48 89 45 e8          	mov    %rax,-0x18(%rbp)
    4a2b:	48 8d 45 cf          	lea    -0x31(%rbp),%rax
    4a2f:	48 89 45 f0          	mov    %rax,-0x10(%rbp)
    4a33:	90                   	nop
    4a34:	90                   	nop
    4a35:	48 8b 45 d0          	mov    -0x30(%rbp),%rax
    4a39:	48 89 45 d8          	mov    %rax,-0x28(%rbp)
    4a3d:	48 8b 45 a8          	mov    -0x58(%rbp),%rax
    4a41:	48 89 45 e0          	mov    %rax,-0x20(%rbp)
    4a45:	48 8b 55 e0          	mov    -0x20(%rbp),%rdx
    4a49:	48 8b 4d d8          	mov    -0x28(%rbp),%rcx
    4a4d:	48 8d 45 cf          	lea    -0x31(%rbp),%rax
    4a51:	48 89 ce             	mov    %rcx,%rsi
    4a54:	48 89 c7             	mov    %rax,%rdi
    4a57:	e8 5c 04 00 00       	call   4eb8 <_ZNSt15__new_allocatorIPNSt8__detail15_Hash_node_baseEE10deallocateEPS2_m>
    4a5c:	90                   	nop
    4a5d:	48 8d 45 cf          	lea    -0x31(%rbp),%rax
    4a61:	48 89 c7             	mov    %rax,%rdi
    4a64:	e8 43 04 00 00       	call   4eac <_ZNSt15__new_allocatorIPNSt8__detail15_Hash_node_baseEED1Ev>
    4a69:	90                   	nop
    4a6a:	90                   	nop
    4a6b:	48 8b 45 f8          	mov    -0x8(%rbp),%rax
    4a6f:	64 48 2b 04 25 28 00 	sub    %fs:0x28,%rax
    4a76:	00 00 
    4a78:	74 05                	je     4a7f <_ZNSt8__detail16_Hashtable_allocISaINS_10_Hash_nodeISt4pairIKciELb0EEEEE21_M_deallocate_bucketsEPPNS_15_Hash_node_baseEm+0x97>
    4a7a:	e8 21 e8 ff ff       	call   32a0 <__stack_chk_fail@plt>
    4a7f:	c9                   	leave
    4a80:	c3                   	ret
    4a81:	90                   	nop

0000000000004a82 <_ZNSt8__detail15_Hashtable_baseIcSt4pairIKciENS_10_Select1stESt8equal_toIcESt4hashIcENS_18_Mod_range_hashingENS_20_Default_ranged_hashENS_17_Hashtable_traitsILb0ELb0ELb1EEEEC1ERKS8_RKS6_>:
    4a82:	55                   	push   %rbp
    4a83:	48 89 e5             	mov    %rsp,%rbp
    4a86:	48 83 ec 20          	sub    $0x20,%rsp
    4a8a:	48 89 7d f8          	mov    %rdi,-0x8(%rbp)
    4a8e:	48 89 75 f0          	mov    %rsi,-0x10(%rbp)
    4a92:	48 89 55 e8          	mov    %rdx,-0x18(%rbp)
    4a96:	48 8b 55 f0          	mov    -0x10(%rbp),%rdx
    4a9a:	48 8b 45 f8          	mov    -0x8(%rbp),%rax
    4a9e:	48 89 d6             	mov    %rdx,%rsi
    4aa1:	48 89 c7             	mov    %rax,%rdi
    4aa4:	e8 5b 02 00 00       	call   4d04 <_ZNSt8__detail15_Hash_code_baseIcSt4pairIKciENS_10_Select1stESt4hashIcENS_18_Mod_range_hashingENS_20_Default_ranged_hashELb0EEC1ERKS6_>
    4aa9:	48 8b 55 e8          	mov    -0x18(%rbp),%rdx
    4aad:	48 8b 45 f8          	mov    -0x8(%rbp),%rax
    4ab1:	48 89 d6             	mov    %rdx,%rsi
    4ab4:	48 89 c7             	mov    %rax,%rdi
    4ab7:	e8 6e 02 00 00       	call   4d2a <_ZNSt8__detail21_Hashtable_ebo_helperILi0ESt8equal_toIcELb1EEC1IRKS2_EEOT_>
    4abc:	90                   	nop
    4abd:	c9                   	leave
    4abe:	c3                   	ret
    4abf:	90                   	nop

0000000000004ac0 <_ZNSt8__detail16_Hashtable_allocISaINS_10_Hash_nodeISt4pairIKciELb0EEEEEC1IS6_EEOT_>:
    4ac0:	55                   	push   %rbp
    4ac1:	48 89 e5             	mov    %rsp,%rbp
    4ac4:	48 83 ec 10          	sub    $0x10,%rsp
    4ac8:	48 89 7d f8          	mov    %rdi,-0x8(%rbp)
    4acc:	48 89 75 f0          	mov    %rsi,-0x10(%rbp)
    4ad0:	48 8b 45 f0          	mov    -0x10(%rbp),%rax
    4ad4:	48 89 c7             	mov    %rax,%rdi
    4ad7:	e8 6d 02 00 00       	call   4d49 <_ZSt7forwardISaINSt8__detail10_Hash_nodeISt4pairIKciELb0EEEEEOT_RNSt16remove_referenceIS7_E4typeE>
    4adc:	48 89 c2             	mov    %rax,%rdx
    4adf:	48 8b 45 f8          	mov    -0x8(%rbp),%rax
    4ae3:	48 89 d6             	mov    %rdx,%rsi
    4ae6:	48 89 c7             	mov    %rax,%rdi
    4ae9:	e8 6a 02 00 00       	call   4d58 <_ZNSt8__detail21_Hashtable_ebo_helperILi0ESaINS_10_Hash_nodeISt4pairIKciELb0EEEELb1EEC1IS6_EEOT_>
    4aee:	90                   	nop
    4aef:	c9                   	leave
    4af0:	c3                   	ret
    4af1:	90                   	nop

0000000000004af2 <_ZNSt27_Enable_default_constructorILb1ENSt8__detail15_Hash_node_baseEEC1ESt31_Enable_default_constructor_tag>:
    4af2:	55                   	push   %rbp
    4af3:	48 89 e5             	mov    %rsp,%rbp
    4af6:	48 89 7d f8          	mov    %rdi,-0x8(%rbp)
    4afa:	90                   	nop
    4afb:	5d                   	pop    %rbp
    4afc:	c3                   	ret
    4afd:	90                   	nop

0000000000004afe <_ZNSt8__detail16_Hashtable_allocISaINS_10_Hash_nodeISt4pairIKciELb0EEEEE19_M_allocate_bucketsEm>:
    4afe:	55                   	push   %rbp
    4aff:	48 89 e5             	mov    %rsp,%rbp
    4b02:	53                   	push   %rbx
    4b03:	48 83 ec 58          	sub    $0x58,%rsp
    4b07:	48 89 7d a8          	mov    %rdi,-0x58(%rbp)
    4b0b:	48 89 75 a0          	mov    %rsi,-0x60(%rbp)
    4b0f:	64 48 8b 04 25 28 00 	mov    %fs:0x28,%rax
    4b16:	00 00 
    4b18:	48 89 45 e8          	mov    %rax,-0x18(%rbp)
    4b1c:	31 c0                	xor    %eax,%eax
    4b1e:	48 8b 45 a8          	mov    -0x58(%rbp),%rax
    4b22:	48 89 c7             	mov    %rax,%rdi
    4b25:	e8 30 01 00 00       	call   4c5a <_ZNSt8__detail16_Hashtable_allocISaINS_10_Hash_nodeISt4pairIKciELb0EEEEE17_M_node_allocatorEv>
    4b2a:	48 89 45 d8          	mov    %rax,-0x28(%rbp)
    4b2e:	48 8d 45 bf          	lea    -0x41(%rbp),%rax
    4b32:	48 89 45 e0          	mov    %rax,-0x20(%rbp)
    4b36:	90                   	nop
    4b37:	90                   	nop
    4b38:	48 8b 45 a0          	mov    -0x60(%rbp),%rax
    4b3c:	48 89 45 d0          	mov    %rax,-0x30(%rbp)
    4b40:	48 8b 4d d0          	mov    -0x30(%rbp),%rcx
    4b44:	48 8d 45 bf          	lea    -0x41(%rbp),%rax
    4b48:	ba 00 00 00 00       	mov    $0x0,%edx
    4b4d:	48 89 ce             	mov    %rcx,%rsi
    4b50:	48 89 c7             	mov    %rax,%rdi
    4b53:	e8 c0 03 00 00       	call   4f18 <_ZNSt15__new_allocatorIPNSt8__detail15_Hash_node_baseEE8allocateEmPKv>
    4b58:	90                   	nop
    4b59:	48 89 45 c0          	mov    %rax,-0x40(%rbp)
    4b5d:	48 8b 45 c0          	mov    -0x40(%rbp),%rax
    4b61:	48 89 c7             	mov    %rax,%rdi
    4b64:	e8 2c 02 00 00       	call   4d95 <_ZSt12__to_addressIPNSt8__detail15_Hash_node_baseEEPT_S4_>
    4b69:	48 89 45 c8          	mov    %rax,-0x38(%rbp)
    4b6d:	48 8b 45 a0          	mov    -0x60(%rbp),%rax
    4b71:	48 c1 e0 03          	shl    $0x3,%rax
    4b75:	48 8b 55 c8          	mov    -0x38(%rbp),%rdx
    4b79:	48 89 d1             	mov    %rdx,%rcx
    4b7c:	48 89 c2             	mov    %rax,%rdx
    4b7f:	be 00 00 00 00       	mov    $0x0,%esi
    4b84:	48 89 cf             	mov    %rcx,%rdi
    4b87:	e8 84 e5 ff ff       	call   3110 <memset@plt>
    4b8c:	48 8b 5d c8          	mov    -0x38(%rbp),%rbx
    4b90:	48 8d 45 bf          	lea    -0x41(%rbp),%rax
    4b94:	48 89 c7             	mov    %rax,%rdi
    4b97:	e8 10 03 00 00       	call   4eac <_ZNSt15__new_allocatorIPNSt8__detail15_Hash_node_baseEED1Ev>
    4b9c:	90                   	nop
    4b9d:	48 89 d8             	mov    %rbx,%rax
    4ba0:	48 8b 55 e8          	mov    -0x18(%rbp),%rdx
    4ba4:	64 48 2b 14 25 28 00 	sub    %fs:0x28,%rdx
    4bab:	00 00 
    4bad:	74 36                	je     4be5 <_ZNSt8__detail16_Hashtable_allocISaINS_10_Hash_nodeISt4pairIKciELb0EEEEE19_M_allocate_bucketsEm+0xe7>
    4baf:	eb 2f                	jmp    4be0 <_ZNSt8__detail16_Hashtable_allocISaINS_10_Hash_nodeISt4pairIKciELb0EEEEE19_M_allocate_bucketsEm+0xe2>
    4bb1:	48 89 c3             	mov    %rax,%rbx
    4bb4:	48 8d 45 bf          	lea    -0x41(%rbp),%rax
    4bb8:	48 89 c7             	mov    %rax,%rdi
    4bbb:	e8 ec 02 00 00       	call   4eac <_ZNSt15__new_allocatorIPNSt8__detail15_Hash_node_baseEED1Ev>
    4bc0:	90                   	nop
    4bc1:	48 89 d8             	mov    %rbx,%rax
    4bc4:	48 8b 55 e8          	mov    -0x18(%rbp),%rdx
    4bc8:	64 48 2b 14 25 28 00 	sub    %fs:0x28,%rdx
    4bcf:	00 00 
    4bd1:	74 05                	je     4bd8 <_ZNSt8__detail16_Hashtable_allocISaINS_10_Hash_nodeISt4pairIKciELb0EEEEE19_M_allocate_bucketsEm+0xda>
    4bd3:	e8 c8 e6 ff ff       	call   32a0 <__stack_chk_fail@plt>
    4bd8:	48 89 c7             	mov    %rax,%rdi
    4bdb:	e8 f0 e7 ff ff       	call   33d0 <_Unwind_Resume@plt>
    4be0:	e8 bb e6 ff ff       	call   32a0 <__stack_chk_fail@plt>
    4be5:	48 8b 5d f8          	mov    -0x8(%rbp),%rbx
    4be9:	c9                   	leave
    4bea:	c3                   	ret
    4beb:	90                   	nop

0000000000004bec <_ZNSt10_HashtableIcSt4pairIKciESaIS2_ENSt8__detail10_Select1stESt8equal_toIcESt4hashIcENS4_18_Mod_range_hashingENS4_20_Default_ranged_hashENS4_20_Prime_rehash_policyENS4_17_Hashtable_traitsILb0ELb0ELb1EEEE9_M_insertIRKS2_NS4_10_AllocNodeISaINS4_10_Hash_nodeIS2_Lb0EEEEEEEES0_INS4_14_Node_iteratorIS2_Lb0ELb0EEEbEOT_RKT0_St17integral_constantIbLb1EE>:
    4bec:	55                   	push   %rbp
    4bed:	48 89 e5             	mov    %rsp,%rbp
    4bf0:	48 83 ec 30          	sub    $0x30,%rsp
    4bf4:	48 89 7d e8          	mov    %rdi,-0x18(%rbp)
    4bf8:	48 89 75 e0          	mov    %rsi,-0x20(%rbp)
    4bfc:	48 89 55 d8          	mov    %rdx,-0x28(%rbp)
    4c00:	64 48 8b 04 25 28 00 	mov    %fs:0x28,%rax
    4c07:	00 00 
    4c09:	48 89 45 f8          	mov    %rax,-0x8(%rbp)
    4c0d:	31 c0                	xor    %eax,%eax
    4c0f:	48 8b 45 e0          	mov    -0x20(%rbp),%rax
    4c13:	48 89 c7             	mov    %rax,%rdi
    4c16:	e8 88 01 00 00       	call   4da3 <_ZSt7forwardIRKSt4pairIKciEEOT_RNSt16remove_referenceIS5_E4typeE>
    4c1b:	48 89 c2             	mov    %rax,%rdx
    4c1e:	48 8d 45 f7          	lea    -0x9(%rbp),%rax
    4c22:	48 89 d6             	mov    %rdx,%rsi
    4c25:	48 89 c7             	mov    %rax,%rdi
    4c28:	e8 85 01 00 00       	call   4db2 <_ZNKSt8__detail19_ConvertToValueTypeINS_10_Select1stESt4pairIKciEEclERKS4_>
    4c2d:	48 89 c1             	mov    %rax,%rcx
    4c30:	48 8b 55 d8          	mov    -0x28(%rbp),%rdx
    4c34:	48 8b 45 e8          	mov    -0x18(%rbp),%rax
    4c38:	48 89 ce             	mov    %rcx,%rsi
    4c3b:	48 89 c7             	mov    %rax,%rdi
    4c3e:	e8 81 01 00 00       	call   4dc4 <_ZNSt10_HashtableIcSt4pairIKciESaIS2_ENSt8__detail10_Select1stESt8equal_toIcESt4hashIcENS4_18_Mod_range_hashingENS4_20_Default_ranged_hashENS4_20_Prime_rehash_policyENS4_17_Hashtable_traitsILb0ELb0ELb1EEEE20_M_insert_unique_auxIRKS2_NS4_10_AllocNodeISaINS4_10_Hash_nodeIS2_Lb0EEEEEEEES0_INS4_14_Node_iteratorIS2_Lb0ELb0EEEbEOT_RKT0_>
    4c43:	48 8b 4d f8          	mov    -0x8(%rbp),%rcx
    4c47:	64 48 2b 0c 25 28 00 	sub    %fs:0x28,%rcx
    4c4e:	00 00 
    4c50:	74 05                	je     4c57 <_ZNSt10_HashtableIcSt4pairIKciESaIS2_ENSt8__detail10_Select1stESt8equal_toIcESt4hashIcENS4_18_Mod_range_hashingENS4_20_Default_ranged_hashENS4_20_Prime_rehash_policyENS4_17_Hashtable_traitsILb0ELb0ELb1EEEE9_M_insertIRKS2_NS4_10_AllocNodeISaINS4_10_Hash_nodeIS2_Lb0EEEEEEEES0_INS4_14_Node_iteratorIS2_Lb0ELb0EEEbEOT_RKT0_St17integral_constantIbLb1EE+0x6b>
    4c52:	e8 49 e6 ff ff       	call   32a0 <__stack_chk_fail@plt>
    4c57:	c9                   	leave
    4c58:	c3                   	ret
    4c59:	90                   	nop

0000000000004c5a <_ZNSt8__detail16_Hashtable_allocISaINS_10_Hash_nodeISt4pairIKciELb0EEEEE17_M_node_allocatorEv>:
    4c5a:	55                   	push   %rbp
    4c5b:	48 89 e5             	mov    %rsp,%rbp
    4c5e:	48 83 ec 10          	sub    $0x10,%rsp
    4c62:	48 89 7d f8          	mov    %rdi,-0x8(%rbp)
    4c66:	48 8b 45 f8          	mov    -0x8(%rbp),%rax
    4c6a:	48 89 c7             	mov    %rax,%rdi
    4c6d:	e8 de 01 00 00       	call   4e50 <_ZNSt8__detail21_Hashtable_ebo_helperILi0ESaINS_10_Hash_nodeISt4pairIKciELb0EEEELb1EE6_M_getEv>
    4c72:	c9                   	leave
    4c73:	c3                   	ret

0000000000004c74 <_ZNSt8__detail21_Hash_node_value_baseISt4pairIKciEE9_M_valptrEv>:
    4c74:	55                   	push   %rbp
    4c75:	48 89 e5             	mov    %rsp,%rbp
    4c78:	48 83 ec 10          	sub    $0x10,%rsp
    4c7c:	48 89 7d f8          	mov    %rdi,-0x8(%rbp)
    4c80:	48 8b 45 f8          	mov    -0x8(%rbp),%rax
    4c84:	48 89 c7             	mov    %rax,%rdi
    4c87:	e8 d2 01 00 00       	call   4e5e <_ZN9__gnu_cxx16__aligned_bufferISt4pairIKciEE6_M_ptrEv>
    4c8c:	c9                   	leave
    4c8d:	c3                   	ret

0000000000004c8e <_ZNSt8__detail16_Hashtable_allocISaINS_10_Hash_nodeISt4pairIKciELb0EEEEE22_M_deallocate_node_ptrEPS5_>:
    4c8e:	55                   	push   %rbp
    4c8f:	48 89 e5             	mov    %rsp,%rbp
    4c92:	48 83 ec 30          	sub    $0x30,%rsp
    4c96:	48 89 7d d8          	mov    %rdi,-0x28(%rbp)
    4c9a:	48 89 75 d0          	mov    %rsi,-0x30(%rbp)
    4c9e:	48 8b 45 d0          	mov    -0x30(%rbp),%rax
    4ca2:	48 89 c7             	mov    %rax,%rdi
    4ca5:	e8 ce 01 00 00       	call   4e78 <_ZNSt19__ptr_traits_ptr_toIPNSt8__detail10_Hash_nodeISt4pairIKciELb0EEES5_Lb0EE10pointer_toERS5_>
    4caa:	48 89 45 e0          	mov    %rax,-0x20(%rbp)
    4cae:	48 8b 45 d8          	mov    -0x28(%rbp),%rax
    4cb2:	48 89 c7             	mov    %rax,%rdi
    4cb5:	e8 a0 ff ff ff       	call   4c5a <_ZNSt8__detail16_Hashtable_allocISaINS_10_Hash_nodeISt4pairIKciELb0EEEEE17_M_node_allocatorEv>
    4cba:	48 89 45 e8          	mov    %rax,-0x18(%rbp)
    4cbe:	48 8b 45 e0          	mov    -0x20(%rbp),%rax
    4cc2:	48 89 45 f0          	mov    %rax,-0x10(%rbp)
    4cc6:	48 c7 45 f8 01 00 00 	movq   $0x1,-0x8(%rbp)
    4ccd:	00 
    4cce:	48 8b 55 f8          	mov    -0x8(%rbp),%rdx
    4cd2:	48 8b 4d f0          	mov    -0x10(%rbp),%rcx
    4cd6:	48 8b 45 e8          	mov    -0x18(%rbp),%rax
    4cda:	48 89 ce             	mov    %rcx,%rsi
    4cdd:	48 89 c7             	mov    %rax,%rdi
    4ce0:	e8 ad 05 00 00       	call   5292 <_ZNSt15__new_allocatorINSt8__detail10_Hash_nodeISt4pairIKciELb0EEEE10deallocateEPS5_m>
    4ce5:	90                   	nop
    4ce6:	90                   	nop
    4ce7:	c9                   	leave
    4ce8:	c3                   	ret

0000000000004ce9 <_ZNSt19__ptr_traits_ptr_toIPPNSt8__detail15_Hash_node_baseES2_Lb0EE10pointer_toERS2_>:
    4ce9:	55                   	push   %rbp
    4cea:	48 89 e5             	mov    %rsp,%rbp
    4ced:	48 83 ec 10          	sub    $0x10,%rsp
    4cf1:	48 89 7d f8          	mov    %rdi,-0x8(%rbp)
    4cf5:	48 8b 45 f8          	mov    -0x8(%rbp),%rax
    4cf9:	48 89 c7             	mov    %rax,%rdi
    4cfc:	e8 91 01 00 00       	call   4e92 <_ZSt9addressofIPNSt8__detail15_Hash_node_baseEEPT_RS3_>
    4d01:	c9                   	leave
    4d02:	c3                   	ret
    4d03:	90                   	nop

0000000000004d04 <_ZNSt8__detail15_Hash_code_baseIcSt4pairIKciENS_10_Select1stESt4hashIcENS_18_Mod_range_hashingENS_20_Default_ranged_hashELb0EEC1ERKS6_>:
    4d04:	55                   	push   %rbp
    4d05:	48 89 e5             	mov    %rsp,%rbp
    4d08:	48 83 ec 10          	sub    $0x10,%rsp
    4d0c:	48 89 7d f8          	mov    %rdi,-0x8(%rbp)
    4d10:	48 89 75 f0          	mov    %rsi,-0x10(%rbp)
    4d14:	48 8b 55 f0          	mov    -0x10(%rbp),%rdx
    4d18:	48 8b 45 f8          	mov    -0x8(%rbp),%rax
    4d1c:	48 89 d6             	mov    %rdx,%rsi
    4d1f:	48 89 c7             	mov    %rax,%rdi
    4d22:	e8 c3 01 00 00       	call   4eea <_ZNSt8__detail21_Hashtable_ebo_helperILi1ESt4hashIcELb1EEC1IRKS2_EEOT_>
    4d27:	90                   	nop
    4d28:	c9                   	leave
    4d29:	c3                   	ret

0000000000004d2a <_ZNSt8__detail21_Hashtable_ebo_helperILi0ESt8equal_toIcELb1EEC1IRKS2_EEOT_>:
    4d2a:	55                   	push   %rbp
    4d2b:	48 89 e5             	mov    %rsp,%rbp
    4d2e:	48 83 ec 10          	sub    $0x10,%rsp
    4d32:	48 89 7d f8          	mov    %rdi,-0x8(%rbp)
    4d36:	48 89 75 f0          	mov    %rsi,-0x10(%rbp)
    4d3a:	48 8b 45 f0          	mov    -0x10(%rbp),%rax
    4d3e:	48 89 c7             	mov    %rax,%rdi
    4d41:	e8 c3 01 00 00       	call   4f09 <_ZSt7forwardIRKSt8equal_toIcEEOT_RNSt16remove_referenceIS4_E4typeE>
    4d46:	90                   	nop
    4d47:	c9                   	leave
    4d48:	c3                   	ret

0000000000004d49 <_ZSt7forwardISaINSt8__detail10_Hash_nodeISt4pairIKciELb0EEEEEOT_RNSt16remove_referenceIS7_E4typeE>:
    4d49:	55                   	push   %rbp
    4d4a:	48 89 e5             	mov    %rsp,%rbp
    4d4d:	48 89 7d f8          	mov    %rdi,-0x8(%rbp)
    4d51:	48 8b 45 f8          	mov    -0x8(%rbp),%rax
    4d55:	5d                   	pop    %rbp
    4d56:	c3                   	ret
    4d57:	90                   	nop

0000000000004d58 <_ZNSt8__detail21_Hashtable_ebo_helperILi0ESaINS_10_Hash_nodeISt4pairIKciELb0EEEELb1EEC1IS6_EEOT_>:
    4d58:	55                   	push   %rbp
    4d59:	48 89 e5             	mov    %rsp,%rbp
    4d5c:	48 83 ec 30          	sub    $0x30,%rsp
    4d60:	48 89 7d d8          	mov    %rdi,-0x28(%rbp)
    4d64:	48 89 75 d0          	mov    %rsi,-0x30(%rbp)
    4d68:	48 8b 45 d0          	mov    -0x30(%rbp),%rax
    4d6c:	48 89 c7             	mov    %rax,%rdi
    4d6f:	e8 d5 ff ff ff       	call   4d49 <_ZSt7forwardISaINSt8__detail10_Hash_nodeISt4pairIKciELb0EEEEEOT_RNSt16remove_referenceIS7_E4typeE>
    4d74:	48 8b 55 d8          	mov    -0x28(%rbp),%rdx
    4d78:	48 89 55 e0          	mov    %rdx,-0x20(%rbp)
    4d7c:	48 89 45 e8          	mov    %rax,-0x18(%rbp)
    4d80:	48 8b 45 e0          	mov    -0x20(%rbp),%rax
    4d84:	48 89 45 f0          	mov    %rax,-0x10(%rbp)
    4d88:	48 8b 45 e8          	mov    -0x18(%rbp),%rax
    4d8c:	48 89 45 f8          	mov    %rax,-0x8(%rbp)
    4d90:	90                   	nop
    4d91:	90                   	nop
    4d92:	90                   	nop
    4d93:	c9                   	leave
    4d94:	c3                   	ret

0000000000004d95 <_ZSt12__to_addressIPNSt8__detail15_Hash_node_baseEEPT_S4_>:
    4d95:	55                   	push   %rbp
    4d96:	48 89 e5             	mov    %rsp,%rbp
    4d99:	48 89 7d f8          	mov    %rdi,-0x8(%rbp)
    4d9d:	48 8b 45 f8          	mov    -0x8(%rbp),%rax
    4da1:	5d                   	pop    %rbp
    4da2:	c3                   	ret

0000000000004da3 <_ZSt7forwardIRKSt4pairIKciEEOT_RNSt16remove_referenceIS5_E4typeE>:
    4da3:	55                   	push   %rbp
    4da4:	48 89 e5             	mov    %rsp,%rbp
    4da7:	48 89 7d f8          	mov    %rdi,-0x8(%rbp)
    4dab:	48 8b 45 f8          	mov    -0x8(%rbp),%rax
    4daf:	5d                   	pop    %rbp
    4db0:	c3                   	ret
    4db1:	90                   	nop

0000000000004db2 <_ZNKSt8__detail19_ConvertToValueTypeINS_10_Select1stESt4pairIKciEEclERKS4_>:
    4db2:	55                   	push   %rbp
    4db3:	48 89 e5             	mov    %rsp,%rbp
    4db6:	48 89 7d f8          	mov    %rdi,-0x8(%rbp)
    4dba:	48 89 75 f0          	mov    %rsi,-0x10(%rbp)
    4dbe:	48 8b 45 f0          	mov    -0x10(%rbp),%rax
    4dc2:	5d                   	pop    %rbp
    4dc3:	c3                   	ret

0000000000004dc4 <_ZNSt10_HashtableIcSt4pairIKciESaIS2_ENSt8__detail10_Select1stESt8equal_toIcESt4hashIcENS4_18_Mod_range_hashingENS4_20_Default_ranged_hashENS4_20_Prime_rehash_policyENS4_17_Hashtable_traitsILb0ELb0ELb1EEEE20_M_insert_unique_auxIRKS2_NS4_10_AllocNodeISaINS4_10_Hash_nodeIS2_Lb0EEEEEEEES0_INS4_14_Node_iteratorIS2_Lb0ELb0EEEbEOT_RKT0_>:
    4dc4:	55                   	push   %rbp
    4dc5:	48 89 e5             	mov    %rsp,%rbp
    4dc8:	53                   	push   %rbx
    4dc9:	48 83 ec 38          	sub    $0x38,%rsp
    4dcd:	48 89 7d d8          	mov    %rdi,-0x28(%rbp)
    4dd1:	48 89 75 d0          	mov    %rsi,-0x30(%rbp)
    4dd5:	48 89 55 c8          	mov    %rdx,-0x38(%rbp)
    4dd9:	64 48 8b 04 25 28 00 	mov    %fs:0x28,%rax
    4de0:	00 00 
    4de2:	48 89 45 e8          	mov    %rax,-0x18(%rbp)
    4de6:	31 c0                	xor    %eax,%eax
    4de8:	48 8b 45 d0          	mov    -0x30(%rbp),%rax
    4dec:	48 89 c7             	mov    %rax,%rdi
    4def:	e8 af ff ff ff       	call   4da3 <_ZSt7forwardIRKSt4pairIKciEEOT_RNSt16remove_referenceIS5_E4typeE>
    4df4:	48 89 c3             	mov    %rax,%rbx
    4df7:	48 8b 45 d0          	mov    -0x30(%rbp),%rax
    4dfb:	48 89 c7             	mov    %rax,%rdi
    4dfe:	e8 a0 ff ff ff       	call   4da3 <_ZSt7forwardIRKSt4pairIKciEEOT_RNSt16remove_referenceIS5_E4typeE>
    4e03:	48 89 c2             	mov    %rax,%rdx
    4e06:	48 8d 45 e7          	lea    -0x19(%rbp),%rax
    4e0a:	48 89 d6             	mov    %rdx,%rsi
    4e0d:	48 89 c7             	mov    %rax,%rdi
    4e10:	e8 6b 01 00 00       	call   4f80 <_ZNKSt8__detail10_Select1stclIRKSt4pairIKciEEEONS0_10__1st_typeIT_E4typeEOS8_>
    4e15:	48 89 c7             	mov    %rax,%rdi
    4e18:	e8 81 01 00 00       	call   4f9e <_ZNSt10_HashtableIcSt4pairIKciESaIS2_ENSt8__detail10_Select1stESt8equal_toIcESt4hashIcENS4_18_Mod_range_hashingENS4_20_Default_ranged_hashENS4_20_Prime_rehash_policyENS4_17_Hashtable_traitsILb0ELb0ELb1EEEE14_S_forward_keyERS1_>
    4e1d:	48 89 c6             	mov    %rax,%rsi
    4e20:	48 8b 55 c8          	mov    -0x38(%rbp),%rdx
    4e24:	48 8b 45 d8          	mov    -0x28(%rbp),%rax
    4e28:	48 89 d1             	mov    %rdx,%rcx
    4e2b:	48 89 da             	mov    %rbx,%rdx
    4e2e:	48 89 c7             	mov    %rax,%rdi
    4e31:	e8 76 01 00 00       	call   4fac <_ZNSt10_HashtableIcSt4pairIKciESaIS2_ENSt8__detail10_Select1stESt8equal_toIcESt4hashIcENS4_18_Mod_range_hashingENS4_20_Default_ranged_hashENS4_20_Prime_rehash_policyENS4_17_Hashtable_traitsILb0ELb0ELb1EEEE16_M_insert_uniqueIRS1_RKS2_NS4_10_AllocNodeISaINS4_10_Hash_nodeIS2_Lb0EEEEEEEES0_INS4_14_Node_iteratorIS2_Lb0ELb0EEEbEOT_OT0_RKT1_>
    4e36:	48 8b 4d e8          	mov    -0x18(%rbp),%rcx
    4e3a:	64 48 2b 0c 25 28 00 	sub    %fs:0x28,%rcx
    4e41:	00 00 
    4e43:	74 05                	je     4e4a <_ZNSt10_HashtableIcSt4pairIKciESaIS2_ENSt8__detail10_Select1stESt8equal_toIcESt4hashIcENS4_18_Mod_range_hashingENS4_20_Default_ranged_hashENS4_20_Prime_rehash_policyENS4_17_Hashtable_traitsILb0ELb0ELb1EEEE20_M_insert_unique_auxIRKS2_NS4_10_AllocNodeISaINS4_10_Hash_nodeIS2_Lb0EEEEEEEES0_INS4_14_Node_iteratorIS2_Lb0ELb0EEEbEOT_RKT0_+0x86>
    4e45:	e8 56 e4 ff ff       	call   32a0 <__stack_chk_fail@plt>
    4e4a:	48 8b 5d f8          	mov    -0x8(%rbp),%rbx
    4e4e:	c9                   	leave
    4e4f:	c3                   	ret

0000000000004e50 <_ZNSt8__detail21_Hashtable_ebo_helperILi0ESaINS_10_Hash_nodeISt4pairIKciELb0EEEELb1EE6_M_getEv>:
    4e50:	55                   	push   %rbp
    4e51:	48 89 e5             	mov    %rsp,%rbp
    4e54:	48 89 7d f8          	mov    %rdi,-0x8(%rbp)
    4e58:	48 8b 45 f8          	mov    -0x8(%rbp),%rax
    4e5c:	5d                   	pop    %rbp
    4e5d:	c3                   	ret

0000000000004e5e <_ZN9__gnu_cxx16__aligned_bufferISt4pairIKciEE6_M_ptrEv>:
    4e5e:	55                   	push   %rbp
    4e5f:	48 89 e5             	mov    %rsp,%rbp
    4e62:	48 83 ec 10          	sub    $0x10,%rsp
    4e66:	48 89 7d f8          	mov    %rdi,-0x8(%rbp)
    4e6a:	48 8b 45 f8          	mov    -0x8(%rbp),%rax
    4e6e:	48 89 c7             	mov    %rax,%rdi
    4e71:	e8 f4 03 00 00       	call   526a <_ZN9__gnu_cxx16__aligned_bufferISt4pairIKciEE7_M_addrEv>
    4e76:	c9                   	leave
    4e77:	c3                   	ret

0000000000004e78 <_ZNSt19__ptr_traits_ptr_toIPNSt8__detail10_Hash_nodeISt4pairIKciELb0EEES5_Lb0EE10pointer_toERS5_>:
    4e78:	55                   	push   %rbp
    4e79:	48 89 e5             	mov    %rsp,%rbp
    4e7c:	48 83 ec 10          	sub    $0x10,%rsp
    4e80:	48 89 7d f8          	mov    %rdi,-0x8(%rbp)
    4e84:	48 8b 45 f8          	mov    -0x8(%rbp),%rax
    4e88:	48 89 c7             	mov    %rax,%rdi
    4e8b:	e8 e8 03 00 00       	call   5278 <_ZSt9addressofINSt8__detail10_Hash_nodeISt4pairIKciELb0EEEEPT_RS6_>
    4e90:	c9                   	leave
    4e91:	c3                   	ret

0000000000004e92 <_ZSt9addressofIPNSt8__detail15_Hash_node_baseEEPT_RS3_>:
    4e92:	55                   	push   %rbp
    4e93:	48 89 e5             	mov    %rsp,%rbp
    4e96:	48 83 ec 10          	sub    $0x10,%rsp
    4e9a:	48 89 7d f8          	mov    %rdi,-0x8(%rbp)
    4e9e:	48 8b 45 f8          	mov    -0x8(%rbp),%rax
    4ea2:	48 89 c7             	mov    %rax,%rdi
    4ea5:	e8 18 04 00 00       	call   52c2 <_ZSt11__addressofIPNSt8__detail15_Hash_node_baseEEPT_RS3_>
    4eaa:	c9                   	leave
    4eab:	c3                   	ret

0000000000004eac <_ZNSt15__new_allocatorIPNSt8__detail15_Hash_node_baseEED1Ev>:
    4eac:	55                   	push   %rbp
    4ead:	48 89 e5             	mov    %rsp,%rbp
    4eb0:	48 89 7d f8          	mov    %rdi,-0x8(%rbp)
    4eb4:	90                   	nop
    4eb5:	5d                   	pop    %rbp
    4eb6:	c3                   	ret
    4eb7:	90                   	nop

0000000000004eb8 <_ZNSt15__new_allocatorIPNSt8__detail15_Hash_node_baseEE10deallocateEPS2_m>:
    4eb8:	55                   	push   %rbp
    4eb9:	48 89 e5             	mov    %rsp,%rbp
    4ebc:	48 83 ec 20          	sub    $0x20,%rsp
    4ec0:	48 89 7d f8          	mov    %rdi,-0x8(%rbp)
    4ec4:	48 89 75 f0          	mov    %rsi,-0x10(%rbp)
    4ec8:	48 89 55 e8          	mov    %rdx,-0x18(%rbp)
    4ecc:	48 8b 45 e8          	mov    -0x18(%rbp),%rax
    4ed0:	48 8d 14 c5 00 00 00 	lea    0x0(,%rax,8),%rdx
    4ed7:	00 
    4ed8:	48 8b 45 f0          	mov    -0x10(%rbp),%rax
    4edc:	48 89 d6             	mov    %rdx,%rsi
    4edf:	48 89 c7             	mov    %rax,%rdi
    4ee2:	e8 59 e3 ff ff       	call   3240 <_ZdlPvm@plt>
    4ee7:	c9                   	leave
    4ee8:	c3                   	ret
    4ee9:	90                   	nop

0000000000004eea <_ZNSt8__detail21_Hashtable_ebo_helperILi1ESt4hashIcELb1EEC1IRKS2_EEOT_>:
    4eea:	55                   	push   %rbp
    4eeb:	48 89 e5             	mov    %rsp,%rbp
    4eee:	48 83 ec 10          	sub    $0x10,%rsp
    4ef2:	48 89 7d f8          	mov    %rdi,-0x8(%rbp)
    4ef6:	48 89 75 f0          	mov    %rsi,-0x10(%rbp)
    4efa:	48 8b 45 f0          	mov    -0x10(%rbp),%rax
    4efe:	48 89 c7             	mov    %rax,%rdi
    4f01:	e8 ca 03 00 00       	call   52d0 <_ZSt7forwardIRKSt4hashIcEEOT_RNSt16remove_referenceIS4_E4typeE>
    4f06:	90                   	nop
    4f07:	c9                   	leave
    4f08:	c3                   	ret

0000000000004f09 <_ZSt7forwardIRKSt8equal_toIcEEOT_RNSt16remove_referenceIS4_E4typeE>:
    4f09:	55                   	push   %rbp
    4f0a:	48 89 e5             	mov    %rsp,%rbp
    4f0d:	48 89 7d f8          	mov    %rdi,-0x8(%rbp)
    4f11:	48 8b 45 f8          	mov    -0x8(%rbp),%rax
    4f15:	5d                   	pop    %rbp
    4f16:	c3                   	ret
    4f17:	90                   	nop

0000000000004f18 <_ZNSt15__new_allocatorIPNSt8__detail15_Hash_node_baseEE8allocateEmPKv>:
    4f18:	55                   	push   %rbp
    4f19:	48 89 e5             	mov    %rsp,%rbp
    4f1c:	48 83 ec 30          	sub    $0x30,%rsp
    4f20:	48 89 7d e8          	mov    %rdi,-0x18(%rbp)
    4f24:	48 89 75 e0          	mov    %rsi,-0x20(%rbp)
    4f28:	48 89 55 d8          	mov    %rdx,-0x28(%rbp)
    4f2c:	48 8b 45 e8          	mov    -0x18(%rbp),%rax
    4f30:	48 89 45 f8          	mov    %rax,-0x8(%rbp)
    4f34:	48 b8 ff ff ff ff ff 	movabs $0xfffffffffffffff,%rax
    4f3b:	ff ff 0f 
    4f3e:	48 3b 45 e0          	cmp    -0x20(%rbp),%rax
    4f42:	0f 92 c0             	setb   %al
    4f45:	0f b6 c0             	movzbl %al,%eax
    4f48:	48 85 c0             	test   %rax,%rax
    4f4b:	0f 95 c0             	setne  %al
    4f4e:	84 c0                	test   %al,%al
    4f50:	74 1a                	je     4f6c <_ZNSt15__new_allocatorIPNSt8__detail15_Hash_node_baseEE8allocateEmPKv+0x54>
    4f52:	48 b8 ff ff ff ff ff 	movabs $0x1fffffffffffffff,%rax
    4f59:	ff ff 1f 
    4f5c:	48 3b 45 e0          	cmp    -0x20(%rbp),%rax
    4f60:	73 05                	jae    4f67 <_ZNSt15__new_allocatorIPNSt8__detail15_Hash_node_baseEE8allocateEmPKv+0x4f>
    4f62:	e8 49 e2 ff ff       	call   31b0 <_ZSt28__throw_bad_array_new_lengthv@plt>
    4f67:	e8 24 e1 ff ff       	call   3090 <_ZSt17__throw_bad_allocv@plt>
    4f6c:	48 8b 45 e0          	mov    -0x20(%rbp),%rax
    4f70:	48 c1 e0 03          	shl    $0x3,%rax
    4f74:	48 89 c7             	mov    %rax,%rdi
    4f77:	e8 b4 e2 ff ff       	call   3230 <_Znwm@plt>
    4f7c:	90                   	nop
    4f7d:	c9                   	leave
    4f7e:	c3                   	ret
    4f7f:	90                   	nop

0000000000004f80 <_ZNKSt8__detail10_Select1stclIRKSt4pairIKciEEEONS0_10__1st_typeIT_E4typeEOS8_>:
    4f80:	55                   	push   %rbp
    4f81:	48 89 e5             	mov    %rsp,%rbp
    4f84:	48 83 ec 10          	sub    $0x10,%rsp
    4f88:	48 89 7d f8          	mov    %rdi,-0x8(%rbp)
    4f8c:	48 89 75 f0          	mov    %rsi,-0x10(%rbp)
    4f90:	48 8b 45 f0          	mov    -0x10(%rbp),%rax
    4f94:	48 89 c7             	mov    %rax,%rdi
    4f97:	e8 07 fe ff ff       	call   4da3 <_ZSt7forwardIRKSt4pairIKciEEOT_RNSt16remove_referenceIS5_E4typeE>
    4f9c:	c9                   	leave
    4f9d:	c3                   	ret

0000000000004f9e <_ZNSt10_HashtableIcSt4pairIKciESaIS2_ENSt8__detail10_Select1stESt8equal_toIcESt4hashIcENS4_18_Mod_range_hashingENS4_20_Default_ranged_hashENS4_20_Prime_rehash_policyENS4_17_Hashtable_traitsILb0ELb0ELb1EEEE14_S_forward_keyERS1_>:
    4f9e:	55                   	push   %rbp
    4f9f:	48 89 e5             	mov    %rsp,%rbp
    4fa2:	48 89 7d f8          	mov    %rdi,-0x8(%rbp)
    4fa6:	48 8b 45 f8          	mov    -0x8(%rbp),%rax
    4faa:	5d                   	pop    %rbp
    4fab:	c3                   	ret

0000000000004fac <_ZNSt10_HashtableIcSt4pairIKciESaIS2_ENSt8__detail10_Select1stESt8equal_toIcESt4hashIcENS4_18_Mod_range_hashingENS4_20_Default_ranged_hashENS4_20_Prime_rehash_policyENS4_17_Hashtable_traitsILb0ELb0ELb1EEEE16_M_insert_uniqueIRS1_RKS2_NS4_10_AllocNodeISaINS4_10_Hash_nodeIS2_Lb0EEEEEEEES0_INS4_14_Node_iteratorIS2_Lb0ELb0EEEbEOT_OT0_RKT1_>:
    4fac:	55                   	push   %rbp
    4fad:	48 89 e5             	mov    %rsp,%rbp
    4fb0:	41 55                	push   %r13
    4fb2:	41 54                	push   %r12
    4fb4:	53                   	push   %rbx
    4fb5:	48 81 ec 88 00 00 00 	sub    $0x88,%rsp
    4fbc:	48 89 bd 78 ff ff ff 	mov    %rdi,-0x88(%rbp)
    4fc3:	48 89 b5 70 ff ff ff 	mov    %rsi,-0x90(%rbp)
    4fca:	48 89 95 68 ff ff ff 	mov    %rdx,-0x98(%rbp)
    4fd1:	48 89 8d 60 ff ff ff 	mov    %rcx,-0xa0(%rbp)
    4fd8:	64 48 8b 04 25 28 00 	mov    %fs:0x28,%rax
    4fdf:	00 00 
    4fe1:	48 89 45 d8          	mov    %rax,-0x28(%rbp)
    4fe5:	31 c0                	xor    %eax,%eax
    4fe7:	48 8b 85 78 ff ff ff 	mov    -0x88(%rbp),%rax
    4fee:	48 89 c7             	mov    %rax,%rdi
    4ff1:	e8 e8 02 00 00       	call   52de <_ZNKSt10_HashtableIcSt4pairIKciESaIS2_ENSt8__detail10_Select1stESt8equal_toIcESt4hashIcENS4_18_Mod_range_hashingENS4_20_Default_ranged_hashENS4_20_Prime_rehash_policyENS4_17_Hashtable_traitsILb0ELb0ELb1EEEE4sizeEv>
    4ff6:	48 89 c3             	mov    %rax,%rbx
    4ff9:	e8 f2 02 00 00       	call   52f0 <_ZNSt10_HashtableIcSt4pairIKciESaIS2_ENSt8__detail10_Select1stESt8equal_toIcESt4hashIcENS4_18_Mod_range_hashingENS4_20_Default_ranged_hashENS4_20_Prime_rehash_policyENS4_17_Hashtable_traitsILb0ELb0ELb1EEEE22__small_size_thresholdEv>
    4ffe:	48 39 d8             	cmp    %rbx,%rax
    5001:	0f 93 c0             	setae  %al
    5004:	84 c0                	test   %al,%al
    5006:	0f 84 9c 00 00 00    	je     50a8 <_ZNSt10_HashtableIcSt4pairIKciESaIS2_ENSt8__detail10_Select1stESt8equal_toIcESt4hashIcENS4_18_Mod_range_hashingENS4_20_Default_ranged_hashENS4_20_Prime_rehash_policyENS4_17_Hashtable_traitsILb0ELb0ELb1EEEE16_M_insert_uniqueIRS1_RKS2_NS4_10_AllocNodeISaINS4_10_Hash_nodeIS2_Lb0EEEEEEEES0_INS4_14_Node_iteratorIS2_Lb0ELb0EEEbEOT_OT0_RKT1_+0xfc>
    500c:	48 8b 85 78 ff ff ff 	mov    -0x88(%rbp),%rax
    5013:	48 89 c7             	mov    %rax,%rdi
    5016:	e8 e1 02 00 00       	call   52fc <_ZNSt10_HashtableIcSt4pairIKciESaIS2_ENSt8__detail10_Select1stESt8equal_toIcESt4hashIcENS4_18_Mod_range_hashingENS4_20_Default_ranged_hashENS4_20_Prime_rehash_policyENS4_17_Hashtable_traitsILb0ELb0ELb1EEEE5beginEv>
    501b:	48 89 45 b0          	mov    %rax,-0x50(%rbp)
    501f:	eb 59                	jmp    507a <_ZNSt10_HashtableIcSt4pairIKciESaIS2_ENSt8__detail10_Select1stESt8equal_toIcESt4hashIcENS4_18_Mod_range_hashingENS4_20_Default_ranged_hashENS4_20_Prime_rehash_policyENS4_17_Hashtable_traitsILb0ELb0ELb1EEEE16_M_insert_uniqueIRS1_RKS2_NS4_10_AllocNodeISaINS4_10_Hash_nodeIS2_Lb0EEEEEEEES0_INS4_14_Node_iteratorIS2_Lb0ELb0EEEbEOT_OT0_RKT1_+0xce>
    5021:	48 8b 45 b0          	mov    -0x50(%rbp),%rax
    5025:	48 8d 50 08          	lea    0x8(%rax),%rdx
    5029:	48 8b 8d 70 ff ff ff 	mov    -0x90(%rbp),%rcx
    5030:	48 8b 85 78 ff ff ff 	mov    -0x88(%rbp),%rax
    5037:	48 89 ce             	mov    %rcx,%rsi
    503a:	48 89 c7             	mov    %rax,%rdi
    503d:	e8 94 03 00 00       	call   53d6 <_ZNKSt8__detail15_Hashtable_baseIcSt4pairIKciENS_10_Select1stESt8equal_toIcESt4hashIcENS_18_Mod_range_hashingENS_20_Default_ranged_hashENS_17_Hashtable_traitsILb0ELb0ELb1EEEE16_M_key_equals_trIcEEbRKT_RKNS_16_Hash_node_valueIS3_Lb0EEE>
    5042:	84 c0                	test   %al,%al
    5044:	74 28                	je     506e <_ZNSt10_HashtableIcSt4pairIKciESaIS2_ENSt8__detail10_Select1stESt8equal_toIcESt4hashIcENS4_18_Mod_range_hashingENS4_20_Default_ranged_hashENS4_20_Prime_rehash_policyENS4_17_Hashtable_traitsILb0ELb0ELb1EEEE16_M_insert_uniqueIRS1_RKS2_NS4_10_AllocNodeISaINS4_10_Hash_nodeIS2_Lb0EEEEEEEES0_INS4_14_Node_iteratorIS2_Lb0ELb0EEEbEOT_OT0_RKT1_+0xc2>
    5046:	c6 45 90 00          	movb   $0x0,-0x70(%rbp)
    504a:	48 8d 55 90          	lea    -0x70(%rbp),%rdx
    504e:	48 8d 4d b0          	lea    -0x50(%rbp),%rcx
    5052:	48 8d 45 c0          	lea    -0x40(%rbp),%rax
    5056:	48 89 ce             	mov    %rcx,%rsi
    5059:	48 89 c7             	mov    %rax,%rdi
    505c:	e8 f3 03 00 00       	call   5454 <_ZNSt4pairINSt8__detail14_Node_iteratorIS_IKciELb0ELb0EEEbEC1IRS4_bLb1EEEOT_OT0_>
    5061:	4c 8b 65 c0          	mov    -0x40(%rbp),%r12
    5065:	4c 8b 6d c8          	mov    -0x38(%rbp),%r13
    5069:	e9 a4 01 00 00       	jmp    5212 <_ZNSt10_HashtableIcSt4pairIKciESaIS2_ENSt8__detail10_Select1stESt8equal_toIcESt4hashIcENS4_18_Mod_range_hashingENS4_20_Default_ranged_hashENS4_20_Prime_rehash_policyENS4_17_Hashtable_traitsILb0ELb0ELb1EEEE16_M_insert_uniqueIRS1_RKS2_NS4_10_AllocNodeISaINS4_10_Hash_nodeIS2_Lb0EEEEEEEES0_INS4_14_Node_iteratorIS2_Lb0ELb0EEEbEOT_OT0_RKT1_+0x266>
    506e:	48 8d 45 b0          	lea    -0x50(%rbp),%rax
    5072:	48 89 c7             	mov    %rax,%rdi
    5075:	e8 3e 03 00 00       	call   53b8 <_ZNSt8__detail14_Node_iteratorISt4pairIKciELb0ELb0EEppEv>
    507a:	48 8b 85 78 ff ff ff 	mov    -0x88(%rbp),%rax
    5081:	48 89 c7             	mov    %rax,%rdi
    5084:	e8 c7 02 00 00       	call   5350 <_ZNSt10_HashtableIcSt4pairIKciESaIS2_ENSt8__detail10_Select1stESt8equal_toIcESt4hashIcENS4_18_Mod_range_hashingENS4_20_Default_ranged_hashENS4_20_Prime_rehash_policyENS4_17_Hashtable_traitsILb0ELb0ELb1EEEE3endEv>
    5089:	48 89 45 c0          	mov    %rax,-0x40(%rbp)
    508d:	48 8d 55 c0          	lea    -0x40(%rbp),%rdx
    5091:	48 8d 45 b0          	lea    -0x50(%rbp),%rax
    5095:	48 89 d6             	mov    %rdx,%rsi
    5098:	48 89 c7             	mov    %rax,%rdi
    509b:	e8 f6 02 00 00       	call   5396 <_ZNSt8__detailneERKNS_19_Node_iterator_baseISt4pairIKciELb0EEES6_>
    50a0:	84 c0                	test   %al,%al
    50a2:	0f 85 79 ff ff ff    	jne    5021 <_ZNSt10_HashtableIcSt4pairIKciESaIS2_ENSt8__detail10_Select1stESt8equal_toIcESt4hashIcENS4_18_Mod_range_hashingENS4_20_Default_ranged_hashENS4_20_Prime_rehash_policyENS4_17_Hashtable_traitsILb0ELb0ELb1EEEE16_M_insert_uniqueIRS1_RKS2_NS4_10_AllocNodeISaINS4_10_Hash_nodeIS2_Lb0EEEEEEEES0_INS4_14_Node_iteratorIS2_Lb0ELb0EEEbEOT_OT0_RKT1_+0x75>
    50a8:	48 8b 95 70 ff ff ff 	mov    -0x90(%rbp),%rdx
    50af:	48 8b 85 78 ff ff ff 	mov    -0x88(%rbp),%rax
    50b6:	48 89 d6             	mov    %rdx,%rsi
    50b9:	48 89 c7             	mov    %rax,%rdi
    50bc:	e8 d7 03 00 00       	call   5498 <_ZNKSt8__detail15_Hash_code_baseIcSt4pairIKciENS_10_Select1stESt4hashIcENS_18_Mod_range_hashingENS_20_Default_ranged_hashELb0EE15_M_hash_code_trIcEEmRKT_>
    50c1:	48 89 45 98          	mov    %rax,-0x68(%rbp)
    50c5:	48 8b 55 98          	mov    -0x68(%rbp),%rdx
    50c9:	48 8b 85 78 ff ff ff 	mov    -0x88(%rbp),%rax
    50d0:	48 89 d6             	mov    %rdx,%rsi
    50d3:	48 89 c7             	mov    %rax,%rdi
    50d6:	e8 f3 03 00 00       	call   54ce <_ZNKSt10_HashtableIcSt4pairIKciESaIS2_ENSt8__detail10_Select1stESt8equal_toIcESt4hashIcENS4_18_Mod_range_hashingENS4_20_Default_ranged_hashENS4_20_Prime_rehash_policyENS4_17_Hashtable_traitsILb0ELb0ELb1EEEE15_M_bucket_indexEm>
    50db:	48 89 45 a0          	mov    %rax,-0x60(%rbp)
    50df:	48 8b 85 78 ff ff ff 	mov    -0x88(%rbp),%rax
    50e6:	48 89 c7             	mov    %rax,%rdi
    50e9:	e8 f0 01 00 00       	call   52de <_ZNKSt10_HashtableIcSt4pairIKciESaIS2_ENSt8__detail10_Select1stESt8equal_toIcESt4hashIcENS4_18_Mod_range_hashingENS4_20_Default_ranged_hashENS4_20_Prime_rehash_policyENS4_17_Hashtable_traitsILb0ELb0ELb1EEEE4sizeEv>
    50ee:	48 89 c3             	mov    %rax,%rbx
    50f1:	e8 fa 01 00 00       	call   52f0 <_ZNSt10_HashtableIcSt4pairIKciESaIS2_ENSt8__detail10_Select1stESt8equal_toIcESt4hashIcENS4_18_Mod_range_hashingENS4_20_Default_ranged_hashENS4_20_Prime_rehash_policyENS4_17_Hashtable_traitsILb0ELb0ELb1EEEE22__small_size_thresholdEv>
    50f6:	48 39 d8             	cmp    %rbx,%rax
    50f9:	0f 92 c0             	setb   %al
    50fc:	84 c0                	test   %al,%al
    50fe:	74 64                	je     5164 <_ZNSt10_HashtableIcSt4pairIKciESaIS2_ENSt8__detail10_Select1stESt8equal_toIcESt4hashIcENS4_18_Mod_range_hashingENS4_20_Default_ranged_hashENS4_20_Prime_rehash_policyENS4_17_Hashtable_traitsILb0ELb0ELb1EEEE16_M_insert_uniqueIRS1_RKS2_NS4_10_AllocNodeISaINS4_10_Hash_nodeIS2_Lb0EEEEEEEES0_INS4_14_Node_iteratorIS2_Lb0ELb0EEEbEOT_OT0_RKT1_+0x1b8>
    5100:	48 8b 4d 98          	mov    -0x68(%rbp),%rcx
    5104:	48 8b 95 70 ff ff ff 	mov    -0x90(%rbp),%rdx
    510b:	48 8b 75 a0          	mov    -0x60(%rbp),%rsi
    510f:	48 8b 85 78 ff ff ff 	mov    -0x88(%rbp),%rax
    5116:	48 89 c7             	mov    %rax,%rdi
    5119:	e8 de 03 00 00       	call   54fc <_ZNKSt10_HashtableIcSt4pairIKciESaIS2_ENSt8__detail10_Select1stESt8equal_toIcESt4hashIcENS4_18_Mod_range_hashingENS4_20_Default_ranged_hashENS4_20_Prime_rehash_policyENS4_17_Hashtable_traitsILb0ELb0ELb1EEEE15_M_find_node_trIcEEPNS4_10_Hash_nodeIS2_Lb0EEEmRKT_m>
    511e:	48 89 45 a8          	mov    %rax,-0x58(%rbp)
    5122:	48 83 7d a8 00       	cmpq   $0x0,-0x58(%rbp)
    5127:	74 3b                	je     5164 <_ZNSt10_HashtableIcSt4pairIKciESaIS2_ENSt8__detail10_Select1stESt8equal_toIcESt4hashIcENS4_18_Mod_range_hashingENS4_20_Default_ranged_hashENS4_20_Prime_rehash_policyENS4_17_Hashtable_traitsILb0ELb0ELb1EEEE16_M_insert_uniqueIRS1_RKS2_NS4_10_AllocNodeISaINS4_10_Hash_nodeIS2_Lb0EEEEEEEES0_INS4_14_Node_iteratorIS2_Lb0ELb0EEEbEOT_OT0_RKT1_+0x1b8>
    5129:	48 8b 55 a8          	mov    -0x58(%rbp),%rdx
    512d:	48 8d 45 b0          	lea    -0x50(%rbp),%rax
    5131:	48 89 d6             	mov    %rdx,%rsi
    5134:	48 89 c7             	mov    %rax,%rdi
    5137:	e8 0c 04 00 00       	call   5548 <_ZNSt8__detail14_Node_iteratorISt4pairIKciELb0ELb0EEC1EPNS_10_Hash_nodeIS3_Lb0EEE>
    513c:	c6 45 90 00          	movb   $0x0,-0x70(%rbp)
    5140:	48 8d 55 90          	lea    -0x70(%rbp),%rdx
    5144:	48 8d 4d b0          	lea    -0x50(%rbp),%rcx
    5148:	48 8d 45 c0          	lea    -0x40(%rbp),%rax
    514c:	48 89 ce             	mov    %rcx,%rsi
    514f:	48 89 c7             	mov    %rax,%rdi
    5152:	e8 17 04 00 00       	call   556e <_ZNSt4pairINSt8__detail14_Node_iteratorIS_IKciELb0ELb0EEEbEC1IS4_bLb1EEEOT_OT0_>
    5157:	4c 8b 65 c0          	mov    -0x40(%rbp),%r12
    515b:	4c 8b 6d c8          	mov    -0x38(%rbp),%r13
    515f:	e9 ae 00 00 00       	jmp    5212 <_ZNSt10_HashtableIcSt4pairIKciESaIS2_ENSt8__detail10_Select1stESt8equal_toIcESt4hashIcENS4_18_Mod_range_hashingENS4_20_Default_ranged_hashENS4_20_Prime_rehash_policyENS4_17_Hashtable_traitsILb0ELb0ELb1EEEE16_M_insert_uniqueIRS1_RKS2_NS4_10_AllocNodeISaINS4_10_Hash_nodeIS2_Lb0EEEEEEEES0_INS4_14_Node_iteratorIS2_Lb0ELb0EEEbEOT_OT0_RKT1_+0x266>
    5164:	48 8b 85 68 ff ff ff 	mov    -0x98(%rbp),%rax
    516b:	48 89 c7             	mov    %rax,%rdi
    516e:	e8 30 fc ff ff       	call   4da3 <_ZSt7forwardIRKSt4pairIKciEEOT_RNSt16remove_referenceIS5_E4typeE>
    5173:	48 89 c3             	mov    %rax,%rbx
    5176:	48 8b 85 70 ff ff ff 	mov    -0x90(%rbp),%rax
    517d:	48 89 c7             	mov    %rax,%rdi
    5180:	e8 2c 04 00 00       	call   55b1 <_ZSt7forwardIRKcEOT_RNSt16remove_referenceIS2_E4typeE>
    5185:	48 89 c1             	mov    %rax,%rcx
    5188:	48 8b 85 60 ff ff ff 	mov    -0xa0(%rbp),%rax
    518f:	48 89 c2             	mov    %rax,%rdx
    5192:	48 89 de             	mov    %rbx,%rsi
    5195:	48 89 cf             	mov    %rcx,%rdi
    5198:	e8 22 04 00 00       	call   55bf <_ZNSt8__detail12_NodeBuilderINS_10_Select1stEE8_S_buildIRKcRKSt4pairIS4_iENS_10_AllocNodeISaINS_10_Hash_nodeIS7_Lb0EEEEEEEEPNT1_11__node_typeEOT_OT0_RKSF_>
    519d:	48 89 c1             	mov    %rax,%rcx
    51a0:	48 8b 95 78 ff ff ff 	mov    -0x88(%rbp),%rdx
    51a7:	48 8d 45 b0          	lea    -0x50(%rbp),%rax
    51ab:	48 89 ce             	mov    %rcx,%rsi
    51ae:	48 89 c7             	mov    %rax,%rdi
    51b1:	e8 56 04 00 00       	call   560c <_ZNSt10_HashtableIcSt4pairIKciESaIS2_ENSt8__detail10_Select1stESt8equal_toIcESt4hashIcENS4_18_Mod_range_hashingENS4_20_Default_ranged_hashENS4_20_Prime_rehash_policyENS4_17_Hashtable_traitsILb0ELb0ELb1EEEE12_Scoped_nodeC1EPNS4_10_Hash_nodeIS2_Lb0EEEPNS4_16_Hashtable_allocISaISI_EEE>
    51b6:	48 8b 4d b8          	mov    -0x48(%rbp),%rcx
    51ba:	48 8b 55 98          	mov    -0x68(%rbp),%rdx
    51be:	48 8b 75 a0          	mov    -0x60(%rbp),%rsi
    51c2:	48 8b 85 78 ff ff ff 	mov    -0x88(%rbp),%rax
    51c9:	41 b8 01 00 00 00    	mov    $0x1,%r8d
    51cf:	48 89 c7             	mov    %rax,%rdi
    51d2:	e8 95 04 00 00       	call   566c <_ZNSt10_HashtableIcSt4pairIKciESaIS2_ENSt8__detail10_Select1stESt8equal_toIcESt4hashIcENS4_18_Mod_range_hashingENS4_20_Default_ranged_hashENS4_20_Prime_rehash_policyENS4_17_Hashtable_traitsILb0ELb0ELb1EEEE21_M_insert_unique_nodeEmmPNS4_10_Hash_nodeIS2_Lb0EEEm>
    51d7:	48 89 45 90          	mov    %rax,-0x70(%rbp)
    51db:	48 c7 45 b8 00 00 00 	movq   $0x0,-0x48(%rbp)
    51e2:	00 
    51e3:	c6 45 8f 01          	movb   $0x1,-0x71(%rbp)
    51e7:	48 8d 55 8f          	lea    -0x71(%rbp),%rdx
    51eb:	48 8d 4d 90          	lea    -0x70(%rbp),%rcx
    51ef:	48 8d 45 c0          	lea    -0x40(%rbp),%rax
    51f3:	48 89 ce             	mov    %rcx,%rsi
    51f6:	48 89 c7             	mov    %rax,%rdi
    51f9:	e8 56 02 00 00       	call   5454 <_ZNSt4pairINSt8__detail14_Node_iteratorIS_IKciELb0ELb0EEEbEC1IRS4_bLb1EEEOT_OT0_>
    51fe:	4c 8b 65 c0          	mov    -0x40(%rbp),%r12
    5202:	4c 8b 6d c8          	mov    -0x38(%rbp),%r13
    5206:	48 8d 45 b0          	lea    -0x50(%rbp),%rax
    520a:	48 89 c7             	mov    %rax,%rdi
    520d:	e8 24 04 00 00       	call   5636 <_ZNSt10_HashtableIcSt4pairIKciESaIS2_ENSt8__detail10_Select1stESt8equal_toIcESt4hashIcENS4_18_Mod_range_hashingENS4_20_Default_ranged_hashENS4_20_Prime_rehash_policyENS4_17_Hashtable_traitsILb0ELb0ELb1EEEE12_Scoped_nodeD1Ev>
    5212:	4c 89 e0             	mov    %r12,%rax
    5215:	4c 89 ea             	mov    %r13,%rdx
    5218:	48 8b 4d d8          	mov    -0x28(%rbp),%rcx
    521c:	64 48 2b 0c 25 28 00 	sub    %fs:0x28,%rcx
    5223:	00 00 
    5225:	74 35                	je     525c <_ZNSt10_HashtableIcSt4pairIKciESaIS2_ENSt8__detail10_Select1stESt8equal_toIcESt4hashIcENS4_18_Mod_range_hashingENS4_20_Default_ranged_hashENS4_20_Prime_rehash_policyENS4_17_Hashtable_traitsILb0ELb0ELb1EEEE16_M_insert_uniqueIRS1_RKS2_NS4_10_AllocNodeISaINS4_10_Hash_nodeIS2_Lb0EEEEEEEES0_INS4_14_Node_iteratorIS2_Lb0ELb0EEEbEOT_OT0_RKT1_+0x2b0>
    5227:	eb 2e                	jmp    5257 <_ZNSt10_HashtableIcSt4pairIKciESaIS2_ENSt8__detail10_Select1stESt8equal_toIcESt4hashIcENS4_18_Mod_range_hashingENS4_20_Default_ranged_hashENS4_20_Prime_rehash_policyENS4_17_Hashtable_traitsILb0ELb0ELb1EEEE16_M_insert_uniqueIRS1_RKS2_NS4_10_AllocNodeISaINS4_10_Hash_nodeIS2_Lb0EEEEEEEES0_INS4_14_Node_iteratorIS2_Lb0ELb0EEEbEOT_OT0_RKT1_+0x2ab>
    5229:	48 89 c3             	mov    %rax,%rbx
    522c:	48 8d 45 b0          	lea    -0x50(%rbp),%rax
    5230:	48 89 c7             	mov    %rax,%rdi
    5233:	e8 fe 03 00 00       	call   5636 <_ZNSt10_HashtableIcSt4pairIKciESaIS2_ENSt8__detail10_Select1stESt8equal_toIcESt4hashIcENS4_18_Mod_range_hashingENS4_20_Default_ranged_hashENS4_20_Prime_rehash_policyENS4_17_Hashtable_traitsILb0ELb0ELb1EEEE12_Scoped_nodeD1Ev>
    5238:	48 89 d8             	mov    %rbx,%rax
    523b:	48 8b 55 d8          	mov    -0x28(%rbp),%rdx
    523f:	64 48 2b 14 25 28 00 	sub    %fs:0x28,%rdx
    5246:	00 00 
    5248:	74 05                	je     524f <_ZNSt10_HashtableIcSt4pairIKciESaIS2_ENSt8__detail10_Select1stESt8equal_toIcESt4hashIcENS4_18_Mod_range_hashingENS4_20_Default_ranged_hashENS4_20_Prime_rehash_policyENS4_17_Hashtable_traitsILb0ELb0ELb1EEEE16_M_insert_uniqueIRS1_RKS2_NS4_10_AllocNodeISaINS4_10_Hash_nodeIS2_Lb0EEEEEEEES0_INS4_14_Node_iteratorIS2_Lb0ELb0EEEbEOT_OT0_RKT1_+0x2a3>
    524a:	e8 51 e0 ff ff       	call   32a0 <__stack_chk_fail@plt>
    524f:	48 89 c7             	mov    %rax,%rdi
    5252:	e8 79 e1 ff ff       	call   33d0 <_Unwind_Resume@plt>
    5257:	e8 44 e0 ff ff       	call   32a0 <__stack_chk_fail@plt>
    525c:	48 81 c4 88 00 00 00 	add    $0x88,%rsp
    5263:	5b                   	pop    %rbx
    5264:	41 5c                	pop    %r12
    5266:	41 5d                	pop    %r13
    5268:	5d                   	pop    %rbp
    5269:	c3                   	ret

000000000000526a <_ZN9__gnu_cxx16__aligned_bufferISt4pairIKciEE7_M_addrEv>:
    526a:	55                   	push   %rbp
    526b:	48 89 e5             	mov    %rsp,%rbp
    526e:	48 89 7d f8          	mov    %rdi,-0x8(%rbp)
    5272:	48 8b 45 f8          	mov    -0x8(%rbp),%rax
    5276:	5d                   	pop    %rbp
    5277:	c3                   	ret

0000000000005278 <_ZSt9addressofINSt8__detail10_Hash_nodeISt4pairIKciELb0EEEEPT_RS6_>:
    5278:	55                   	push   %rbp
    5279:	48 89 e5             	mov    %rsp,%rbp
    527c:	48 83 ec 10          	sub    $0x10,%rsp
    5280:	48 89 7d f8          	mov    %rdi,-0x8(%rbp)
    5284:	48 8b 45 f8          	mov    -0x8(%rbp),%rax
    5288:	48 89 c7             	mov    %rax,%rdi
    528b:	e8 fc 04 00 00       	call   578c <_ZSt11__addressofINSt8__detail10_Hash_nodeISt4pairIKciELb0EEEEPT_RS6_>
    5290:	c9                   	leave
    5291:	c3                   	ret

0000000000005292 <_ZNSt15__new_allocatorINSt8__detail10_Hash_nodeISt4pairIKciELb0EEEE10deallocateEPS5_m>:
    5292:	55                   	push   %rbp
    5293:	48 89 e5             	mov    %rsp,%rbp
    5296:	48 83 ec 20          	sub    $0x20,%rsp
    529a:	48 89 7d f8          	mov    %rdi,-0x8(%rbp)
    529e:	48 89 75 f0          	mov    %rsi,-0x10(%rbp)
    52a2:	48 89 55 e8          	mov    %rdx,-0x18(%rbp)
    52a6:	48 8b 45 e8          	mov    -0x18(%rbp),%rax
    52aa:	48 c1 e0 04          	shl    $0x4,%rax
    52ae:	48 89 c2             	mov    %rax,%rdx
    52b1:	48 8b 45 f0          	mov    -0x10(%rbp),%rax
    52b5:	48 89 d6             	mov    %rdx,%rsi
    52b8:	48 89 c7             	mov    %rax,%rdi
    52bb:	e8 80 df ff ff       	call   3240 <_ZdlPvm@plt>
    52c0:	c9                   	leave
    52c1:	c3                   	ret

00000000000052c2 <_ZSt11__addressofIPNSt8__detail15_Hash_node_baseEEPT_RS3_>:
    52c2:	55                   	push   %rbp
    52c3:	48 89 e5             	mov    %rsp,%rbp
    52c6:	48 89 7d f8          	mov    %rdi,-0x8(%rbp)
    52ca:	48 8b 45 f8          	mov    -0x8(%rbp),%rax
    52ce:	5d                   	pop    %rbp
    52cf:	c3                   	ret

00000000000052d0 <_ZSt7forwardIRKSt4hashIcEEOT_RNSt16remove_referenceIS4_E4typeE>:
    52d0:	55                   	push   %rbp
    52d1:	48 89 e5             	mov    %rsp,%rbp
    52d4:	48 89 7d f8          	mov    %rdi,-0x8(%rbp)
    52d8:	48 8b 45 f8          	mov    -0x8(%rbp),%rax
    52dc:	5d                   	pop    %rbp
    52dd:	c3                   	ret

00000000000052de <_ZNKSt10_HashtableIcSt4pairIKciESaIS2_ENSt8__detail10_Select1stESt8equal_toIcESt4hashIcENS4_18_Mod_range_hashingENS4_20_Default_ranged_hashENS4_20_Prime_rehash_policyENS4_17_Hashtable_traitsILb0ELb0ELb1EEEE4sizeEv>:
    52de:	55                   	push   %rbp
    52df:	48 89 e5             	mov    %rsp,%rbp
    52e2:	48 89 7d f8          	mov    %rdi,-0x8(%rbp)
    52e6:	48 8b 45 f8          	mov    -0x8(%rbp),%rax
    52ea:	48 8b 40 18          	mov    0x18(%rax),%rax
    52ee:	5d                   	pop    %rbp
    52ef:	c3                   	ret

00000000000052f0 <_ZNSt10_HashtableIcSt4pairIKciESaIS2_ENSt8__detail10_Select1stESt8equal_toIcESt4hashIcENS4_18_Mod_range_hashingENS4_20_Default_ranged_hashENS4_20_Prime_rehash_policyENS4_17_Hashtable_traitsILb0ELb0ELb1EEEE22__small_size_thresholdEv>:
    52f0:	55                   	push   %rbp
    52f1:	48 89 e5             	mov    %rsp,%rbp
    52f4:	e8 a1 04 00 00       	call   579a <_ZNSt8__detail22_Hashtable_hash_traitsISt4hashIcEE22__small_size_thresholdEv>
    52f9:	5d                   	pop    %rbp
    52fa:	c3                   	ret
    52fb:	90                   	nop

00000000000052fc <_ZNSt10_HashtableIcSt4pairIKciESaIS2_ENSt8__detail10_Select1stESt8equal_toIcESt4hashIcENS4_18_Mod_range_hashingENS4_20_Default_ranged_hashENS4_20_Prime_rehash_policyENS4_17_Hashtable_traitsILb0ELb0ELb1EEEE5beginEv>:
    52fc:	55                   	push   %rbp
    52fd:	48 89 e5             	mov    %rsp,%rbp
    5300:	48 83 ec 20          	sub    $0x20,%rsp
    5304:	48 89 7d e8          	mov    %rdi,-0x18(%rbp)
    5308:	64 48 8b 04 25 28 00 	mov    %fs:0x28,%rax
    530f:	00 00 
    5311:	48 89 45 f8          	mov    %rax,-0x8(%rbp)
    5315:	31 c0                	xor    %eax,%eax
    5317:	48 8b 45 e8          	mov    -0x18(%rbp),%rax
    531b:	48 89 c7             	mov    %rax,%rdi
    531e:	e8 99 f3 ff ff       	call   46bc <_ZNKSt10_HashtableIcSt4pairIKciESaIS2_ENSt8__detail10_Select1stESt8equal_toIcESt4hashIcENS4_18_Mod_range_hashingENS4_20_Default_ranged_hashENS4_20_Prime_rehash_policyENS4_17_Hashtable_traitsILb0ELb0ELb1EEEE8_M_beginEv>
    5323:	48 89 c2             	mov    %rax,%rdx
    5326:	48 8d 45 f0          	lea    -0x10(%rbp),%rax
    532a:	48 89 d6             	mov    %rdx,%rsi
    532d:	48 89 c7             	mov    %rax,%rdi
    5330:	e8 13 02 00 00       	call   5548 <_ZNSt8__detail14_Node_iteratorISt4pairIKciELb0ELb0EEC1EPNS_10_Hash_nodeIS3_Lb0EEE>
    5335:	48 8b 45 f0          	mov    -0x10(%rbp),%rax
    5339:	48 8b 55 f8          	mov    -0x8(%rbp),%rdx
    533d:	64 48 2b 14 25 28 00 	sub    %fs:0x28,%rdx
    5344:	00 00 
    5346:	74 05                	je     534d <_ZNSt10_HashtableIcSt4pairIKciESaIS2_ENSt8__detail10_Select1stESt8equal_toIcESt4hashIcENS4_18_Mod_range_hashingENS4_20_Default_ranged_hashENS4_20_Prime_rehash_policyENS4_17_Hashtable_traitsILb0ELb0ELb1EEEE5beginEv+0x51>
    5348:	e8 53 df ff ff       	call   32a0 <__stack_chk_fail@plt>
    534d:	c9                   	leave
    534e:	c3                   	ret
    534f:	90                   	nop

0000000000005350 <_ZNSt10_HashtableIcSt4pairIKciESaIS2_ENSt8__detail10_Select1stESt8equal_toIcESt4hashIcENS4_18_Mod_range_hashingENS4_20_Default_ranged_hashENS4_20_Prime_rehash_policyENS4_17_Hashtable_traitsILb0ELb0ELb1EEEE3endEv>:
    5350:	55                   	push   %rbp
    5351:	48 89 e5             	mov    %rsp,%rbp
    5354:	48 83 ec 20          	sub    $0x20,%rsp
    5358:	48 89 7d e8          	mov    %rdi,-0x18(%rbp)
    535c:	64 48 8b 04 25 28 00 	mov    %fs:0x28,%rax
    5363:	00 00 
    5365:	48 89 45 f8          	mov    %rax,-0x8(%rbp)
    5369:	31 c0                	xor    %eax,%eax
    536b:	48 8d 45 f0          	lea    -0x10(%rbp),%rax
    536f:	be 00 00 00 00       	mov    $0x0,%esi
    5374:	48 89 c7             	mov    %rax,%rdi
    5377:	e8 cc 01 00 00       	call   5548 <_ZNSt8__detail14_Node_iteratorISt4pairIKciELb0ELb0EEC1EPNS_10_Hash_nodeIS3_Lb0EEE>
    537c:	48 8b 45 f0          	mov    -0x10(%rbp),%rax
    5380:	48 8b 55 f8          	mov    -0x8(%rbp),%rdx
    5384:	64 48 2b 14 25 28 00 	sub    %fs:0x28,%rdx
    538b:	00 00 
    538d:	74 05                	je     5394 <_ZNSt10_HashtableIcSt4pairIKciESaIS2_ENSt8__detail10_Select1stESt8equal_toIcESt4hashIcENS4_18_Mod_range_hashingENS4_20_Default_ranged_hashENS4_20_Prime_rehash_policyENS4_17_Hashtable_traitsILb0ELb0ELb1EEEE3endEv+0x44>
    538f:	e8 0c df ff ff       	call   32a0 <__stack_chk_fail@plt>
    5394:	c9                   	leave
    5395:	c3                   	ret

0000000000005396 <_ZNSt8__detailneERKNS_19_Node_iterator_baseISt4pairIKciELb0EEES6_>:
    5396:	55                   	push   %rbp
    5397:	48 89 e5             	mov    %rsp,%rbp
    539a:	48 89 7d f8          	mov    %rdi,-0x8(%rbp)
    539e:	48 89 75 f0          	mov    %rsi,-0x10(%rbp)
    53a2:	48 8b 45 f8          	mov    -0x8(%rbp),%rax
    53a6:	48 8b 10             	mov    (%rax),%rdx
    53a9:	48 8b 45 f0          	mov    -0x10(%rbp),%rax
    53ad:	48 8b 00             	mov    (%rax),%rax
    53b0:	48 39 c2             	cmp    %rax,%rdx
    53b3:	0f 95 c0             	setne  %al
    53b6:	5d                   	pop    %rbp
    53b7:	c3                   	ret

00000000000053b8 <_ZNSt8__detail14_Node_iteratorISt4pairIKciELb0ELb0EEppEv>:
    53b8:	55                   	push   %rbp
    53b9:	48 89 e5             	mov    %rsp,%rbp
    53bc:	48 83 ec 10          	sub    $0x10,%rsp
    53c0:	48 89 7d f8          	mov    %rdi,-0x8(%rbp)
    53c4:	48 8b 45 f8          	mov    -0x8(%rbp),%rax
    53c8:	48 89 c7             	mov    %rax,%rdi
    53cb:	e8 d6 03 00 00       	call   57a6 <_ZNSt8__detail19_Node_iterator_baseISt4pairIKciELb0EE7_M_incrEv>
    53d0:	48 8b 45 f8          	mov    -0x8(%rbp),%rax
    53d4:	c9                   	leave
    53d5:	c3                   	ret

00000000000053d6 <_ZNKSt8__detail15_Hashtable_baseIcSt4pairIKciENS_10_Select1stESt8equal_toIcESt4hashIcENS_18_Mod_range_hashingENS_20_Default_ranged_hashENS_17_Hashtable_traitsILb0ELb0ELb1EEEE16_M_key_equals_trIcEEbRKT_RKNS_16_Hash_node_valueIS3_Lb0EEE>:
    53d6:	55                   	push   %rbp
    53d7:	48 89 e5             	mov    %rsp,%rbp
    53da:	53                   	push   %rbx
    53db:	48 83 ec 38          	sub    $0x38,%rsp
    53df:	48 89 7d d8          	mov    %rdi,-0x28(%rbp)
    53e3:	48 89 75 d0          	mov    %rsi,-0x30(%rbp)
    53e7:	48 89 55 c8          	mov    %rdx,-0x38(%rbp)
    53eb:	64 48 8b 04 25 28 00 	mov    %fs:0x28,%rax
    53f2:	00 00 
    53f4:	48 89 45 e8          	mov    %rax,-0x18(%rbp)
    53f8:	31 c0                	xor    %eax,%eax
    53fa:	48 8b 45 d8          	mov    -0x28(%rbp),%rax
    53fe:	48 89 c7             	mov    %rax,%rdi
    5401:	e8 c6 03 00 00       	call   57cc <_ZNKSt8__detail15_Hashtable_baseIcSt4pairIKciENS_10_Select1stESt8equal_toIcESt4hashIcENS_18_Mod_range_hashingENS_20_Default_ranged_hashENS_17_Hashtable_traitsILb0ELb0ELb1EEEE5_M_eqEv>
    5406:	48 89 c3             	mov    %rax,%rbx
    5409:	48 8b 45 c8          	mov    -0x38(%rbp),%rax
    540d:	48 89 c7             	mov    %rax,%rdi
    5410:	e8 d1 03 00 00       	call   57e6 <_ZNKSt8__detail21_Hash_node_value_baseISt4pairIKciEE4_M_vEv>
    5415:	48 89 c2             	mov    %rax,%rdx
    5418:	48 8d 45 e7          	lea    -0x19(%rbp),%rax
    541c:	48 89 d6             	mov    %rdx,%rsi
    541f:	48 89 c7             	mov    %rax,%rdi
    5422:	e8 59 fb ff ff       	call   4f80 <_ZNKSt8__detail10_Select1stclIRKSt4pairIKciEEEONS0_10__1st_typeIT_E4typeEOS8_>
    5427:	48 89 c2             	mov    %rax,%rdx
    542a:	48 8b 45 d0          	mov    -0x30(%rbp),%rax
    542e:	48 89 c6             	mov    %rax,%rsi
    5431:	48 89 df             	mov    %rbx,%rdi
    5434:	e8 c7 03 00 00       	call   5800 <_ZNKSt8equal_toIcEclERKcS2_>
    5439:	48 8b 55 e8          	mov    -0x18(%rbp),%rdx
    543d:	64 48 2b 14 25 28 00 	sub    %fs:0x28,%rdx
    5444:	00 00 
    5446:	74 05                	je     544d <_ZNKSt8__detail15_Hashtable_baseIcSt4pairIKciENS_10_Select1stESt8equal_toIcESt4hashIcENS_18_Mod_range_hashingENS_20_Default_ranged_hashENS_17_Hashtable_traitsILb0ELb0ELb1EEEE16_M_key_equals_trIcEEbRKT_RKNS_16_Hash_node_valueIS3_Lb0EEE+0x77>
    5448:	e8 53 de ff ff       	call   32a0 <__stack_chk_fail@plt>
    544d:	48 8b 5d f8          	mov    -0x8(%rbp),%rbx
    5451:	c9                   	leave
    5452:	c3                   	ret
    5453:	90                   	nop

0000000000005454 <_ZNSt4pairINSt8__detail14_Node_iteratorIS_IKciELb0ELb0EEEbEC1IRS4_bLb1EEEOT_OT0_>:
    5454:	55                   	push   %rbp
    5455:	48 89 e5             	mov    %rsp,%rbp
    5458:	48 83 ec 20          	sub    $0x20,%rsp
    545c:	48 89 7d f8          	mov    %rdi,-0x8(%rbp)
    5460:	48 89 75 f0          	mov    %rsi,-0x10(%rbp)
    5464:	48 89 55 e8          	mov    %rdx,-0x18(%rbp)
    5468:	48 8b 45 f0          	mov    -0x10(%rbp),%rax
    546c:	48 89 c7             	mov    %rax,%rdi
    546f:	e8 b1 03 00 00       	call   5825 <_ZSt7forwardIRNSt8__detail14_Node_iteratorISt4pairIKciELb0ELb0EEEEOT_RNSt16remove_referenceIS7_E4typeE>
    5474:	48 8b 55 f8          	mov    -0x8(%rbp),%rdx
    5478:	48 8b 00             	mov    (%rax),%rax
    547b:	48 89 02             	mov    %rax,(%rdx)
    547e:	48 8b 45 e8          	mov    -0x18(%rbp),%rax
    5482:	48 89 c7             	mov    %rax,%rdi
    5485:	e8 8f ee ff ff       	call   4319 <_ZSt7forwardIbEOT_RNSt16remove_referenceIS0_E4typeE>
    548a:	0f b6 00             	movzbl (%rax),%eax
    548d:	48 8b 55 f8          	mov    -0x8(%rbp),%rdx
    5491:	88 42 08             	mov    %al,0x8(%rdx)
    5494:	90                   	nop
    5495:	c9                   	leave
    5496:	c3                   	ret
    5497:	90                   	nop

0000000000005498 <_ZNKSt8__detail15_Hash_code_baseIcSt4pairIKciENS_10_Select1stESt4hashIcENS_18_Mod_range_hashingENS_20_Default_ranged_hashELb0EE15_M_hash_code_trIcEEmRKT_>:
    5498:	55                   	push   %rbp
    5499:	48 89 e5             	mov    %rsp,%rbp
    549c:	48 83 ec 10          	sub    $0x10,%rsp
    54a0:	48 89 7d f8          	mov    %rdi,-0x8(%rbp)
    54a4:	48 89 75 f0          	mov    %rsi,-0x10(%rbp)
    54a8:	48 8b 45 f8          	mov    -0x8(%rbp),%rax
    54ac:	48 89 c7             	mov    %rax,%rdi
    54af:	e8 80 03 00 00       	call   5834 <_ZNKSt8__detail15_Hash_code_baseIcSt4pairIKciENS_10_Select1stESt4hashIcENS_18_Mod_range_hashingENS_20_Default_ranged_hashELb0EE7_M_hashEv>
    54b4:	48 89 c2             	mov    %rax,%rdx
    54b7:	48 8b 45 f0          	mov    -0x10(%rbp),%rax
    54bb:	0f b6 00             	movzbl (%rax),%eax
    54be:	0f be c0             	movsbl %al,%eax
    54c1:	89 c6                	mov    %eax,%esi
    54c3:	48 89 d7             	mov    %rdx,%rdi
    54c6:	e8 61 ec ff ff       	call   412c <_ZNKSt4hashIcEclEc>
    54cb:	c9                   	leave
    54cc:	c3                   	ret
    54cd:	90                   	nop

00000000000054ce <_ZNKSt10_HashtableIcSt4pairIKciESaIS2_ENSt8__detail10_Select1stESt8equal_toIcESt4hashIcENS4_18_Mod_range_hashingENS4_20_Default_ranged_hashENS4_20_Prime_rehash_policyENS4_17_Hashtable_traitsILb0ELb0ELb1EEEE15_M_bucket_indexEm>:
    54ce:	55                   	push   %rbp
    54cf:	48 89 e5             	mov    %rsp,%rbp
    54d2:	48 83 ec 10          	sub    $0x10,%rsp
    54d6:	48 89 7d f8          	mov    %rdi,-0x8(%rbp)
    54da:	48 89 75 f0          	mov    %rsi,-0x10(%rbp)
    54de:	48 8b 45 f8          	mov    -0x8(%rbp),%rax
    54e2:	48 8b 50 08          	mov    0x8(%rax),%rdx
    54e6:	48 8b 4d f0          	mov    -0x10(%rbp),%rcx
    54ea:	48 8b 45 f8          	mov    -0x8(%rbp),%rax
    54ee:	48 89 ce             	mov    %rcx,%rsi
    54f1:	48 89 c7             	mov    %rax,%rdi
    54f4:	e8 55 03 00 00       	call   584e <_ZNKSt8__detail15_Hash_code_baseIcSt4pairIKciENS_10_Select1stESt4hashIcENS_18_Mod_range_hashingENS_20_Default_ranged_hashELb0EE15_M_bucket_indexEmm>
    54f9:	c9                   	leave
    54fa:	c3                   	ret
    54fb:	90                   	nop

00000000000054fc <_ZNKSt10_HashtableIcSt4pairIKciESaIS2_ENSt8__detail10_Select1stESt8equal_toIcESt4hashIcENS4_18_Mod_range_hashingENS4_20_Default_ranged_hashENS4_20_Prime_rehash_policyENS4_17_Hashtable_traitsILb0ELb0ELb1EEEE15_M_find_node_trIcEEPNS4_10_Hash_nodeIS2_Lb0EEEmRKT_m>:
    54fc:	55                   	push   %rbp
    54fd:	48 89 e5             	mov    %rsp,%rbp
    5500:	48 83 ec 30          	sub    $0x30,%rsp
    5504:	48 89 7d e8          	mov    %rdi,-0x18(%rbp)
    5508:	48 89 75 e0          	mov    %rsi,-0x20(%rbp)
    550c:	48 89 55 d8          	mov    %rdx,-0x28(%rbp)
    5510:	48 89 4d d0          	mov    %rcx,-0x30(%rbp)
    5514:	48 8b 4d d0          	mov    -0x30(%rbp),%rcx
    5518:	48 8b 55 d8          	mov    -0x28(%rbp),%rdx
    551c:	48 8b 75 e0          	mov    -0x20(%rbp),%rsi
    5520:	48 8b 45 e8          	mov    -0x18(%rbp),%rax
    5524:	48 89 c7             	mov    %rax,%rdi
    5527:	e8 72 03 00 00       	call   589e <_ZNKSt10_HashtableIcSt4pairIKciESaIS2_ENSt8__detail10_Select1stESt8equal_toIcESt4hashIcENS4_18_Mod_range_hashingENS4_20_Default_ranged_hashENS4_20_Prime_rehash_policyENS4_17_Hashtable_traitsILb0ELb0ELb1EEEE22_M_find_before_node_trIcEEPNS4_15_Hash_node_baseEmRKT_m>
    552c:	48 89 45 f8          	mov    %rax,-0x8(%rbp)
    5530:	48 83 7d f8 00       	cmpq   $0x0,-0x8(%rbp)
    5535:	74 09                	je     5540 <_ZNKSt10_HashtableIcSt4pairIKciESaIS2_ENSt8__detail10_Select1stESt8equal_toIcESt4hashIcENS4_18_Mod_range_hashingENS4_20_Default_ranged_hashENS4_20_Prime_rehash_policyENS4_17_Hashtable_traitsILb0ELb0ELb1EEEE15_M_find_node_trIcEEPNS4_10_Hash_nodeIS2_Lb0EEEmRKT_m+0x44>
    5537:	48 8b 45 f8          	mov    -0x8(%rbp),%rax
    553b:	48 8b 00             	mov    (%rax),%rax
    553e:	eb 05                	jmp    5545 <_ZNKSt10_HashtableIcSt4pairIKciESaIS2_ENSt8__detail10_Select1stESt8equal_toIcESt4hashIcENS4_18_Mod_range_hashingENS4_20_Default_ranged_hashENS4_20_Prime_rehash_policyENS4_17_Hashtable_traitsILb0ELb0ELb1EEEE15_M_find_node_trIcEEPNS4_10_Hash_nodeIS2_Lb0EEEmRKT_m+0x49>
    5540:	b8 00 00 00 00       	mov    $0x0,%eax
    5545:	c9                   	leave
    5546:	c3                   	ret
    5547:	90                   	nop

0000000000005548 <_ZNSt8__detail14_Node_iteratorISt4pairIKciELb0ELb0EEC1EPNS_10_Hash_nodeIS3_Lb0EEE>:
    5548:	55                   	push   %rbp
    5549:	48 89 e5             	mov    %rsp,%rbp
    554c:	48 83 ec 10          	sub    $0x10,%rsp
    5550:	48 89 7d f8          	mov    %rdi,-0x8(%rbp)
    5554:	48 89 75 f0          	mov    %rsi,-0x10(%rbp)
    5558:	48 8b 45 f8          	mov    -0x8(%rbp),%rax
    555c:	48 8b 55 f0          	mov    -0x10(%rbp),%rdx
    5560:	48 89 d6             	mov    %rdx,%rsi
    5563:	48 89 c7             	mov    %rax,%rdi
    5566:	e8 0d 04 00 00       	call   5978 <_ZNSt8__detail19_Node_iterator_baseISt4pairIKciELb0EEC1EPNS_10_Hash_nodeIS3_Lb0EEE>
    556b:	90                   	nop
    556c:	c9                   	leave
    556d:	c3                   	ret

000000000000556e <_ZNSt4pairINSt8__detail14_Node_iteratorIS_IKciELb0ELb0EEEbEC1IS4_bLb1EEEOT_OT0_>:
    556e:	55                   	push   %rbp
    556f:	48 89 e5             	mov    %rsp,%rbp
    5572:	48 83 ec 20          	sub    $0x20,%rsp
    5576:	48 89 7d f8          	mov    %rdi,-0x8(%rbp)
    557a:	48 89 75 f0          	mov    %rsi,-0x10(%rbp)
    557e:	48 89 55 e8          	mov    %rdx,-0x18(%rbp)
    5582:	48 8b 45 f0          	mov    -0x10(%rbp),%rax
    5586:	48 89 c7             	mov    %rax,%rdi
    5589:	e8 04 04 00 00       	call   5992 <_ZSt7forwardINSt8__detail14_Node_iteratorISt4pairIKciELb0ELb0EEEEOT_RNSt16remove_referenceIS6_E4typeE>
    558e:	48 8b 55 f8          	mov    -0x8(%rbp),%rdx
    5592:	48 8b 00             	mov    (%rax),%rax
    5595:	48 89 02             	mov    %rax,(%rdx)
    5598:	48 8b 45 e8          	mov    -0x18(%rbp),%rax
    559c:	48 89 c7             	mov    %rax,%rdi
    559f:	e8 75 ed ff ff       	call   4319 <_ZSt7forwardIbEOT_RNSt16remove_referenceIS0_E4typeE>
    55a4:	0f b6 00             	movzbl (%rax),%eax
    55a7:	48 8b 55 f8          	mov    -0x8(%rbp),%rdx
    55ab:	88 42 08             	mov    %al,0x8(%rdx)
    55ae:	90                   	nop
    55af:	c9                   	leave
    55b0:	c3                   	ret

00000000000055b1 <_ZSt7forwardIRKcEOT_RNSt16remove_referenceIS2_E4typeE>:
    55b1:	55                   	push   %rbp
    55b2:	48 89 e5             	mov    %rsp,%rbp
    55b5:	48 89 7d f8          	mov    %rdi,-0x8(%rbp)
    55b9:	48 8b 45 f8          	mov    -0x8(%rbp),%rax
    55bd:	5d                   	pop    %rbp
    55be:	c3                   	ret

00000000000055bf <_ZNSt8__detail12_NodeBuilderINS_10_Select1stEE8_S_buildIRKcRKSt4pairIS4_iENS_10_AllocNodeISaINS_10_Hash_nodeIS7_Lb0EEEEEEEEPNT1_11__node_typeEOT_OT0_RKSF_>:
    55bf:	55                   	push   %rbp
    55c0:	48 89 e5             	mov    %rsp,%rbp
    55c3:	53                   	push   %rbx
    55c4:	48 83 ec 28          	sub    $0x28,%rsp
    55c8:	48 89 7d e8          	mov    %rdi,-0x18(%rbp)
    55cc:	48 89 75 e0          	mov    %rsi,-0x20(%rbp)
    55d0:	48 89 55 d8          	mov    %rdx,-0x28(%rbp)
    55d4:	48 8b 45 e0          	mov    -0x20(%rbp),%rax
    55d8:	48 89 c7             	mov    %rax,%rdi
    55db:	e8 c3 f7 ff ff       	call   4da3 <_ZSt7forwardIRKSt4pairIKciEEOT_RNSt16remove_referenceIS5_E4typeE>
    55e0:	48 8d 58 04          	lea    0x4(%rax),%rbx
    55e4:	48 8b 45 e8          	mov    -0x18(%rbp),%rax
    55e8:	48 89 c7             	mov    %rax,%rdi
    55eb:	e8 c1 ff ff ff       	call   55b1 <_ZSt7forwardIRKcEOT_RNSt16remove_referenceIS2_E4typeE>
    55f0:	48 89 c1             	mov    %rax,%rcx
    55f3:	48 8b 45 d8          	mov    -0x28(%rbp),%rax
    55f7:	48 89 da             	mov    %rbx,%rdx
    55fa:	48 89 ce             	mov    %rcx,%rsi
    55fd:	48 89 c7             	mov    %rax,%rdi
    5600:	e8 9b 03 00 00       	call   59a0 <_ZNKSt8__detail10_AllocNodeISaINS_10_Hash_nodeISt4pairIKciELb0EEEEEclIJRS3_RKiEEEPS5_DpOT_>
    5605:	48 8b 5d f8          	mov    -0x8(%rbp),%rbx
    5609:	c9                   	leave
    560a:	c3                   	ret
    560b:	90                   	nop

000000000000560c <_ZNSt10_HashtableIcSt4pairIKciESaIS2_ENSt8__detail10_Select1stESt8equal_toIcESt4hashIcENS4_18_Mod_range_hashingENS4_20_Default_ranged_hashENS4_20_Prime_rehash_policyENS4_17_Hashtable_traitsILb0ELb0ELb1EEEE12_Scoped_nodeC1EPNS4_10_Hash_nodeIS2_Lb0EEEPNS4_16_Hashtable_allocISaISI_EEE>:
    560c:	55                   	push   %rbp
    560d:	48 89 e5             	mov    %rsp,%rbp
    5610:	48 89 7d f8          	mov    %rdi,-0x8(%rbp)
    5614:	48 89 75 f0          	mov    %rsi,-0x10(%rbp)
    5618:	48 89 55 e8          	mov    %rdx,-0x18(%rbp)
    561c:	48 8b 45 f8          	mov    -0x8(%rbp),%rax
    5620:	48 8b 55 e8          	mov    -0x18(%rbp),%rdx
    5624:	48 89 10             	mov    %rdx,(%rax)
    5627:	48 8b 45 f8          	mov    -0x8(%rbp),%rax
    562b:	48 8b 55 f0          	mov    -0x10(%rbp),%rdx
    562f:	48 89 50 08          	mov    %rdx,0x8(%rax)
    5633:	90                   	nop
    5634:	5d                   	pop    %rbp
    5635:	c3                   	ret

0000000000005636 <_ZNSt10_HashtableIcSt4pairIKciESaIS2_ENSt8__detail10_Select1stESt8equal_toIcESt4hashIcENS4_18_Mod_range_hashingENS4_20_Default_ranged_hashENS4_20_Prime_rehash_policyENS4_17_Hashtable_traitsILb0ELb0ELb1EEEE12_Scoped_nodeD1Ev>:
    5636:	55                   	push   %rbp
    5637:	48 89 e5             	mov    %rsp,%rbp
    563a:	48 83 ec 10          	sub    $0x10,%rsp
    563e:	48 89 7d f8          	mov    %rdi,-0x8(%rbp)
    5642:	48 8b 45 f8          	mov    -0x8(%rbp),%rax
    5646:	48 8b 40 08          	mov    0x8(%rax),%rax
    564a:	48 85 c0             	test   %rax,%rax
    564d:	74 1a                	je     5669 <_ZNSt10_HashtableIcSt4pairIKciESaIS2_ENSt8__detail10_Select1stESt8equal_toIcESt4hashIcENS4_18_Mod_range_hashingENS4_20_Default_ranged_hashENS4_20_Prime_rehash_policyENS4_17_Hashtable_traitsILb0ELb0ELb1EEEE12_Scoped_nodeD1Ev+0x33>
    564f:	48 8b 45 f8          	mov    -0x8(%rbp),%rax
    5653:	48 8b 00             	mov    (%rax),%rax
    5656:	48 8b 55 f8          	mov    -0x8(%rbp),%rdx
    565a:	48 8b 52 08          	mov    0x8(%rdx),%rdx
    565e:	48 89 d6             	mov    %rdx,%rsi
    5661:	48 89 c7             	mov    %rax,%rdi
    5664:	e8 f5 f2 ff ff       	call   495e <_ZNSt8__detail16_Hashtable_allocISaINS_10_Hash_nodeISt4pairIKciELb0EEEEE18_M_deallocate_nodeEPS5_>
    5669:	90                   	nop
    566a:	c9                   	leave
    566b:	c3                   	ret

000000000000566c <_ZNSt10_HashtableIcSt4pairIKciESaIS2_ENSt8__detail10_Select1stESt8equal_toIcESt4hashIcENS4_18_Mod_range_hashingENS4_20_Default_ranged_hashENS4_20_Prime_rehash_policyENS4_17_Hashtable_traitsILb0ELb0ELb1EEEE21_M_insert_unique_nodeEmmPNS4_10_Hash_nodeIS2_Lb0EEEm>:
    566c:	55                   	push   %rbp
    566d:	48 89 e5             	mov    %rsp,%rbp
    5670:	48 83 ec 70          	sub    $0x70,%rsp
    5674:	48 89 7d b8          	mov    %rdi,-0x48(%rbp)
    5678:	48 89 75 b0          	mov    %rsi,-0x50(%rbp)
    567c:	48 89 55 a8          	mov    %rdx,-0x58(%rbp)
    5680:	48 89 4d a0          	mov    %rcx,-0x60(%rbp)
    5684:	4c 89 45 98          	mov    %r8,-0x68(%rbp)
    5688:	64 48 8b 04 25 28 00 	mov    %fs:0x28,%rax
    568f:	00 00 
    5691:	48 89 45 f8          	mov    %rax,-0x8(%rbp)
    5695:	31 c0                	xor    %eax,%eax
    5697:	48 8b 45 b8          	mov    -0x48(%rbp),%rax
    569b:	48 83 c0 20          	add    $0x20,%rax
    569f:	48 89 c7             	mov    %rax,%rdi
    56a2:	e8 fb ea ff ff       	call   41a2 <_ZNKSt8__detail20_Prime_rehash_policy8_M_stateEv>
    56a7:	48 89 45 c8          	mov    %rax,-0x38(%rbp)
    56ab:	48 8d 45 c8          	lea    -0x38(%rbp),%rax
    56af:	48 89 45 d8          	mov    %rax,-0x28(%rbp)
    56b3:	48 8b 45 b8          	mov    -0x48(%rbp),%rax
    56b7:	48 83 c0 20          	add    $0x20,%rax
    56bb:	48 8b 55 b8          	mov    -0x48(%rbp),%rdx
    56bf:	48 8b 52 18          	mov    0x18(%rdx),%rdx
    56c3:	48 8b 4d b8          	mov    -0x48(%rbp),%rcx
    56c7:	48 8b 71 08          	mov    0x8(%rcx),%rsi
    56cb:	48 8b 4d 98          	mov    -0x68(%rbp),%rcx
    56cf:	48 89 c7             	mov    %rax,%rdi
    56d2:	e8 59 dc ff ff       	call   3330 <_ZNKSt8__detail20_Prime_rehash_policy14_M_need_rehashEmmm@plt>
    56d7:	89 c1                	mov    %eax,%ecx
    56d9:	48 89 d0             	mov    %rdx,%rax
    56dc:	89 4d e0             	mov    %ecx,-0x20(%rbp)
    56df:	48 89 45 e8          	mov    %rax,-0x18(%rbp)
    56e3:	0f b6 45 e0          	movzbl -0x20(%rbp),%eax
    56e7:	84 c0                	test   %al,%al
    56e9:	74 2e                	je     5719 <_ZNSt10_HashtableIcSt4pairIKciESaIS2_ENSt8__detail10_Select1stESt8equal_toIcESt4hashIcENS4_18_Mod_range_hashingENS4_20_Default_ranged_hashENS4_20_Prime_rehash_policyENS4_17_Hashtable_traitsILb0ELb0ELb1EEEE21_M_insert_unique_nodeEmmPNS4_10_Hash_nodeIS2_Lb0EEEm+0xad>
    56eb:	48 8b 4d e8          	mov    -0x18(%rbp),%rcx
    56ef:	48 8b 55 d8          	mov    -0x28(%rbp),%rdx
    56f3:	48 8b 45 b8          	mov    -0x48(%rbp),%rax
    56f7:	48 89 ce             	mov    %rcx,%rsi
    56fa:	48 89 c7             	mov    %rax,%rdi
    56fd:	e8 ee 02 00 00       	call   59f0 <_ZNSt10_HashtableIcSt4pairIKciESaIS2_ENSt8__detail10_Select1stESt8equal_toIcESt4hashIcENS4_18_Mod_range_hashingENS4_20_Default_ranged_hashENS4_20_Prime_rehash_policyENS4_17_Hashtable_traitsILb0ELb0ELb1EEEE9_M_rehashEmRKm>
    5702:	48 8b 55 a8          	mov    -0x58(%rbp),%rdx
    5706:	48 8b 45 b8          	mov    -0x48(%rbp),%rax
    570a:	48 89 d6             	mov    %rdx,%rsi
    570d:	48 89 c7             	mov    %rax,%rdi
    5710:	e8 b9 fd ff ff       	call   54ce <_ZNKSt10_HashtableIcSt4pairIKciESaIS2_ENSt8__detail10_Select1stESt8equal_toIcESt4hashIcENS4_18_Mod_range_hashingENS4_20_Default_ranged_hashENS4_20_Prime_rehash_policyENS4_17_Hashtable_traitsILb0ELb0ELb1EEEE15_M_bucket_indexEm>
    5715:	48 89 45 b0          	mov    %rax,-0x50(%rbp)
    5719:	48 8b 45 a0          	mov    -0x60(%rbp),%rax
    571d:	48 8d 48 08          	lea    0x8(%rax),%rcx
    5721:	48 8b 55 a8          	mov    -0x58(%rbp),%rdx
    5725:	48 8b 45 b8          	mov    -0x48(%rbp),%rax
    5729:	48 89 ce             	mov    %rcx,%rsi
    572c:	48 89 c7             	mov    %rax,%rdi
    572f:	e8 26 03 00 00       	call   5a5a <_ZNKSt8__detail15_Hash_code_baseIcSt4pairIKciENS_10_Select1stESt4hashIcENS_18_Mod_range_hashingENS_20_Default_ranged_hashELb0EE13_M_store_codeERNS_21_Hash_node_code_cacheILb0EEEm>
    5734:	48 8b 55 a0          	mov    -0x60(%rbp),%rdx
    5738:	48 8b 4d b0          	mov    -0x50(%rbp),%rcx
    573c:	48 8b 45 b8          	mov    -0x48(%rbp),%rax
    5740:	48 89 ce             	mov    %rcx,%rsi
    5743:	48 89 c7             	mov    %rax,%rdi
    5746:	e8 23 03 00 00       	call   5a6e <_ZNSt10_HashtableIcSt4pairIKciESaIS2_ENSt8__detail10_Select1stESt8equal_toIcESt4hashIcENS4_18_Mod_range_hashingENS4_20_Default_ranged_hashENS4_20_Prime_rehash_policyENS4_17_Hashtable_traitsILb0ELb0ELb1EEEE22_M_insert_bucket_beginEmPNS4_10_Hash_nodeIS2_Lb0EEE>
    574b:	48 8b 45 b8          	mov    -0x48(%rbp),%rax
    574f:	48 8b 40 18          	mov    0x18(%rax),%rax
    5753:	48 8d 50 01          	lea    0x1(%rax),%rdx
    5757:	48 8b 45 b8          	mov    -0x48(%rbp),%rax
    575b:	48 89 50 18          	mov    %rdx,0x18(%rax)
    575f:	48 8b 55 a0          	mov    -0x60(%rbp),%rdx
    5763:	48 8d 45 d0          	lea    -0x30(%rbp),%rax
    5767:	48 89 d6             	mov    %rdx,%rsi
    576a:	48 89 c7             	mov    %rax,%rdi
    576d:	e8 d6 fd ff ff       	call   5548 <_ZNSt8__detail14_Node_iteratorISt4pairIKciELb0ELb0EEC1EPNS_10_Hash_nodeIS3_Lb0EEE>
    5772:	48 8b 45 d0          	mov    -0x30(%rbp),%rax
    5776:	48 8b 55 f8          	mov    -0x8(%rbp),%rdx
    577a:	64 48 2b 14 25 28 00 	sub    %fs:0x28,%rdx
    5781:	00 00 
    5783:	74 05                	je     578a <_ZNSt10_HashtableIcSt4pairIKciESaIS2_ENSt8__detail10_Select1stESt8equal_toIcESt4hashIcENS4_18_Mod_range_hashingENS4_20_Default_ranged_hashENS4_20_Prime_rehash_policyENS4_17_Hashtable_traitsILb0ELb0ELb1EEEE21_M_insert_unique_nodeEmmPNS4_10_Hash_nodeIS2_Lb0EEEm+0x11e>
    5785:	e8 16 db ff ff       	call   32a0 <__stack_chk_fail@plt>
    578a:	c9                   	leave
    578b:	c3                   	ret

000000000000578c <_ZSt11__addressofINSt8__detail10_Hash_nodeISt4pairIKciELb0EEEEPT_RS6_>:
    578c:	55                   	push   %rbp
    578d:	48 89 e5             	mov    %rsp,%rbp
    5790:	48 89 7d f8          	mov    %rdi,-0x8(%rbp)
    5794:	48 8b 45 f8          	mov    -0x8(%rbp),%rax
    5798:	5d                   	pop    %rbp
    5799:	c3                   	ret

000000000000579a <_ZNSt8__detail22_Hashtable_hash_traitsISt4hashIcEE22__small_size_thresholdEv>:
    579a:	55                   	push   %rbp
    579b:	48 89 e5             	mov    %rsp,%rbp
    579e:	b8 00 00 00 00       	mov    $0x0,%eax
    57a3:	5d                   	pop    %rbp
    57a4:	c3                   	ret
    57a5:	90                   	nop

00000000000057a6 <_ZNSt8__detail19_Node_iterator_baseISt4pairIKciELb0EE7_M_incrEv>:
    57a6:	55                   	push   %rbp
    57a7:	48 89 e5             	mov    %rsp,%rbp
    57aa:	48 83 ec 10          	sub    $0x10,%rsp
    57ae:	48 89 7d f8          	mov    %rdi,-0x8(%rbp)
    57b2:	48 8b 45 f8          	mov    -0x8(%rbp),%rax
    57b6:	48 8b 00             	mov    (%rax),%rax
    57b9:	48 89 c7             	mov    %rax,%rdi
    57bc:	e8 8b f1 ff ff       	call   494c <_ZNKSt8__detail10_Hash_nodeISt4pairIKciELb0EE7_M_nextEv>
    57c1:	48 8b 55 f8          	mov    -0x8(%rbp),%rdx
    57c5:	48 89 02             	mov    %rax,(%rdx)
    57c8:	90                   	nop
    57c9:	c9                   	leave
    57ca:	c3                   	ret
    57cb:	90                   	nop

00000000000057cc <_ZNKSt8__detail15_Hashtable_baseIcSt4pairIKciENS_10_Select1stESt8equal_toIcESt4hashIcENS_18_Mod_range_hashingENS_20_Default_ranged_hashENS_17_Hashtable_traitsILb0ELb0ELb1EEEE5_M_eqEv>:
    57cc:	55                   	push   %rbp
    57cd:	48 89 e5             	mov    %rsp,%rbp
    57d0:	48 83 ec 10          	sub    $0x10,%rsp
    57d4:	48 89 7d f8          	mov    %rdi,-0x8(%rbp)
    57d8:	48 8b 45 f8          	mov    -0x8(%rbp),%rax
    57dc:	48 89 c7             	mov    %rax,%rdi
    57df:	e8 7a 03 00 00       	call   5b5e <_ZNKSt8__detail21_Hashtable_ebo_helperILi0ESt8equal_toIcELb1EE7_M_cgetEv>
    57e4:	c9                   	leave
    57e5:	c3                   	ret

00000000000057e6 <_ZNKSt8__detail21_Hash_node_value_baseISt4pairIKciEE4_M_vEv>:
    57e6:	55                   	push   %rbp
    57e7:	48 89 e5             	mov    %rsp,%rbp
    57ea:	48 83 ec 10          	sub    $0x10,%rsp
    57ee:	48 89 7d f8          	mov    %rdi,-0x8(%rbp)
    57f2:	48 8b 45 f8          	mov    -0x8(%rbp),%rax
    57f6:	48 89 c7             	mov    %rax,%rdi
    57f9:	e8 6e 03 00 00       	call   5b6c <_ZNKSt8__detail21_Hash_node_value_baseISt4pairIKciEE9_M_valptrEv>
    57fe:	c9                   	leave
    57ff:	c3                   	ret

0000000000005800 <_ZNKSt8equal_toIcEclERKcS2_>:
    5800:	55                   	push   %rbp
    5801:	48 89 e5             	mov    %rsp,%rbp
    5804:	48 89 7d f8          	mov    %rdi,-0x8(%rbp)
    5808:	48 89 75 f0          	mov    %rsi,-0x10(%rbp)
    580c:	48 89 55 e8          	mov    %rdx,-0x18(%rbp)
    5810:	48 8b 45 f0          	mov    -0x10(%rbp),%rax
    5814:	0f b6 10             	movzbl (%rax),%edx
    5817:	48 8b 45 e8          	mov    -0x18(%rbp),%rax
    581b:	0f b6 00             	movzbl (%rax),%eax
    581e:	38 c2                	cmp    %al,%dl
    5820:	0f 94 c0             	sete   %al
    5823:	5d                   	pop    %rbp
    5824:	c3                   	ret

0000000000005825 <_ZSt7forwardIRNSt8__detail14_Node_iteratorISt4pairIKciELb0ELb0EEEEOT_RNSt16remove_referenceIS7_E4typeE>:
    5825:	55                   	push   %rbp
    5826:	48 89 e5             	mov    %rsp,%rbp
    5829:	48 89 7d f8          	mov    %rdi,-0x8(%rbp)
    582d:	48 8b 45 f8          	mov    -0x8(%rbp),%rax
    5831:	5d                   	pop    %rbp
    5832:	c3                   	ret
    5833:	90                   	nop

0000000000005834 <_ZNKSt8__detail15_Hash_code_baseIcSt4pairIKciENS_10_Select1stESt4hashIcENS_18_Mod_range_hashingENS_20_Default_ranged_hashELb0EE7_M_hashEv>:
    5834:	55                   	push   %rbp
    5835:	48 89 e5             	mov    %rsp,%rbp
    5838:	48 83 ec 10          	sub    $0x10,%rsp
    583c:	48 89 7d f8          	mov    %rdi,-0x8(%rbp)
    5840:	48 8b 45 f8          	mov    -0x8(%rbp),%rax
    5844:	48 89 c7             	mov    %rax,%rdi
    5847:	e8 3a 03 00 00       	call   5b86 <_ZNKSt8__detail21_Hashtable_ebo_helperILi1ESt4hashIcELb1EE7_M_cgetEv>
    584c:	c9                   	leave
    584d:	c3                   	ret

000000000000584e <_ZNKSt8__detail15_Hash_code_baseIcSt4pairIKciENS_10_Select1stESt4hashIcENS_18_Mod_range_hashingENS_20_Default_ranged_hashELb0EE15_M_bucket_indexEmm>:
    584e:	55                   	push   %rbp
    584f:	48 89 e5             	mov    %rsp,%rbp
    5852:	48 83 ec 30          	sub    $0x30,%rsp
    5856:	48 89 7d e8          	mov    %rdi,-0x18(%rbp)
    585a:	48 89 75 e0          	mov    %rsi,-0x20(%rbp)
    585e:	48 89 55 d8          	mov    %rdx,-0x28(%rbp)
    5862:	64 48 8b 04 25 28 00 	mov    %fs:0x28,%rax
    5869:	00 00 
    586b:	48 89 45 f8          	mov    %rax,-0x8(%rbp)
    586f:	31 c0                	xor    %eax,%eax
    5871:	48 8b 55 d8          	mov    -0x28(%rbp),%rdx
    5875:	48 8b 4d e0          	mov    -0x20(%rbp),%rcx
    5879:	48 8d 45 f7          	lea    -0x9(%rbp),%rax
    587d:	48 89 ce             	mov    %rcx,%rsi
    5880:	48 89 c7             	mov    %rax,%rdi
    5883:	e8 ce e8 ff ff       	call   4156 <_ZNKSt8__detail18_Mod_range_hashingclEmm>
    5888:	48 8b 55 f8          	mov    -0x8(%rbp),%rdx
    588c:	64 48 2b 14 25 28 00 	sub    %fs:0x28,%rdx
    5893:	00 00 
    5895:	74 05                	je     589c <_ZNKSt8__detail15_Hash_code_baseIcSt4pairIKciENS_10_Select1stESt4hashIcENS_18_Mod_range_hashingENS_20_Default_ranged_hashELb0EE15_M_bucket_indexEmm+0x4e>
    5897:	e8 04 da ff ff       	call   32a0 <__stack_chk_fail@plt>
    589c:	c9                   	leave
    589d:	c3                   	ret

000000000000589e <_ZNKSt10_HashtableIcSt4pairIKciESaIS2_ENSt8__detail10_Select1stESt8equal_toIcESt4hashIcENS4_18_Mod_range_hashingENS4_20_Default_ranged_hashENS4_20_Prime_rehash_policyENS4_17_Hashtable_traitsILb0ELb0ELb1EEEE22_M_find_before_node_trIcEEPNS4_15_Hash_node_baseEmRKT_m>:
    589e:	55                   	push   %rbp
    589f:	48 89 e5             	mov    %rsp,%rbp
    58a2:	48 83 ec 30          	sub    $0x30,%rsp
    58a6:	48 89 7d e8          	mov    %rdi,-0x18(%rbp)
    58aa:	48 89 75 e0          	mov    %rsi,-0x20(%rbp)
    58ae:	48 89 55 d8          	mov    %rdx,-0x28(%rbp)
    58b2:	48 89 4d d0          	mov    %rcx,-0x30(%rbp)
    58b6:	48 8b 45 e8          	mov    -0x18(%rbp),%rax
    58ba:	48 8b 10             	mov    (%rax),%rdx
    58bd:	48 8b 45 e0          	mov    -0x20(%rbp),%rax
    58c1:	48 c1 e0 03          	shl    $0x3,%rax
    58c5:	48 01 d0             	add    %rdx,%rax
    58c8:	48 8b 00             	mov    (%rax),%rax
    58cb:	48 89 45 f0          	mov    %rax,-0x10(%rbp)
    58cf:	48 83 7d f0 00       	cmpq   $0x0,-0x10(%rbp)
    58d4:	75 0a                	jne    58e0 <_ZNKSt10_HashtableIcSt4pairIKciESaIS2_ENSt8__detail10_Select1stESt8equal_toIcESt4hashIcENS4_18_Mod_range_hashingENS4_20_Default_ranged_hashENS4_20_Prime_rehash_policyENS4_17_Hashtable_traitsILb0ELb0ELb1EEEE22_M_find_before_node_trIcEEPNS4_15_Hash_node_baseEmRKT_m+0x42>
    58d6:	b8 00 00 00 00       	mov    $0x0,%eax
    58db:	e9 95 00 00 00       	jmp    5975 <_ZNKSt10_HashtableIcSt4pairIKciESaIS2_ENSt8__detail10_Select1stESt8equal_toIcESt4hashIcENS4_18_Mod_range_hashingENS4_20_Default_ranged_hashENS4_20_Prime_rehash_policyENS4_17_Hashtable_traitsILb0ELb0ELb1EEEE22_M_find_before_node_trIcEEPNS4_15_Hash_node_baseEmRKT_m+0xd7>
    58e0:	48 8b 45 f0          	mov    -0x10(%rbp),%rax
    58e4:	48 8b 00             	mov    (%rax),%rax
    58e7:	48 89 45 f8          	mov    %rax,-0x8(%rbp)
    58eb:	48 8b 45 f8          	mov    -0x8(%rbp),%rax
    58ef:	48 8d 48 08          	lea    0x8(%rax),%rcx
    58f3:	48 8b 55 d0          	mov    -0x30(%rbp),%rdx
    58f7:	48 8b 75 d8          	mov    -0x28(%rbp),%rsi
    58fb:	48 8b 45 e8          	mov    -0x18(%rbp),%rax
    58ff:	48 89 c7             	mov    %rax,%rdi
    5902:	e8 8d 02 00 00       	call   5b94 <_ZNKSt8__detail15_Hashtable_baseIcSt4pairIKciENS_10_Select1stESt8equal_toIcESt4hashIcENS_18_Mod_range_hashingENS_20_Default_ranged_hashENS_17_Hashtable_traitsILb0ELb0ELb1EEEE12_M_equals_trIcEEbRKT_mRKNS_16_Hash_node_valueIS3_Lb0EEE>
    5907:	84 c0                	test   %al,%al
    5909:	74 06                	je     5911 <_ZNKSt10_HashtableIcSt4pairIKciESaIS2_ENSt8__detail10_Select1stESt8equal_toIcESt4hashIcENS4_18_Mod_range_hashingENS4_20_Default_ranged_hashENS4_20_Prime_rehash_policyENS4_17_Hashtable_traitsILb0ELb0ELb1EEEE22_M_find_before_node_trIcEEPNS4_15_Hash_node_baseEmRKT_m+0x73>
    590b:	48 8b 45 f0          	mov    -0x10(%rbp),%rax
    590f:	eb 64                	jmp    5975 <_ZNKSt10_HashtableIcSt4pairIKciESaIS2_ENSt8__detail10_Select1stESt8equal_toIcESt4hashIcENS4_18_Mod_range_hashingENS4_20_Default_ranged_hashENS4_20_Prime_rehash_policyENS4_17_Hashtable_traitsILb0ELb0ELb1EEEE22_M_find_before_node_trIcEEPNS4_15_Hash_node_baseEmRKT_m+0xd7>
    5911:	48 8b 45 f8          	mov    -0x8(%rbp),%rax
    5915:	48 8b 00             	mov    (%rax),%rax
    5918:	48 85 c0             	test   %rax,%rax
    591b:	74 25                	je     5942 <_ZNKSt10_HashtableIcSt4pairIKciESaIS2_ENSt8__detail10_Select1stESt8equal_toIcESt4hashIcENS4_18_Mod_range_hashingENS4_20_Default_ranged_hashENS4_20_Prime_rehash_policyENS4_17_Hashtable_traitsILb0ELb0ELb1EEEE22_M_find_before_node_trIcEEPNS4_15_Hash_node_baseEmRKT_m+0xa4>
    591d:	48 8b 45 f8          	mov    -0x8(%rbp),%rax
    5921:	48 89 c7             	mov    %rax,%rdi
    5924:	e8 23 f0 ff ff       	call   494c <_ZNKSt8__detail10_Hash_nodeISt4pairIKciELb0EE7_M_nextEv>
    5929:	48 8d 50 08          	lea    0x8(%rax),%rdx
    592d:	48 8b 45 e8          	mov    -0x18(%rbp),%rax
    5931:	48 89 d6             	mov    %rdx,%rsi
    5934:	48 89 c7             	mov    %rax,%rdi
    5937:	e8 b0 02 00 00       	call   5bec <_ZNKSt10_HashtableIcSt4pairIKciESaIS2_ENSt8__detail10_Select1stESt8equal_toIcESt4hashIcENS4_18_Mod_range_hashingENS4_20_Default_ranged_hashENS4_20_Prime_rehash_policyENS4_17_Hashtable_traitsILb0ELb0ELb1EEEE15_M_bucket_indexERKNS4_16_Hash_node_valueIS2_Lb0EEE>
    593c:	48 39 45 e0          	cmp    %rax,-0x20(%rbp)
    5940:	74 07                	je     5949 <_ZNKSt10_HashtableIcSt4pairIKciESaIS2_ENSt8__detail10_Select1stESt8equal_toIcESt4hashIcENS4_18_Mod_range_hashingENS4_20_Default_ranged_hashENS4_20_Prime_rehash_policyENS4_17_Hashtable_traitsILb0ELb0ELb1EEEE22_M_find_before_node_trIcEEPNS4_15_Hash_node_baseEmRKT_m+0xab>
    5942:	b8 01 00 00 00       	mov    $0x1,%eax
    5947:	eb 05                	jmp    594e <_ZNKSt10_HashtableIcSt4pairIKciESaIS2_ENSt8__detail10_Select1stESt8equal_toIcESt4hashIcENS4_18_Mod_range_hashingENS4_20_Default_ranged_hashENS4_20_Prime_rehash_policyENS4_17_Hashtable_traitsILb0ELb0ELb1EEEE22_M_find_before_node_trIcEEPNS4_15_Hash_node_baseEmRKT_m+0xb0>
    5949:	b8 00 00 00 00       	mov    $0x0,%eax
    594e:	84 c0                	test   %al,%al
    5950:	75 1d                	jne    596f <_ZNKSt10_HashtableIcSt4pairIKciESaIS2_ENSt8__detail10_Select1stESt8equal_toIcESt4hashIcENS4_18_Mod_range_hashingENS4_20_Default_ranged_hashENS4_20_Prime_rehash_policyENS4_17_Hashtable_traitsILb0ELb0ELb1EEEE22_M_find_before_node_trIcEEPNS4_15_Hash_node_baseEmRKT_m+0xd1>
    5952:	48 8b 45 f8          	mov    -0x8(%rbp),%rax
    5956:	48 89 45 f0          	mov    %rax,-0x10(%rbp)
    595a:	48 8b 45 f8          	mov    -0x8(%rbp),%rax
    595e:	48 89 c7             	mov    %rax,%rdi
    5961:	e8 e6 ef ff ff       	call   494c <_ZNKSt8__detail10_Hash_nodeISt4pairIKciELb0EE7_M_nextEv>
    5966:	48 89 45 f8          	mov    %rax,-0x8(%rbp)
    596a:	e9 7c ff ff ff       	jmp    58eb <_ZNKSt10_HashtableIcSt4pairIKciESaIS2_ENSt8__detail10_Select1stESt8equal_toIcESt4hashIcENS4_18_Mod_range_hashingENS4_20_Default_ranged_hashENS4_20_Prime_rehash_policyENS4_17_Hashtable_traitsILb0ELb0ELb1EEEE22_M_find_before_node_trIcEEPNS4_15_Hash_node_baseEmRKT_m+0x4d>
    596f:	90                   	nop
    5970:	b8 00 00 00 00       	mov    $0x0,%eax
    5975:	c9                   	leave
    5976:	c3                   	ret
    5977:	90                   	nop

0000000000005978 <_ZNSt8__detail19_Node_iterator_baseISt4pairIKciELb0EEC1EPNS_10_Hash_nodeIS3_Lb0EEE>:
    5978:	55                   	push   %rbp
    5979:	48 89 e5             	mov    %rsp,%rbp
    597c:	48 89 7d f8          	mov    %rdi,-0x8(%rbp)
    5980:	48 89 75 f0          	mov    %rsi,-0x10(%rbp)
    5984:	48 8b 45 f8          	mov    -0x8(%rbp),%rax
    5988:	48 8b 55 f0          	mov    -0x10(%rbp),%rdx
    598c:	48 89 10             	mov    %rdx,(%rax)
    598f:	90                   	nop
    5990:	5d                   	pop    %rbp
    5991:	c3                   	ret

0000000000005992 <_ZSt7forwardINSt8__detail14_Node_iteratorISt4pairIKciELb0ELb0EEEEOT_RNSt16remove_referenceIS6_E4typeE>:
    5992:	55                   	push   %rbp
    5993:	48 89 e5             	mov    %rsp,%rbp
    5996:	48 89 7d f8          	mov    %rdi,-0x8(%rbp)
    599a:	48 8b 45 f8          	mov    -0x8(%rbp),%rax
    599e:	5d                   	pop    %rbp
    599f:	c3                   	ret

00000000000059a0 <_ZNKSt8__detail10_AllocNodeISaINS_10_Hash_nodeISt4pairIKciELb0EEEEEclIJRS3_RKiEEEPS5_DpOT_>:
    59a0:	55                   	push   %rbp
    59a1:	48 89 e5             	mov    %rsp,%rbp
    59a4:	41 54                	push   %r12
    59a6:	53                   	push   %rbx
    59a7:	48 83 ec 20          	sub    $0x20,%rsp
    59ab:	48 89 7d e8          	mov    %rdi,-0x18(%rbp)
    59af:	48 89 75 e0          	mov    %rsi,-0x20(%rbp)
    59b3:	48 89 55 d8          	mov    %rdx,-0x28(%rbp)
    59b7:	48 8b 45 e8          	mov    -0x18(%rbp),%rax
    59bb:	48 8b 18             	mov    (%rax),%rbx
    59be:	48 8b 45 d8          	mov    -0x28(%rbp),%rax
    59c2:	48 89 c7             	mov    %rax,%rdi
    59c5:	e8 4f 02 00 00       	call   5c19 <_ZSt7forwardIRKiEOT_RNSt16remove_referenceIS2_E4typeE>
    59ca:	49 89 c4             	mov    %rax,%r12
    59cd:	48 8b 45 e0          	mov    -0x20(%rbp),%rax
    59d1:	48 89 c7             	mov    %rax,%rdi
    59d4:	e8 d8 fb ff ff       	call   55b1 <_ZSt7forwardIRKcEOT_RNSt16remove_referenceIS2_E4typeE>
    59d9:	4c 89 e2             	mov    %r12,%rdx
    59dc:	48 89 c6             	mov    %rax,%rsi
    59df:	48 89 df             	mov    %rbx,%rdi
    59e2:	e8 5d 02 00 00       	call   5c44 <_ZNSt8__detail16_Hashtable_allocISaINS_10_Hash_nodeISt4pairIKciELb0EEEEE16_M_allocate_nodeIJRS3_RKiEEEPS5_DpOT_>
    59e7:	48 83 c4 20          	add    $0x20,%rsp
    59eb:	5b                   	pop    %rbx
    59ec:	41 5c                	pop    %r12
    59ee:	5d                   	pop    %rbp
    59ef:	c3                   	ret

00000000000059f0 <_ZNSt10_HashtableIcSt4pairIKciESaIS2_ENSt8__detail10_Select1stESt8equal_toIcESt4hashIcENS4_18_Mod_range_hashingENS4_20_Default_ranged_hashENS4_20_Prime_rehash_policyENS4_17_Hashtable_traitsILb0ELb0ELb1EEEE9_M_rehashEmRKm>:
    59f0:	55                   	push   %rbp
    59f1:	48 89 e5             	mov    %rsp,%rbp
    59f4:	53                   	push   %rbx
    59f5:	48 83 ec 28          	sub    $0x28,%rsp
    59f9:	48 89 7d e8          	mov    %rdi,-0x18(%rbp)
    59fd:	48 89 75 e0          	mov    %rsi,-0x20(%rbp)
    5a01:	48 89 55 d8          	mov    %rdx,-0x28(%rbp)
    5a05:	48 8b 55 e0          	mov    -0x20(%rbp),%rdx
    5a09:	48 8b 45 e8          	mov    -0x18(%rbp),%rax
    5a0d:	48 89 d6             	mov    %rdx,%rsi
    5a10:	48 89 c7             	mov    %rax,%rdi
    5a13:	e8 8c 03 00 00       	call   5da4 <_ZNSt10_HashtableIcSt4pairIKciESaIS2_ENSt8__detail10_Select1stESt8equal_toIcESt4hashIcENS4_18_Mod_range_hashingENS4_20_Default_ranged_hashENS4_20_Prime_rehash_policyENS4_17_Hashtable_traitsILb0ELb0ELb1EEEE13_M_rehash_auxEmSt17integral_constantIbLb1EE>
    5a18:	eb 3a                	jmp    5a54 <_ZNSt10_HashtableIcSt4pairIKciESaIS2_ENSt8__detail10_Select1stESt8equal_toIcESt4hashIcENS4_18_Mod_range_hashingENS4_20_Default_ranged_hashENS4_20_Prime_rehash_policyENS4_17_Hashtable_traitsILb0ELb0ELb1EEEE9_M_rehashEmRKm+0x64>
    5a1a:	48 89 c7             	mov    %rax,%rdi
    5a1d:	e8 7e d6 ff ff       	call   30a0 <__cxa_begin_catch@plt>
    5a22:	48 8b 45 e8          	mov    -0x18(%rbp),%rax
    5a26:	48 83 c0 20          	add    $0x20,%rax
    5a2a:	48 8b 55 d8          	mov    -0x28(%rbp),%rdx
    5a2e:	48 8b 12             	mov    (%rdx),%rdx
    5a31:	48 89 d6             	mov    %rdx,%rsi
    5a34:	48 89 c7             	mov    %rax,%rdi
    5a37:	e8 78 e7 ff ff       	call   41b4 <_ZNSt8__detail20_Prime_rehash_policy8_M_resetEm>
    5a3c:	e8 1f d9 ff ff       	call   3360 <__cxa_rethrow@plt>
    5a41:	48 89 c3             	mov    %rax,%rbx
    5a44:	e8 37 d9 ff ff       	call   3380 <__cxa_end_catch@plt>
    5a49:	48 89 d8             	mov    %rbx,%rax
    5a4c:	48 89 c7             	mov    %rax,%rdi
    5a4f:	e8 7c d9 ff ff       	call   33d0 <_Unwind_Resume@plt>
    5a54:	48 8b 5d f8          	mov    -0x8(%rbp),%rbx
    5a58:	c9                   	leave
    5a59:	c3                   	ret

0000000000005a5a <_ZNKSt8__detail15_Hash_code_baseIcSt4pairIKciENS_10_Select1stESt4hashIcENS_18_Mod_range_hashingENS_20_Default_ranged_hashELb0EE13_M_store_codeERNS_21_Hash_node_code_cacheILb0EEEm>:
    5a5a:	55                   	push   %rbp
    5a5b:	48 89 e5             	mov    %rsp,%rbp
    5a5e:	48 89 7d f8          	mov    %rdi,-0x8(%rbp)
    5a62:	48 89 75 f0          	mov    %rsi,-0x10(%rbp)
    5a66:	48 89 55 e8          	mov    %rdx,-0x18(%rbp)
    5a6a:	90                   	nop
    5a6b:	5d                   	pop    %rbp
    5a6c:	c3                   	ret
    5a6d:	90                   	nop

0000000000005a6e <_ZNSt10_HashtableIcSt4pairIKciESaIS2_ENSt8__detail10_Select1stESt8equal_toIcESt4hashIcENS4_18_Mod_range_hashingENS4_20_Default_ranged_hashENS4_20_Prime_rehash_policyENS4_17_Hashtable_traitsILb0ELb0ELb1EEEE22_M_insert_bucket_beginEmPNS4_10_Hash_nodeIS2_Lb0EEE>:
    5a6e:	55                   	push   %rbp
    5a6f:	48 89 e5             	mov    %rsp,%rbp
    5a72:	41 54                	push   %r12
    5a74:	53                   	push   %rbx
    5a75:	48 83 ec 20          	sub    $0x20,%rsp
    5a79:	48 89 7d e8          	mov    %rdi,-0x18(%rbp)
    5a7d:	48 89 75 e0          	mov    %rsi,-0x20(%rbp)
    5a81:	48 89 55 d8          	mov    %rdx,-0x28(%rbp)
    5a85:	48 8b 45 e8          	mov    -0x18(%rbp),%rax
    5a89:	48 8b 10             	mov    (%rax),%rdx
    5a8c:	48 8b 45 e0          	mov    -0x20(%rbp),%rax
    5a90:	48 c1 e0 03          	shl    $0x3,%rax
    5a94:	48 01 d0             	add    %rdx,%rax
    5a97:	48 8b 00             	mov    (%rax),%rax
    5a9a:	48 85 c0             	test   %rax,%rax
    5a9d:	74 3d                	je     5adc <_ZNSt10_HashtableIcSt4pairIKciESaIS2_ENSt8__detail10_Select1stESt8equal_toIcESt4hashIcENS4_18_Mod_range_hashingENS4_20_Default_ranged_hashENS4_20_Prime_rehash_policyENS4_17_Hashtable_traitsILb0ELb0ELb1EEEE22_M_insert_bucket_beginEmPNS4_10_Hash_nodeIS2_Lb0EEE+0x6e>
    5a9f:	48 8b 45 e8          	mov    -0x18(%rbp),%rax
    5aa3:	48 8b 10             	mov    (%rax),%rdx
    5aa6:	48 8b 45 e0          	mov    -0x20(%rbp),%rax
    5aaa:	48 c1 e0 03          	shl    $0x3,%rax
    5aae:	48 01 d0             	add    %rdx,%rax
    5ab1:	48 8b 00             	mov    (%rax),%rax
    5ab4:	48 8b 10             	mov    (%rax),%rdx
    5ab7:	48 8b 45 d8          	mov    -0x28(%rbp),%rax
    5abb:	48 89 10             	mov    %rdx,(%rax)
    5abe:	48 8b 45 e8          	mov    -0x18(%rbp),%rax
    5ac2:	48 8b 10             	mov    (%rax),%rdx
    5ac5:	48 8b 45 e0          	mov    -0x20(%rbp),%rax
    5ac9:	48 c1 e0 03          	shl    $0x3,%rax
    5acd:	48 01 d0             	add    %rdx,%rax
    5ad0:	48 8b 00             	mov    (%rax),%rax
    5ad3:	48 8b 55 d8          	mov    -0x28(%rbp),%rdx
    5ad7:	48 89 10             	mov    %rdx,(%rax)
    5ada:	eb 78                	jmp    5b54 <_ZNSt10_HashtableIcSt4pairIKciESaIS2_ENSt8__detail10_Select1stESt8equal_toIcESt4hashIcENS4_18_Mod_range_hashingENS4_20_Default_ranged_hashENS4_20_Prime_rehash_policyENS4_17_Hashtable_traitsILb0ELb0ELb1EEEE22_M_insert_bucket_beginEmPNS4_10_Hash_nodeIS2_Lb0EEE+0xe6>
    5adc:	48 8b 45 e8          	mov    -0x18(%rbp),%rax
    5ae0:	48 8b 50 10          	mov    0x10(%rax),%rdx
    5ae4:	48 8b 45 d8          	mov    -0x28(%rbp),%rax
    5ae8:	48 89 10             	mov    %rdx,(%rax)
    5aeb:	48 8b 45 e8          	mov    -0x18(%rbp),%rax
    5aef:	48 8b 55 d8          	mov    -0x28(%rbp),%rdx
    5af3:	48 89 50 10          	mov    %rdx,0x10(%rax)
    5af7:	48 8b 45 d8          	mov    -0x28(%rbp),%rax
    5afb:	48 8b 00             	mov    (%rax),%rax
    5afe:	48 85 c0             	test   %rax,%rax
    5b01:	74 34                	je     5b37 <_ZNSt10_HashtableIcSt4pairIKciESaIS2_ENSt8__detail10_Select1stESt8equal_toIcESt4hashIcENS4_18_Mod_range_hashingENS4_20_Default_ranged_hashENS4_20_Prime_rehash_policyENS4_17_Hashtable_traitsILb0ELb0ELb1EEEE22_M_insert_bucket_beginEmPNS4_10_Hash_nodeIS2_Lb0EEE+0xc9>
    5b03:	48 8b 5d d8          	mov    -0x28(%rbp),%rbx
    5b07:	48 8b 45 e8          	mov    -0x18(%rbp),%rax
    5b0b:	4c 8b 20             	mov    (%rax),%r12
    5b0e:	48 8b 45 d8          	mov    -0x28(%rbp),%rax
    5b12:	48 89 c7             	mov    %rax,%rdi
    5b15:	e8 32 ee ff ff       	call   494c <_ZNKSt8__detail10_Hash_nodeISt4pairIKciELb0EE7_M_nextEv>
    5b1a:	48 8d 50 08          	lea    0x8(%rax),%rdx
    5b1e:	48 8b 45 e8          	mov    -0x18(%rbp),%rax
    5b22:	48 89 d6             	mov    %rdx,%rsi
    5b25:	48 89 c7             	mov    %rax,%rdi
    5b28:	e8 bf 00 00 00       	call   5bec <_ZNKSt10_HashtableIcSt4pairIKciESaIS2_ENSt8__detail10_Select1stESt8equal_toIcESt4hashIcENS4_18_Mod_range_hashingENS4_20_Default_ranged_hashENS4_20_Prime_rehash_policyENS4_17_Hashtable_traitsILb0ELb0ELb1EEEE15_M_bucket_indexERKNS4_16_Hash_node_valueIS2_Lb0EEE>
    5b2d:	48 c1 e0 03          	shl    $0x3,%rax
    5b31:	4c 01 e0             	add    %r12,%rax
    5b34:	48 89 18             	mov    %rbx,(%rax)
    5b37:	48 8b 45 e8          	mov    -0x18(%rbp),%rax
    5b3b:	48 8b 10             	mov    (%rax),%rdx
    5b3e:	48 8b 45 e0          	mov    -0x20(%rbp),%rax
    5b42:	48 c1 e0 03          	shl    $0x3,%rax
    5b46:	48 01 d0             	add    %rdx,%rax
    5b49:	48 8b 55 e8          	mov    -0x18(%rbp),%rdx
    5b4d:	48 83 c2 10          	add    $0x10,%rdx
    5b51:	48 89 10             	mov    %rdx,(%rax)
    5b54:	90                   	nop
    5b55:	48 83 c4 20          	add    $0x20,%rsp
    5b59:	5b                   	pop    %rbx
    5b5a:	41 5c                	pop    %r12
    5b5c:	5d                   	pop    %rbp
    5b5d:	c3                   	ret

0000000000005b5e <_ZNKSt8__detail21_Hashtable_ebo_helperILi0ESt8equal_toIcELb1EE7_M_cgetEv>:
    5b5e:	55                   	push   %rbp
    5b5f:	48 89 e5             	mov    %rsp,%rbp
    5b62:	48 89 7d f8          	mov    %rdi,-0x8(%rbp)
    5b66:	48 8b 45 f8          	mov    -0x8(%rbp),%rax
    5b6a:	5d                   	pop    %rbp
    5b6b:	c3                   	ret

0000000000005b6c <_ZNKSt8__detail21_Hash_node_value_baseISt4pairIKciEE9_M_valptrEv>:
    5b6c:	55                   	push   %rbp
    5b6d:	48 89 e5             	mov    %rsp,%rbp
    5b70:	48 83 ec 10          	sub    $0x10,%rsp
    5b74:	48 89 7d f8          	mov    %rdi,-0x8(%rbp)
    5b78:	48 8b 45 f8          	mov    -0x8(%rbp),%rax
    5b7c:	48 89 c7             	mov    %rax,%rdi
    5b7f:	e8 9a 03 00 00       	call   5f1e <_ZNK9__gnu_cxx16__aligned_bufferISt4pairIKciEE6_M_ptrEv>
    5b84:	c9                   	leave
    5b85:	c3                   	ret

0000000000005b86 <_ZNKSt8__detail21_Hashtable_ebo_helperILi1ESt4hashIcELb1EE7_M_cgetEv>:
    5b86:	55                   	push   %rbp
    5b87:	48 89 e5             	mov    %rsp,%rbp
    5b8a:	48 89 7d f8          	mov    %rdi,-0x8(%rbp)
    5b8e:	48 8b 45 f8          	mov    -0x8(%rbp),%rax
    5b92:	5d                   	pop    %rbp
    5b93:	c3                   	ret

0000000000005b94 <_ZNKSt8__detail15_Hashtable_baseIcSt4pairIKciENS_10_Select1stESt8equal_toIcESt4hashIcENS_18_Mod_range_hashingENS_20_Default_ranged_hashENS_17_Hashtable_traitsILb0ELb0ELb1EEEE12_M_equals_trIcEEbRKT_mRKNS_16_Hash_node_valueIS3_Lb0EEE>:
    5b94:	55                   	push   %rbp
    5b95:	48 89 e5             	mov    %rsp,%rbp
    5b98:	48 83 ec 20          	sub    $0x20,%rsp
    5b9c:	48 89 7d f8          	mov    %rdi,-0x8(%rbp)
    5ba0:	48 89 75 f0          	mov    %rsi,-0x10(%rbp)
    5ba4:	48 89 55 e8          	mov    %rdx,-0x18(%rbp)
    5ba8:	48 89 4d e0          	mov    %rcx,-0x20(%rbp)
    5bac:	48 8b 55 e0          	mov    -0x20(%rbp),%rdx
    5bb0:	48 8b 45 e8          	mov    -0x18(%rbp),%rax
    5bb4:	48 89 d6             	mov    %rdx,%rsi
    5bb7:	48 89 c7             	mov    %rax,%rdi
    5bba:	e8 79 03 00 00       	call   5f38 <_ZNSt8__detail15_Hashtable_baseIcSt4pairIKciENS_10_Select1stESt8equal_toIcESt4hashIcENS_18_Mod_range_hashingENS_20_Default_ranged_hashENS_17_Hashtable_traitsILb0ELb0ELb1EEEE9_S_equalsEmRKNS_21_Hash_node_code_cacheILb0EEE>
    5bbf:	84 c0                	test   %al,%al
    5bc1:	74 22                	je     5be5 <_ZNKSt8__detail15_Hashtable_baseIcSt4pairIKciENS_10_Select1stESt8equal_toIcESt4hashIcENS_18_Mod_range_hashingENS_20_Default_ranged_hashENS_17_Hashtable_traitsILb0ELb0ELb1EEEE12_M_equals_trIcEEbRKT_mRKNS_16_Hash_node_valueIS3_Lb0EEE+0x51>
    5bc3:	48 8b 55 e0          	mov    -0x20(%rbp),%rdx
    5bc7:	48 8b 4d f0          	mov    -0x10(%rbp),%rcx
    5bcb:	48 8b 45 f8          	mov    -0x8(%rbp),%rax
    5bcf:	48 89 ce             	mov    %rcx,%rsi
    5bd2:	48 89 c7             	mov    %rax,%rdi
    5bd5:	e8 fc f7 ff ff       	call   53d6 <_ZNKSt8__detail15_Hashtable_baseIcSt4pairIKciENS_10_Select1stESt8equal_toIcESt4hashIcENS_18_Mod_range_hashingENS_20_Default_ranged_hashENS_17_Hashtable_traitsILb0ELb0ELb1EEEE16_M_key_equals_trIcEEbRKT_RKNS_16_Hash_node_valueIS3_Lb0EEE>
    5bda:	84 c0                	test   %al,%al
    5bdc:	74 07                	je     5be5 <_ZNKSt8__detail15_Hashtable_baseIcSt4pairIKciENS_10_Select1stESt8equal_toIcESt4hashIcENS_18_Mod_range_hashingENS_20_Default_ranged_hashENS_17_Hashtable_traitsILb0ELb0ELb1EEEE12_M_equals_trIcEEbRKT_mRKNS_16_Hash_node_valueIS3_Lb0EEE+0x51>
    5bde:	b8 01 00 00 00       	mov    $0x1,%eax
    5be3:	eb 05                	jmp    5bea <_ZNKSt8__detail15_Hashtable_baseIcSt4pairIKciENS_10_Select1stESt8equal_toIcESt4hashIcENS_18_Mod_range_hashingENS_20_Default_ranged_hashENS_17_Hashtable_traitsILb0ELb0ELb1EEEE12_M_equals_trIcEEbRKT_mRKNS_16_Hash_node_valueIS3_Lb0EEE+0x56>
    5be5:	b8 00 00 00 00       	mov    $0x0,%eax
    5bea:	c9                   	leave
    5beb:	c3                   	ret

0000000000005bec <_ZNKSt10_HashtableIcSt4pairIKciESaIS2_ENSt8__detail10_Select1stESt8equal_toIcESt4hashIcENS4_18_Mod_range_hashingENS4_20_Default_ranged_hashENS4_20_Prime_rehash_policyENS4_17_Hashtable_traitsILb0ELb0ELb1EEEE15_M_bucket_indexERKNS4_16_Hash_node_valueIS2_Lb0EEE>:
    5bec:	55                   	push   %rbp
    5bed:	48 89 e5             	mov    %rsp,%rbp
    5bf0:	48 83 ec 10          	sub    $0x10,%rsp
    5bf4:	48 89 7d f8          	mov    %rdi,-0x8(%rbp)
    5bf8:	48 89 75 f0          	mov    %rsi,-0x10(%rbp)
    5bfc:	48 8b 45 f8          	mov    -0x8(%rbp),%rax
    5c00:	48 8b 50 08          	mov    0x8(%rax),%rdx
    5c04:	48 8b 4d f0          	mov    -0x10(%rbp),%rcx
    5c08:	48 8b 45 f8          	mov    -0x8(%rbp),%rax
    5c0c:	48 89 ce             	mov    %rcx,%rsi
    5c0f:	48 89 c7             	mov    %rax,%rdi
    5c12:	e8 35 03 00 00       	call   5f4c <_ZNKSt8__detail15_Hash_code_baseIcSt4pairIKciENS_10_Select1stESt4hashIcENS_18_Mod_range_hashingENS_20_Default_ranged_hashELb0EE15_M_bucket_indexERKNS_16_Hash_node_valueIS3_Lb0EEEm>
    5c17:	c9                   	leave
    5c18:	c3                   	ret

0000000000005c19 <_ZSt7forwardIRKiEOT_RNSt16remove_referenceIS2_E4typeE>:
    5c19:	55                   	push   %rbp
    5c1a:	48 89 e5             	mov    %rsp,%rbp
    5c1d:	48 89 7d f8          	mov    %rdi,-0x8(%rbp)
    5c21:	48 8b 45 f8          	mov    -0x8(%rbp),%rax
    5c25:	5d                   	pop    %rbp
    5c26:	c3                   	ret
    5c27:	90                   	nop

0000000000005c28 <_ZNSt8__detail10_Hash_nodeISt4pairIKciELb0EEC1Ev>:
    5c28:	55                   	push   %rbp
    5c29:	48 89 e5             	mov    %rsp,%rbp
    5c2c:	48 83 ec 10          	sub    $0x10,%rsp
    5c30:	48 89 7d f8          	mov    %rdi,-0x8(%rbp)
    5c34:	48 8b 45 f8          	mov    -0x8(%rbp),%rax
    5c38:	48 89 c7             	mov    %rax,%rdi
    5c3b:	e8 00 e5 ff ff       	call   4140 <_ZNSt8__detail15_Hash_node_baseC1Ev>
    5c40:	90                   	nop
    5c41:	c9                   	leave
    5c42:	c3                   	ret
    5c43:	90                   	nop

0000000000005c44 <_ZNSt8__detail16_Hashtable_allocISaINS_10_Hash_nodeISt4pairIKciELb0EEEEE16_M_allocate_nodeIJRS3_RKiEEEPS5_DpOT_>:
    5c44:	55                   	push   %rbp
    5c45:	48 89 e5             	mov    %rsp,%rbp
    5c48:	41 55                	push   %r13
    5c4a:	41 54                	push   %r12
    5c4c:	53                   	push   %rbx
    5c4d:	48 81 ec 88 00 00 00 	sub    $0x88,%rsp
    5c54:	48 89 bd 78 ff ff ff 	mov    %rdi,-0x88(%rbp)
    5c5b:	48 89 b5 70 ff ff ff 	mov    %rsi,-0x90(%rbp)
    5c62:	48 89 95 68 ff ff ff 	mov    %rdx,-0x98(%rbp)
    5c69:	48 8b 85 78 ff ff ff 	mov    -0x88(%rbp),%rax
    5c70:	48 89 c7             	mov    %rax,%rdi
    5c73:	e8 e2 ef ff ff       	call   4c5a <_ZNSt8__detail16_Hashtable_allocISaINS_10_Hash_nodeISt4pairIKciELb0EEEEE17_M_node_allocatorEv>
    5c78:	48 89 45 90          	mov    %rax,-0x70(%rbp)
    5c7c:	48 c7 45 98 01 00 00 	movq   $0x1,-0x68(%rbp)
    5c83:	00 
    5c84:	48 8b 4d 98          	mov    -0x68(%rbp),%rcx
    5c88:	48 8b 45 90          	mov    -0x70(%rbp),%rax
    5c8c:	ba 00 00 00 00       	mov    $0x0,%edx
    5c91:	48 89 ce             	mov    %rcx,%rsi
    5c94:	48 89 c7             	mov    %rax,%rdi
    5c97:	e8 82 03 00 00       	call   601e <_ZNSt15__new_allocatorINSt8__detail10_Hash_nodeISt4pairIKciELb0EEEE8allocateEmPKv>
    5c9c:	90                   	nop
    5c9d:	48 89 45 80          	mov    %rax,-0x80(%rbp)
    5ca1:	48 8b 45 80          	mov    -0x80(%rbp),%rax
    5ca5:	48 89 c7             	mov    %rax,%rdi
    5ca8:	e8 1e 03 00 00       	call   5fcb <_ZSt12__to_addressINSt8__detail10_Hash_nodeISt4pairIKciELb0EEEEPT_S7_>
    5cad:	48 89 45 88          	mov    %rax,-0x78(%rbp)
    5cb1:	48 8b 45 88          	mov    -0x78(%rbp),%rax
    5cb5:	48 89 c6             	mov    %rax,%rsi
    5cb8:	bf 10 00 00 00       	mov    $0x10,%edi
    5cbd:	e8 58 e4 ff ff       	call   411a <_ZnwmPv>
    5cc2:	48 89 c7             	mov    %rax,%rdi
    5cc5:	e8 5e ff ff ff       	call   5c28 <_ZNSt8__detail10_Hash_nodeISt4pairIKciELb0EEC1Ev>
    5cca:	48 8b 85 68 ff ff ff 	mov    -0x98(%rbp),%rax
    5cd1:	48 89 c7             	mov    %rax,%rdi
    5cd4:	e8 40 ff ff ff       	call   5c19 <_ZSt7forwardIRKiEOT_RNSt16remove_referenceIS2_E4typeE>
    5cd9:	48 89 c3             	mov    %rax,%rbx
    5cdc:	48 8b 85 70 ff ff ff 	mov    -0x90(%rbp),%rax
    5ce3:	48 89 c7             	mov    %rax,%rdi
    5ce6:	e8 c6 f8 ff ff       	call   55b1 <_ZSt7forwardIRKcEOT_RNSt16remove_referenceIS2_E4typeE>
    5ceb:	49 89 c4             	mov    %rax,%r12
    5cee:	48 8b 45 88          	mov    -0x78(%rbp),%rax
    5cf2:	48 83 c0 08          	add    $0x8,%rax
    5cf6:	48 89 c7             	mov    %rax,%rdi
    5cf9:	e8 76 ef ff ff       	call   4c74 <_ZNSt8__detail21_Hash_node_value_baseISt4pairIKciEE9_M_valptrEv>
    5cfe:	49 89 c5             	mov    %rax,%r13
    5d01:	48 8b 85 78 ff ff ff 	mov    -0x88(%rbp),%rax
    5d08:	48 89 c7             	mov    %rax,%rdi
    5d0b:	e8 4a ef ff ff       	call   4c5a <_ZNSt8__detail16_Hashtable_allocISaINS_10_Hash_nodeISt4pairIKciELb0EEEEE17_M_node_allocatorEv>
    5d10:	48 89 45 a0          	mov    %rax,-0x60(%rbp)
    5d14:	4c 89 6d a8          	mov    %r13,-0x58(%rbp)
    5d18:	4c 89 65 b0          	mov    %r12,-0x50(%rbp)
    5d1c:	48 89 5d b8          	mov    %rbx,-0x48(%rbp)
    5d20:	48 8b 45 b8          	mov    -0x48(%rbp),%rax
    5d24:	48 89 c7             	mov    %rax,%rdi
    5d27:	e8 ed fe ff ff       	call   5c19 <_ZSt7forwardIRKiEOT_RNSt16remove_referenceIS2_E4typeE>
    5d2c:	48 89 c3             	mov    %rax,%rbx
    5d2f:	48 8b 45 b0          	mov    -0x50(%rbp),%rax
    5d33:	48 89 c7             	mov    %rax,%rdi
    5d36:	e8 76 f8 ff ff       	call   55b1 <_ZSt7forwardIRKcEOT_RNSt16remove_referenceIS2_E4typeE>
    5d3b:	48 8b 55 a0          	mov    -0x60(%rbp),%rdx
    5d3f:	48 89 55 c0          	mov    %rdx,-0x40(%rbp)
    5d43:	48 8b 55 a8          	mov    -0x58(%rbp),%rdx
    5d47:	48 89 55 c8          	mov    %rdx,-0x38(%rbp)
    5d4b:	48 89 45 d0          	mov    %rax,-0x30(%rbp)
    5d4f:	48 89 5d d8          	mov    %rbx,-0x28(%rbp)
    5d53:	48 8b 45 c8          	mov    -0x38(%rbp),%rax
    5d57:	48 89 c6             	mov    %rax,%rsi
    5d5a:	bf 08 00 00 00       	mov    $0x8,%edi
    5d5f:	e8 b6 e3 ff ff       	call   411a <_ZnwmPv>
    5d64:	48 89 c3             	mov    %rax,%rbx
    5d67:	48 8b 45 d8          	mov    -0x28(%rbp),%rax
    5d6b:	48 89 c7             	mov    %rax,%rdi
    5d6e:	e8 a6 fe ff ff       	call   5c19 <_ZSt7forwardIRKiEOT_RNSt16remove_referenceIS2_E4typeE>
    5d73:	49 89 c4             	mov    %rax,%r12
    5d76:	48 8b 45 d0          	mov    -0x30(%rbp),%rax
    5d7a:	48 89 c7             	mov    %rax,%rdi
    5d7d:	e8 2f f8 ff ff       	call   55b1 <_ZSt7forwardIRKcEOT_RNSt16remove_referenceIS2_E4typeE>
    5d82:	4c 89 e2             	mov    %r12,%rdx
    5d85:	48 89 c6             	mov    %rax,%rsi
    5d88:	48 89 df             	mov    %rbx,%rdi
    5d8b:	e8 f6 02 00 00       	call   6086 <_ZNSt4pairIKciEC1IS0_iLb1EEERS0_RKi>
    5d90:	90                   	nop
    5d91:	90                   	nop
    5d92:	48 8b 45 88          	mov    -0x78(%rbp),%rax
    5d96:	48 81 c4 88 00 00 00 	add    $0x88,%rsp
    5d9d:	5b                   	pop    %rbx
    5d9e:	41 5c                	pop    %r12
    5da0:	41 5d                	pop    %r13
    5da2:	5d                   	pop    %rbp
    5da3:	c3                   	ret

0000000000005da4 <_ZNSt10_HashtableIcSt4pairIKciESaIS2_ENSt8__detail10_Select1stESt8equal_toIcESt4hashIcENS4_18_Mod_range_hashingENS4_20_Default_ranged_hashENS4_20_Prime_rehash_policyENS4_17_Hashtable_traitsILb0ELb0ELb1EEEE13_M_rehash_auxEmSt17integral_constantIbLb1EE>:
    5da4:	55                   	push   %rbp
    5da5:	48 89 e5             	mov    %rsp,%rbp
    5da8:	48 83 ec 40          	sub    $0x40,%rsp
    5dac:	48 89 7d c8          	mov    %rdi,-0x38(%rbp)
    5db0:	48 89 75 c0          	mov    %rsi,-0x40(%rbp)
    5db4:	48 8b 55 c0          	mov    -0x40(%rbp),%rdx
    5db8:	48 8b 45 c8          	mov    -0x38(%rbp),%rax
    5dbc:	48 89 d6             	mov    %rdx,%rsi
    5dbf:	48 89 c7             	mov    %rax,%rdi
    5dc2:	e8 bd ea ff ff       	call   4884 <_ZNSt10_HashtableIcSt4pairIKciESaIS2_ENSt8__detail10_Select1stESt8equal_toIcESt4hashIcENS4_18_Mod_range_hashingENS4_20_Default_ranged_hashENS4_20_Prime_rehash_policyENS4_17_Hashtable_traitsILb0ELb0ELb1EEEE19_M_allocate_bucketsEm>
    5dc7:	48 89 45 e8          	mov    %rax,-0x18(%rbp)
    5dcb:	48 8b 45 c8          	mov    -0x38(%rbp),%rax
    5dcf:	48 89 c7             	mov    %rax,%rdi
    5dd2:	e8 e5 e8 ff ff       	call   46bc <_ZNKSt10_HashtableIcSt4pairIKciESaIS2_ENSt8__detail10_Select1stESt8equal_toIcESt4hashIcENS4_18_Mod_range_hashingENS4_20_Default_ranged_hashENS4_20_Prime_rehash_policyENS4_17_Hashtable_traitsILb0ELb0ELb1EEEE8_M_beginEv>
    5dd7:	48 89 45 d8          	mov    %rax,-0x28(%rbp)
    5ddb:	48 8b 45 c8          	mov    -0x38(%rbp),%rax
    5ddf:	48 c7 40 10 00 00 00 	movq   $0x0,0x10(%rax)
    5de6:	00 
    5de7:	48 c7 45 e0 00 00 00 	movq   $0x0,-0x20(%rbp)
    5dee:	00 
    5def:	e9 f8 00 00 00       	jmp    5eec <_ZNSt10_HashtableIcSt4pairIKciESaIS2_ENSt8__detail10_Select1stESt8equal_toIcESt4hashIcENS4_18_Mod_range_hashingENS4_20_Default_ranged_hashENS4_20_Prime_rehash_policyENS4_17_Hashtable_traitsILb0ELb0ELb1EEEE13_M_rehash_auxEmSt17integral_constantIbLb1EE+0x148>
    5df4:	48 8b 45 d8          	mov    -0x28(%rbp),%rax
    5df8:	48 89 c7             	mov    %rax,%rdi
    5dfb:	e8 4c eb ff ff       	call   494c <_ZNKSt8__detail10_Hash_nodeISt4pairIKciELb0EE7_M_nextEv>
    5e00:	48 89 45 f0          	mov    %rax,-0x10(%rbp)
    5e04:	48 8b 45 d8          	mov    -0x28(%rbp),%rax
    5e08:	48 8d 48 08          	lea    0x8(%rax),%rcx
    5e0c:	48 8b 55 c0          	mov    -0x40(%rbp),%rdx
    5e10:	48 8b 45 c8          	mov    -0x38(%rbp),%rax
    5e14:	48 89 ce             	mov    %rcx,%rsi
    5e17:	48 89 c7             	mov    %rax,%rdi
    5e1a:	e8 2d 01 00 00       	call   5f4c <_ZNKSt8__detail15_Hash_code_baseIcSt4pairIKciENS_10_Select1stESt4hashIcENS_18_Mod_range_hashingENS_20_Default_ranged_hashELb0EE15_M_bucket_indexERKNS_16_Hash_node_valueIS3_Lb0EEEm>
    5e1f:	48 89 45 f8          	mov    %rax,-0x8(%rbp)
    5e23:	48 8b 45 f8          	mov    -0x8(%rbp),%rax
    5e27:	48 8d 14 c5 00 00 00 	lea    0x0(,%rax,8),%rdx
    5e2e:	00 
    5e2f:	48 8b 45 e8          	mov    -0x18(%rbp),%rax
    5e33:	48 01 d0             	add    %rdx,%rax
    5e36:	48 8b 00             	mov    (%rax),%rax
    5e39:	48 85 c0             	test   %rax,%rax
    5e3c:	75 69                	jne    5ea7 <_ZNSt10_HashtableIcSt4pairIKciESaIS2_ENSt8__detail10_Select1stESt8equal_toIcESt4hashIcENS4_18_Mod_range_hashingENS4_20_Default_ranged_hashENS4_20_Prime_rehash_policyENS4_17_Hashtable_traitsILb0ELb0ELb1EEEE13_M_rehash_auxEmSt17integral_constantIbLb1EE+0x103>
    5e3e:	48 8b 45 c8          	mov    -0x38(%rbp),%rax
    5e42:	48 8b 50 10          	mov    0x10(%rax),%rdx
    5e46:	48 8b 45 d8          	mov    -0x28(%rbp),%rax
    5e4a:	48 89 10             	mov    %rdx,(%rax)
    5e4d:	48 8b 45 c8          	mov    -0x38(%rbp),%rax
    5e51:	48 8b 55 d8          	mov    -0x28(%rbp),%rdx
    5e55:	48 89 50 10          	mov    %rdx,0x10(%rax)
    5e59:	48 8b 45 f8          	mov    -0x8(%rbp),%rax
    5e5d:	48 8d 14 c5 00 00 00 	lea    0x0(,%rax,8),%rdx
    5e64:	00 
    5e65:	48 8b 45 e8          	mov    -0x18(%rbp),%rax
    5e69:	48 01 d0             	add    %rdx,%rax
    5e6c:	48 8b 55 c8          	mov    -0x38(%rbp),%rdx
    5e70:	48 83 c2 10          	add    $0x10,%rdx
    5e74:	48 89 10             	mov    %rdx,(%rax)
    5e77:	48 8b 45 d8          	mov    -0x28(%rbp),%rax
    5e7b:	48 8b 00             	mov    (%rax),%rax
    5e7e:	48 85 c0             	test   %rax,%rax
    5e81:	74 1a                	je     5e9d <_ZNSt10_HashtableIcSt4pairIKciESaIS2_ENSt8__detail10_Select1stESt8equal_toIcESt4hashIcENS4_18_Mod_range_hashingENS4_20_Default_ranged_hashENS4_20_Prime_rehash_policyENS4_17_Hashtable_traitsILb0ELb0ELb1EEEE13_M_rehash_auxEmSt17integral_constantIbLb1EE+0xf9>
    5e83:	48 8b 45 e0          	mov    -0x20(%rbp),%rax
    5e87:	48 8d 14 c5 00 00 00 	lea    0x0(,%rax,8),%rdx
    5e8e:	00 
    5e8f:	48 8b 45 e8          	mov    -0x18(%rbp),%rax
    5e93:	48 01 d0             	add    %rdx,%rax
    5e96:	48 8b 55 d8          	mov    -0x28(%rbp),%rdx
    5e9a:	48 89 10             	mov    %rdx,(%rax)
    5e9d:	48 8b 45 f8          	mov    -0x8(%rbp),%rax
    5ea1:	48 89 45 e0          	mov    %rax,-0x20(%rbp)
    5ea5:	eb 3d                	jmp    5ee4 <_ZNSt10_HashtableIcSt4pairIKciESaIS2_ENSt8__detail10_Select1stESt8equal_toIcESt4hashIcENS4_18_Mod_range_hashingENS4_20_Default_ranged_hashENS4_20_Prime_rehash_policyENS4_17_Hashtable_traitsILb0ELb0ELb1EEEE13_M_rehash_auxEmSt17integral_constantIbLb1EE+0x140>
    5ea7:	48 8b 45 f8          	mov    -0x8(%rbp),%rax
    5eab:	48 8d 14 c5 00 00 00 	lea    0x0(,%rax,8),%rdx
    5eb2:	00 
    5eb3:	48 8b 45 e8          	mov    -0x18(%rbp),%rax
    5eb7:	48 01 d0             	add    %rdx,%rax
    5eba:	48 8b 00             	mov    (%rax),%rax
    5ebd:	48 8b 10             	mov    (%rax),%rdx
    5ec0:	48 8b 45 d8          	mov    -0x28(%rbp),%rax
    5ec4:	48 89 10             	mov    %rdx,(%rax)
    5ec7:	48 8b 45 f8          	mov    -0x8(%rbp),%rax
    5ecb:	48 8d 14 c5 00 00 00 	lea    0x0(,%rax,8),%rdx
    5ed2:	00 
    5ed3:	48 8b 45 e8          	mov    -0x18(%rbp),%rax
    5ed7:	48 01 d0             	add    %rdx,%rax
    5eda:	48 8b 00             	mov    (%rax),%rax
    5edd:	48 8b 55 d8          	mov    -0x28(%rbp),%rdx
    5ee1:	48 89 10             	mov    %rdx,(%rax)
    5ee4:	48 8b 45 f0          	mov    -0x10(%rbp),%rax
    5ee8:	48 89 45 d8          	mov    %rax,-0x28(%rbp)
    5eec:	48 83 7d d8 00       	cmpq   $0x0,-0x28(%rbp)
    5ef1:	0f 85 fd fe ff ff    	jne    5df4 <_ZNSt10_HashtableIcSt4pairIKciESaIS2_ENSt8__detail10_Select1stESt8equal_toIcESt4hashIcENS4_18_Mod_range_hashingENS4_20_Default_ranged_hashENS4_20_Prime_rehash_policyENS4_17_Hashtable_traitsILb0ELb0ELb1EEEE13_M_rehash_auxEmSt17integral_constantIbLb1EE+0x50>
    5ef7:	48 8b 45 c8          	mov    -0x38(%rbp),%rax
    5efb:	48 89 c7             	mov    %rax,%rdi
    5efe:	e8 4f e6 ff ff       	call   4552 <_ZNSt10_HashtableIcSt4pairIKciESaIS2_ENSt8__detail10_Select1stESt8equal_toIcESt4hashIcENS4_18_Mod_range_hashingENS4_20_Default_ranged_hashENS4_20_Prime_rehash_policyENS4_17_Hashtable_traitsILb0ELb0ELb1EEEE21_M_deallocate_bucketsEv>
    5f03:	48 8b 45 c8          	mov    -0x38(%rbp),%rax
    5f07:	48 8b 55 c0          	mov    -0x40(%rbp),%rdx
    5f0b:	48 89 50 08          	mov    %rdx,0x8(%rax)
    5f0f:	48 8b 45 c8          	mov    -0x38(%rbp),%rax
    5f13:	48 8b 55 e8          	mov    -0x18(%rbp),%rdx
    5f17:	48 89 10             	mov    %rdx,(%rax)
    5f1a:	90                   	nop
    5f1b:	c9                   	leave
    5f1c:	c3                   	ret
    5f1d:	90                   	nop

0000000000005f1e <_ZNK9__gnu_cxx16__aligned_bufferISt4pairIKciEE6_M_ptrEv>:
    5f1e:	55                   	push   %rbp
    5f1f:	48 89 e5             	mov    %rsp,%rbp
    5f22:	48 83 ec 10          	sub    $0x10,%rsp
    5f26:	48 89 7d f8          	mov    %rdi,-0x8(%rbp)
    5f2a:	48 8b 45 f8          	mov    -0x8(%rbp),%rax
    5f2e:	48 89 c7             	mov    %rax,%rdi
    5f31:	e8 a4 00 00 00       	call   5fda <_ZNK9__gnu_cxx16__aligned_bufferISt4pairIKciEE7_M_addrEv>
    5f36:	c9                   	leave
    5f37:	c3                   	ret

0000000000005f38 <_ZNSt8__detail15_Hashtable_baseIcSt4pairIKciENS_10_Select1stESt8equal_toIcESt4hashIcENS_18_Mod_range_hashingENS_20_Default_ranged_hashENS_17_Hashtable_traitsILb0ELb0ELb1EEEE9_S_equalsEmRKNS_21_Hash_node_code_cacheILb0EEE>:
    5f38:	55                   	push   %rbp
    5f39:	48 89 e5             	mov    %rsp,%rbp
    5f3c:	48 89 7d f8          	mov    %rdi,-0x8(%rbp)
    5f40:	48 89 75 f0          	mov    %rsi,-0x10(%rbp)
    5f44:	b8 01 00 00 00       	mov    $0x1,%eax
    5f49:	5d                   	pop    %rbp
    5f4a:	c3                   	ret
    5f4b:	90                   	nop

0000000000005f4c <_ZNKSt8__detail15_Hash_code_baseIcSt4pairIKciENS_10_Select1stESt4hashIcENS_18_Mod_range_hashingENS_20_Default_ranged_hashELb0EE15_M_bucket_indexERKNS_16_Hash_node_valueIS3_Lb0EEEm>:
    5f4c:	55                   	push   %rbp
    5f4d:	48 89 e5             	mov    %rsp,%rbp
    5f50:	48 83 ec 30          	sub    $0x30,%rsp
    5f54:	48 89 7d e8          	mov    %rdi,-0x18(%rbp)
    5f58:	48 89 75 e0          	mov    %rsi,-0x20(%rbp)
    5f5c:	48 89 55 d8          	mov    %rdx,-0x28(%rbp)
    5f60:	64 48 8b 04 25 28 00 	mov    %fs:0x28,%rax
    5f67:	00 00 
    5f69:	48 89 45 f8          	mov    %rax,-0x8(%rbp)
    5f6d:	31 c0                	xor    %eax,%eax
    5f6f:	48 8b 45 e0          	mov    -0x20(%rbp),%rax
    5f73:	48 89 c7             	mov    %rax,%rdi
    5f76:	e8 6b f8 ff ff       	call   57e6 <_ZNKSt8__detail21_Hash_node_value_baseISt4pairIKciEE4_M_vEv>
    5f7b:	48 89 c2             	mov    %rax,%rdx
    5f7e:	48 8d 45 f7          	lea    -0x9(%rbp),%rax
    5f82:	48 89 d6             	mov    %rdx,%rsi
    5f85:	48 89 c7             	mov    %rax,%rdi
    5f88:	e8 f3 ef ff ff       	call   4f80 <_ZNKSt8__detail10_Select1stclIRKSt4pairIKciEEEONS0_10__1st_typeIT_E4typeEOS8_>
    5f8d:	48 89 c2             	mov    %rax,%rdx
    5f90:	48 8b 45 e8          	mov    -0x18(%rbp),%rax
    5f94:	48 89 d6             	mov    %rdx,%rsi
    5f97:	48 89 c7             	mov    %rax,%rdi
    5f9a:	e8 49 00 00 00       	call   5fe8 <_ZNKSt8__detail15_Hash_code_baseIcSt4pairIKciENS_10_Select1stESt4hashIcENS_18_Mod_range_hashingENS_20_Default_ranged_hashELb0EE12_M_hash_codeERS2_>
    5f9f:	48 89 c1             	mov    %rax,%rcx
    5fa2:	48 8b 55 d8          	mov    -0x28(%rbp),%rdx
    5fa6:	48 8d 45 f6          	lea    -0xa(%rbp),%rax
    5faa:	48 89 ce             	mov    %rcx,%rsi
    5fad:	48 89 c7             	mov    %rax,%rdi
    5fb0:	e8 a1 e1 ff ff       	call   4156 <_ZNKSt8__detail18_Mod_range_hashingclEmm>
    5fb5:	48 8b 55 f8          	mov    -0x8(%rbp),%rdx
    5fb9:	64 48 2b 14 25 28 00 	sub    %fs:0x28,%rdx
    5fc0:	00 00 
    5fc2:	74 05                	je     5fc9 <_ZNKSt8__detail15_Hash_code_baseIcSt4pairIKciENS_10_Select1stESt4hashIcENS_18_Mod_range_hashingENS_20_Default_ranged_hashELb0EE15_M_bucket_indexERKNS_16_Hash_node_valueIS3_Lb0EEEm+0x7d>
    5fc4:	e8 d7 d2 ff ff       	call   32a0 <__stack_chk_fail@plt>
    5fc9:	c9                   	leave
    5fca:	c3                   	ret

0000000000005fcb <_ZSt12__to_addressINSt8__detail10_Hash_nodeISt4pairIKciELb0EEEEPT_S7_>:
    5fcb:	55                   	push   %rbp
    5fcc:	48 89 e5             	mov    %rsp,%rbp
    5fcf:	48 89 7d f8          	mov    %rdi,-0x8(%rbp)
    5fd3:	48 8b 45 f8          	mov    -0x8(%rbp),%rax
    5fd7:	5d                   	pop    %rbp
    5fd8:	c3                   	ret
    5fd9:	90                   	nop

0000000000005fda <_ZNK9__gnu_cxx16__aligned_bufferISt4pairIKciEE7_M_addrEv>:
    5fda:	55                   	push   %rbp
    5fdb:	48 89 e5             	mov    %rsp,%rbp
    5fde:	48 89 7d f8          	mov    %rdi,-0x8(%rbp)
    5fe2:	48 8b 45 f8          	mov    -0x8(%rbp),%rax
    5fe6:	5d                   	pop    %rbp
    5fe7:	c3                   	ret

0000000000005fe8 <_ZNKSt8__detail15_Hash_code_baseIcSt4pairIKciENS_10_Select1stESt4hashIcENS_18_Mod_range_hashingENS_20_Default_ranged_hashELb0EE12_M_hash_codeERS2_>:
    5fe8:	55                   	push   %rbp
    5fe9:	48 89 e5             	mov    %rsp,%rbp
    5fec:	48 83 ec 10          	sub    $0x10,%rsp
    5ff0:	48 89 7d f8          	mov    %rdi,-0x8(%rbp)
    5ff4:	48 89 75 f0          	mov    %rsi,-0x10(%rbp)
    5ff8:	48 8b 45 f8          	mov    -0x8(%rbp),%rax
    5ffc:	48 89 c7             	mov    %rax,%rdi
    5fff:	e8 30 f8 ff ff       	call   5834 <_ZNKSt8__detail15_Hash_code_baseIcSt4pairIKciENS_10_Select1stESt4hashIcENS_18_Mod_range_hashingENS_20_Default_ranged_hashELb0EE7_M_hashEv>
    6004:	48 89 c2             	mov    %rax,%rdx
    6007:	48 8b 45 f0          	mov    -0x10(%rbp),%rax
    600b:	0f b6 00             	movzbl (%rax),%eax
    600e:	0f be c0             	movsbl %al,%eax
    6011:	89 c6                	mov    %eax,%esi
    6013:	48 89 d7             	mov    %rdx,%rdi
    6016:	e8 11 e1 ff ff       	call   412c <_ZNKSt4hashIcEclEc>
    601b:	c9                   	leave
    601c:	c3                   	ret
    601d:	90                   	nop

000000000000601e <_ZNSt15__new_allocatorINSt8__detail10_Hash_nodeISt4pairIKciELb0EEEE8allocateEmPKv>:
    601e:	55                   	push   %rbp
    601f:	48 89 e5             	mov    %rsp,%rbp
    6022:	48 83 ec 30          	sub    $0x30,%rsp
    6026:	48 89 7d e8          	mov    %rdi,-0x18(%rbp)
    602a:	48 89 75 e0          	mov    %rsi,-0x20(%rbp)
    602e:	48 89 55 d8          	mov    %rdx,-0x28(%rbp)
    6032:	48 8b 45 e8          	mov    -0x18(%rbp),%rax
    6036:	48 89 45 f8          	mov    %rax,-0x8(%rbp)
    603a:	48 b8 ff ff ff ff ff 	movabs $0x7ffffffffffffff,%rax
    6041:	ff ff 07 
    6044:	48 3b 45 e0          	cmp    -0x20(%rbp),%rax
    6048:	0f 92 c0             	setb   %al
    604b:	0f b6 c0             	movzbl %al,%eax
    604e:	48 85 c0             	test   %rax,%rax
    6051:	0f 95 c0             	setne  %al
    6054:	84 c0                	test   %al,%al
    6056:	74 1a                	je     6072 <_ZNSt15__new_allocatorINSt8__detail10_Hash_nodeISt4pairIKciELb0EEEE8allocateEmPKv+0x54>
    6058:	48 b8 ff ff ff ff ff 	movabs $0xfffffffffffffff,%rax
    605f:	ff ff 0f 
    6062:	48 3b 45 e0          	cmp    -0x20(%rbp),%rax
    6066:	73 05                	jae    606d <_ZNSt15__new_allocatorINSt8__detail10_Hash_nodeISt4pairIKciELb0EEEE8allocateEmPKv+0x4f>
    6068:	e8 43 d1 ff ff       	call   31b0 <_ZSt28__throw_bad_array_new_lengthv@plt>
    606d:	e8 1e d0 ff ff       	call   3090 <_ZSt17__throw_bad_allocv@plt>
    6072:	48 8b 45 e0          	mov    -0x20(%rbp),%rax
    6076:	48 c1 e0 04          	shl    $0x4,%rax
    607a:	48 89 c7             	mov    %rax,%rdi
    607d:	e8 ae d1 ff ff       	call   3230 <_Znwm@plt>
    6082:	90                   	nop
    6083:	c9                   	leave
    6084:	c3                   	ret
    6085:	90                   	nop

0000000000006086 <_ZNSt4pairIKciEC1IS0_iLb1EEERS0_RKi>:
    6086:	55                   	push   %rbp
    6087:	48 89 e5             	mov    %rsp,%rbp
    608a:	48 89 7d f8          	mov    %rdi,-0x8(%rbp)
    608e:	48 89 75 f0          	mov    %rsi,-0x10(%rbp)
    6092:	48 89 55 e8          	mov    %rdx,-0x18(%rbp)
    6096:	48 8b 45 f0          	mov    -0x10(%rbp),%rax
    609a:	0f b6 00             	movzbl (%rax),%eax
    609d:	48 8b 55 f8          	mov    -0x8(%rbp),%rdx
    60a1:	88 02                	mov    %al,(%rdx)
    60a3:	48 8b 45 e8          	mov    -0x18(%rbp),%rax
    60a7:	8b 10                	mov    (%rax),%edx
    60a9:	48 8b 45 f8          	mov    -0x8(%rbp),%rax
    60ad:	89 50 04             	mov    %edx,0x4(%rax)
    60b0:	90                   	nop
    60b1:	5d                   	pop    %rbp
    60b2:	c3                   	ret
    60b3:	90                   	nop

00000000000060b4 <_ZNSt13unordered_mapIciSt4hashIcESt8equal_toIcESaISt4pairIKciEEED1Ev>:
    60b4:	55                   	push   %rbp
    60b5:	48 89 e5             	mov    %rsp,%rbp
    60b8:	48 83 ec 10          	sub    $0x10,%rsp
    60bc:	48 89 7d f8          	mov    %rdi,-0x8(%rbp)
    60c0:	48 8b 45 f8          	mov    -0x8(%rbp),%rax
    60c4:	48 89 c7             	mov    %rax,%rdi
    60c7:	e8 26 e3 ff ff       	call   43f2 <_ZNSt10_HashtableIcSt4pairIKciESaIS2_ENSt8__detail10_Select1stESt8equal_toIcESt4hashIcENS4_18_Mod_range_hashingENS4_20_Default_ranged_hashENS4_20_Prime_rehash_policyENS4_17_Hashtable_traitsILb0ELb0ELb1EEEED1Ev>
    60cc:	90                   	nop
    60cd:	c9                   	leave
    60ce:	c3                   	ret

00000000000060cf <_Z16bit_scan_forwardm>:
    60cf:	55                   	push   %rbp
    60d0:	48 89 e5             	mov    %rsp,%rbp
    60d3:	48 89 7d e8          	mov    %rdi,-0x18(%rbp)
    60d7:	48 8b 45 e8          	mov    -0x18(%rbp),%rax
    60db:	48 ff c8             	dec    %rax
    60de:	48 31 45 e8          	xor    %rax,-0x18(%rbp)
    60e2:	48 8b 45 e8          	mov    -0x18(%rbp),%rax
    60e6:	89 c2                	mov    %eax,%edx
    60e8:	48 8b 45 e8          	mov    -0x18(%rbp),%rax
    60ec:	48 c1 e8 20          	shr    $0x20,%rax
    60f0:	31 d0                	xor    %edx,%eax
    60f2:	89 45 fc             	mov    %eax,-0x4(%rbp)
    60f5:	8b 45 fc             	mov    -0x4(%rbp),%eax
    60f8:	69 c0 cf 1a 29 78    	imul   $0x78291acf,%eax,%eax
    60fe:	c1 e8 1a             	shr    $0x1a,%eax
    6101:	89 c0                	mov    %eax,%eax
    6103:	48 8d 14 85 00 00 00 	lea    0x0(,%rax,4),%rdx
    610a:	00 
    610b:	48 8d 05 8e b3 00 00 	lea    0xb38e(%rip),%rax        # 114a0 <_ZL12lsb_64_table>
    6112:	8b 04 02             	mov    (%rdx,%rax,1),%eax
    6115:	5d                   	pop    %rbp
    6116:	c3                   	ret

0000000000006117 <_Z16bit_drop_forwardRm>:
    6117:	55                   	push   %rbp
    6118:	48 89 e5             	mov    %rsp,%rbp
    611b:	48 83 ec 18          	sub    $0x18,%rsp
    611f:	48 89 7d e8          	mov    %rdi,-0x18(%rbp)
    6123:	48 8b 45 e8          	mov    -0x18(%rbp),%rax
    6127:	48 8b 00             	mov    (%rax),%rax
    612a:	48 89 c7             	mov    %rax,%rdi
    612d:	e8 9d ff ff ff       	call   60cf <_Z16bit_scan_forwardm>
    6132:	89 45 fc             	mov    %eax,-0x4(%rbp)
    6135:	48 8b 45 e8          	mov    -0x18(%rbp),%rax
    6139:	48 8b 10             	mov    (%rax),%rdx
    613c:	48 8b 45 e8          	mov    -0x18(%rbp),%rax
    6140:	48 8b 00             	mov    (%rax),%rax
    6143:	48 ff c8             	dec    %rax
    6146:	48 21 c2             	and    %rax,%rdx
    6149:	48 8b 45 e8          	mov    -0x18(%rbp),%rax
    614d:	48 89 10             	mov    %rdx,(%rax)
    6150:	8b 45 fc             	mov    -0x4(%rbp),%eax
    6153:	c9                   	leave
    6154:	c3                   	ret

0000000000006155 <_Z7printBBRKm>:
    6155:	55                   	push   %rbp
    6156:	48 89 e5             	mov    %rsp,%rbp
    6159:	48 83 ec 20          	sub    $0x20,%rsp
    615d:	48 89 7d e8          	mov    %rdi,-0x18(%rbp)
    6161:	c7 45 f4 07 00 00 00 	movl   $0x7,-0xc(%rbp)
    6168:	eb 79                	jmp    61e3 <_Z7printBBRKm+0x8e>
    616a:	c7 45 f8 00 00 00 00 	movl   $0x0,-0x8(%rbp)
    6171:	eb 4e                	jmp    61c1 <_Z7printBBRKm+0x6c>
    6173:	8b 45 f4             	mov    -0xc(%rbp),%eax
    6176:	8d 14 c5 00 00 00 00 	lea    0x0(,%rax,8),%edx
    617d:	8b 45 f8             	mov    -0x8(%rbp),%eax
    6180:	01 d0                	add    %edx,%eax
    6182:	89 45 fc             	mov    %eax,-0x4(%rbp)
    6185:	48 8b 45 e8          	mov    -0x18(%rbp),%rax
    6189:	48 8b 10             	mov    (%rax),%rdx
    618c:	8b 45 fc             	mov    -0x4(%rbp),%eax
    618f:	c4 e2 fb f7 c2       	shrx   %rax,%rdx,%rax
    6194:	83 e0 01             	and    $0x1,%eax
    6197:	48 85 c0             	test   %rax,%rax
    619a:	74 09                	je     61a5 <_Z7printBBRKm+0x50>
    619c:	48 8d 05 fd b3 00 00 	lea    0xb3fd(%rip),%rax        # 115a0 <_ZL12lsb_64_table+0x100>
    61a3:	eb 07                	jmp    61ac <_Z7printBBRKm+0x57>
    61a5:	48 8d 05 f7 b3 00 00 	lea    0xb3f7(%rip),%rax        # 115a3 <_ZL12lsb_64_table+0x103>
    61ac:	48 89 c6             	mov    %rax,%rsi
    61af:	48 8d 05 8a 24 01 00 	lea    0x1248a(%rip),%rax        # 18640 <_ZSt4cout@GLIBCXX_3.4>
    61b6:	48 89 c7             	mov    %rax,%rdi
    61b9:	e8 62 d0 ff ff       	call   3220 <_ZStlsISt11char_traitsIcEERSt13basic_ostreamIcT_ES5_PKc@plt>
    61be:	ff 45 f8             	incl   -0x8(%rbp)
    61c1:	83 7d f8 07          	cmpl   $0x7,-0x8(%rbp)
    61c5:	7e ac                	jle    6173 <_Z7printBBRKm+0x1e>
    61c7:	48 8b 05 e2 1d 01 00 	mov    0x11de2(%rip),%rax        # 17fb0 <_ZSt4endlIcSt11char_traitsIcEERSt13basic_ostreamIT_T0_ES6_@GLIBCXX_3.4>
    61ce:	48 89 c6             	mov    %rax,%rsi
    61d1:	48 8d 05 68 24 01 00 	lea    0x12468(%rip),%rax        # 18640 <_ZSt4cout@GLIBCXX_3.4>
    61d8:	48 89 c7             	mov    %rax,%rdi
    61db:	e8 70 d0 ff ff       	call   3250 <_ZNSolsEPFRSoS_E@plt>
    61e0:	ff 4d f4             	decl   -0xc(%rbp)
    61e3:	83 7d f4 00          	cmpl   $0x0,-0xc(%rbp)
    61e7:	79 81                	jns    616a <_Z7printBBRKm+0x15>
    61e9:	90                   	nop
    61ea:	90                   	nop
    61eb:	c9                   	leave
    61ec:	c3                   	ret

00000000000061ed <_Z15init_eval_masksv>:
    61ed:	55                   	push   %rbp
    61ee:	48 89 e5             	mov    %rsp,%rbp
    61f1:	c7 45 f8 00 00 00 00 	movl   $0x0,-0x8(%rbp)
    61f8:	eb 3b                	jmp    6235 <_Z15init_eval_masksv+0x48>
    61fa:	8b 45 f8             	mov    -0x8(%rbp),%eax
    61fd:	48 98                	cltq
    61ff:	48 8d 14 c5 00 00 00 	lea    0x0(,%rax,8),%rdx
    6206:	00 
    6207:	48 8d 05 b2 66 0e 00 	lea    0xe66b2(%rip),%rax        # ec8c0 <fileBBMask>
    620e:	48 c7 04 02 00 00 00 	movq   $0x0,(%rdx,%rax,1)
    6215:	00 
    6216:	8b 45 f8             	mov    -0x8(%rbp),%eax
    6219:	48 98                	cltq
    621b:	48 8d 14 c5 00 00 00 	lea    0x0(,%rax,8),%rdx
    6222:	00 
    6223:	48 8d 05 d6 66 0e 00 	lea    0xe66d6(%rip),%rax        # ec900 <rankBBMask>
    622a:	48 c7 04 02 00 00 00 	movq   $0x0,(%rdx,%rax,1)
    6231:	00 
    6232:	ff 45 f8             	incl   -0x8(%rbp)
    6235:	83 7d f8 07          	cmpl   $0x7,-0x8(%rbp)
    6239:	7e bf                	jle    61fa <_Z15init_eval_masksv+0xd>
    623b:	c7 45 f0 07 00 00 00 	movl   $0x7,-0x10(%rbp)
    6242:	e9 b4 00 00 00       	jmp    62fb <_Z15init_eval_masksv+0x10e>
    6247:	c7 45 f4 00 00 00 00 	movl   $0x0,-0xc(%rbp)
    624e:	e9 9b 00 00 00       	jmp    62ee <_Z15init_eval_masksv+0x101>
    6253:	8b 45 f0             	mov    -0x10(%rbp),%eax
    6256:	8d 14 c5 00 00 00 00 	lea    0x0(,%rax,8),%edx
    625d:	8b 45 f4             	mov    -0xc(%rbp),%eax
    6260:	01 d0                	add    %edx,%eax
    6262:	89 45 f8             	mov    %eax,-0x8(%rbp)
    6265:	8b 45 f4             	mov    -0xc(%rbp),%eax
    6268:	48 98                	cltq
    626a:	48 8d 14 c5 00 00 00 	lea    0x0(,%rax,8),%rdx
    6271:	00 
    6272:	48 8d 05 47 66 0e 00 	lea    0xe6647(%rip),%rax        # ec8c0 <fileBBMask>
    6279:	48 8b 14 02          	mov    (%rdx,%rax,1),%rdx
    627d:	8b 45 f8             	mov    -0x8(%rbp),%eax
    6280:	b9 01 00 00 00       	mov    $0x1,%ecx
    6285:	c4 e2 f9 f7 c1       	shlx   %rax,%rcx,%rax
    628a:	48 89 d1             	mov    %rdx,%rcx
    628d:	48 09 c1             	or     %rax,%rcx
    6290:	8b 45 f4             	mov    -0xc(%rbp),%eax
    6293:	48 98                	cltq
    6295:	48 8d 14 c5 00 00 00 	lea    0x0(,%rax,8),%rdx
    629c:	00 
    629d:	48 8d 05 1c 66 0e 00 	lea    0xe661c(%rip),%rax        # ec8c0 <fileBBMask>
    62a4:	48 89 0c 02          	mov    %rcx,(%rdx,%rax,1)
    62a8:	8b 45 f0             	mov    -0x10(%rbp),%eax
    62ab:	48 98                	cltq
    62ad:	48 8d 14 c5 00 00 00 	lea    0x0(,%rax,8),%rdx
    62b4:	00 
    62b5:	48 8d 05 44 66 0e 00 	lea    0xe6644(%rip),%rax        # ec900 <rankBBMask>
    62bc:	48 8b 14 02          	mov    (%rdx,%rax,1),%rdx
    62c0:	8b 45 f8             	mov    -0x8(%rbp),%eax
    62c3:	b9 01 00 00 00       	mov    $0x1,%ecx
    62c8:	c4 e2 f9 f7 c1       	shlx   %rax,%rcx,%rax
    62cd:	48 89 d1             	mov    %rdx,%rcx
    62d0:	48 09 c1             	or     %rax,%rcx
    62d3:	8b 45 f0             	mov    -0x10(%rbp),%eax
    62d6:	48 98                	cltq
    62d8:	48 8d 14 c5 00 00 00 	lea    0x0(,%rax,8),%rdx
    62df:	00 
    62e0:	48 8d 05 19 66 0e 00 	lea    0xe6619(%rip),%rax        # ec900 <rankBBMask>
    62e7:	48 89 0c 02          	mov    %rcx,(%rdx,%rax,1)
    62eb:	ff 45 f4             	incl   -0xc(%rbp)
    62ee:	83 7d f4 07          	cmpl   $0x7,-0xc(%rbp)
    62f2:	0f 8e 5b ff ff ff    	jle    6253 <_Z15init_eval_masksv+0x66>
    62f8:	ff 4d f0             	decl   -0x10(%rbp)
    62fb:	83 7d f0 00          	cmpl   $0x0,-0x10(%rbp)
    62ff:	0f 89 42 ff ff ff    	jns    6247 <_Z15init_eval_masksv+0x5a>
    6305:	c7 45 f8 00 00 00 00 	movl   $0x0,-0x8(%rbp)
    630c:	eb 57                	jmp    6365 <_Z15init_eval_masksv+0x178>
    630e:	8b 45 f8             	mov    -0x8(%rbp),%eax
    6311:	48 98                	cltq
    6313:	48 8d 14 c5 00 00 00 	lea    0x0(,%rax,8),%rdx
    631a:	00 
    631b:	48 8d 05 1e 66 0e 00 	lea    0xe661e(%rip),%rax        # ec940 <wPassedMask>
    6322:	48 c7 04 02 00 00 00 	movq   $0x0,(%rdx,%rax,1)
    6329:	00 
    632a:	8b 45 f8             	mov    -0x8(%rbp),%eax
    632d:	48 98                	cltq
    632f:	48 8d 14 c5 00 00 00 	lea    0x0(,%rax,8),%rdx
    6336:	00 
    6337:	48 8d 05 02 68 0e 00 	lea    0xe6802(%rip),%rax        # ecb40 <bPassedMask>
    633e:	48 c7 04 02 00 00 00 	movq   $0x0,(%rdx,%rax,1)
    6345:	00 
    6346:	8b 45 f8             	mov    -0x8(%rbp),%eax
    6349:	48 98                	cltq
    634b:	48 8d 14 c5 00 00 00 	lea    0x0(,%rax,8),%rdx
    6352:	00 
    6353:	48 8d 05 e6 69 0e 00 	lea    0xe69e6(%rip),%rax        # ecd40 <isolatedMask>
    635a:	48 c7 04 02 00 00 00 	movq   $0x0,(%rdx,%rax,1)
    6361:	00 
    6362:	ff 45 f8             	incl   -0x8(%rbp)
    6365:	83 7d f8 3f          	cmpl   $0x3f,-0x8(%rbp)
    6369:	7e a3                	jle    630e <_Z15init_eval_masksv+0x121>
    636b:	c7 45 f8 00 00 00 00 	movl   $0x0,-0x8(%rbp)
    6372:	e9 d0 02 00 00       	jmp    6647 <_Z15init_eval_masksv+0x45a>
    6377:	8b 45 f8             	mov    -0x8(%rbp),%eax
    637a:	83 c0 08             	add    $0x8,%eax
    637d:	89 45 fc             	mov    %eax,-0x4(%rbp)
    6380:	eb 47                	jmp    63c9 <_Z15init_eval_masksv+0x1dc>
    6382:	8b 45 f8             	mov    -0x8(%rbp),%eax
    6385:	48 98                	cltq
    6387:	48 8d 14 c5 00 00 00 	lea    0x0(,%rax,8),%rdx
    638e:	00 
    638f:	48 8d 05 aa 65 0e 00 	lea    0xe65aa(%rip),%rax        # ec940 <wPassedMask>
    6396:	48 8b 14 02          	mov    (%rdx,%rax,1),%rdx
    639a:	8b 45 fc             	mov    -0x4(%rbp),%eax
    639d:	b9 01 00 00 00       	mov    $0x1,%ecx
    63a2:	c4 e2 f9 f7 c1       	shlx   %rax,%rcx,%rax
    63a7:	48 89 d1             	mov    %rdx,%rcx
    63aa:	48 09 c1             	or     %rax,%rcx
    63ad:	8b 45 f8             	mov    -0x8(%rbp),%eax
    63b0:	48 98                	cltq
    63b2:	48 8d 14 c5 00 00 00 	lea    0x0(,%rax,8),%rdx
    63b9:	00 
    63ba:	48 8d 05 7f 65 0e 00 	lea    0xe657f(%rip),%rax        # ec940 <wPassedMask>
    63c1:	48 89 0c 02          	mov    %rcx,(%rdx,%rax,1)
    63c5:	83 45 fc 08          	addl   $0x8,-0x4(%rbp)
    63c9:	83 7d fc 3f          	cmpl   $0x3f,-0x4(%rbp)
    63cd:	7e b3                	jle    6382 <_Z15init_eval_masksv+0x195>
    63cf:	8b 45 f8             	mov    -0x8(%rbp),%eax
    63d2:	83 e8 08             	sub    $0x8,%eax
    63d5:	89 45 fc             	mov    %eax,-0x4(%rbp)
    63d8:	eb 47                	jmp    6421 <_Z15init_eval_masksv+0x234>
    63da:	8b 45 f8             	mov    -0x8(%rbp),%eax
    63dd:	48 98                	cltq
    63df:	48 8d 14 c5 00 00 00 	lea    0x0(,%rax,8),%rdx
    63e6:	00 
    63e7:	48 8d 05 52 67 0e 00 	lea    0xe6752(%rip),%rax        # ecb40 <bPassedMask>
    63ee:	48 8b 14 02          	mov    (%rdx,%rax,1),%rdx
    63f2:	8b 45 fc             	mov    -0x4(%rbp),%eax
    63f5:	b9 01 00 00 00       	mov    $0x1,%ecx
    63fa:	c4 e2 f9 f7 c1       	shlx   %rax,%rcx,%rax
    63ff:	48 89 d1             	mov    %rdx,%rcx
    6402:	48 09 c1             	or     %rax,%rcx
    6405:	8b 45 f8             	mov    -0x8(%rbp),%eax
    6408:	48 98                	cltq
    640a:	48 8d 14 c5 00 00 00 	lea    0x0(,%rax,8),%rdx
    6411:	00 
    6412:	48 8d 05 27 67 0e 00 	lea    0xe6727(%rip),%rax        # ecb40 <bPassedMask>
    6419:	48 89 0c 02          	mov    %rcx,(%rdx,%rax,1)
    641d:	83 6d fc 08          	subl   $0x8,-0x4(%rbp)
    6421:	83 7d fc 00          	cmpl   $0x0,-0x4(%rbp)
    6425:	79 b3                	jns    63da <_Z15init_eval_masksv+0x1ed>
    6427:	8b 45 f8             	mov    -0x8(%rbp),%eax
    642a:	83 e0 07             	and    $0x7,%eax
    642d:	85 c0                	test   %eax,%eax
    642f:	0f 8e 00 01 00 00    	jle    6535 <_Z15init_eval_masksv+0x348>
    6435:	8b 45 f8             	mov    -0x8(%rbp),%eax
    6438:	48 98                	cltq
    643a:	48 8d 14 c5 00 00 00 	lea    0x0(,%rax,8),%rdx
    6441:	00 
    6442:	48 8d 05 f7 68 0e 00 	lea    0xe68f7(%rip),%rax        # ecd40 <isolatedMask>
    6449:	48 8b 0c 02          	mov    (%rdx,%rax,1),%rcx
    644d:	8b 45 f8             	mov    -0x8(%rbp),%eax
    6450:	83 e0 07             	and    $0x7,%eax
    6453:	ff c8                	dec    %eax
    6455:	48 98                	cltq
    6457:	48 8d 14 c5 00 00 00 	lea    0x0(,%rax,8),%rdx
    645e:	00 
    645f:	48 8d 05 5a 64 0e 00 	lea    0xe645a(%rip),%rax        # ec8c0 <fileBBMask>
    6466:	48 8b 04 02          	mov    (%rdx,%rax,1),%rax
    646a:	48 09 c1             	or     %rax,%rcx
    646d:	8b 45 f8             	mov    -0x8(%rbp),%eax
    6470:	48 98                	cltq
    6472:	48 8d 14 c5 00 00 00 	lea    0x0(,%rax,8),%rdx
    6479:	00 
    647a:	48 8d 05 bf 68 0e 00 	lea    0xe68bf(%rip),%rax        # ecd40 <isolatedMask>
    6481:	48 89 0c 02          	mov    %rcx,(%rdx,%rax,1)
    6485:	8b 45 f8             	mov    -0x8(%rbp),%eax
    6488:	83 c0 07             	add    $0x7,%eax
    648b:	89 45 fc             	mov    %eax,-0x4(%rbp)
    648e:	eb 47                	jmp    64d7 <_Z15init_eval_masksv+0x2ea>
    6490:	8b 45 f8             	mov    -0x8(%rbp),%eax
    6493:	48 98                	cltq
    6495:	48 8d 14 c5 00 00 00 	lea    0x0(,%rax,8),%rdx
    649c:	00 
    649d:	48 8d 05 9c 64 0e 00 	lea    0xe649c(%rip),%rax        # ec940 <wPassedMask>
    64a4:	48 8b 14 02          	mov    (%rdx,%rax,1),%rdx
    64a8:	8b 45 fc             	mov    -0x4(%rbp),%eax
    64ab:	b9 01 00 00 00       	mov    $0x1,%ecx
    64b0:	c4 e2 f9 f7 c1       	shlx   %rax,%rcx,%rax
    64b5:	48 89 d1             	mov    %rdx,%rcx
    64b8:	48 09 c1             	or     %rax,%rcx
    64bb:	8b 45 f8             	mov    -0x8(%rbp),%eax
    64be:	48 98                	cltq
    64c0:	48 8d 14 c5 00 00 00 	lea    0x0(,%rax,8),%rdx
    64c7:	00 
    64c8:	48 8d 05 71 64 0e 00 	lea    0xe6471(%rip),%rax        # ec940 <wPassedMask>
    64cf:	48 89 0c 02          	mov    %rcx,(%rdx,%rax,1)
    64d3:	83 45 fc 08          	addl   $0x8,-0x4(%rbp)
    64d7:	83 7d fc 3f          	cmpl   $0x3f,-0x4(%rbp)
    64db:	7e b3                	jle    6490 <_Z15init_eval_masksv+0x2a3>
    64dd:	8b 45 f8             	mov    -0x8(%rbp),%eax
    64e0:	83 e8 09             	sub    $0x9,%eax
    64e3:	89 45 fc             	mov    %eax,-0x4(%rbp)
    64e6:	eb 47                	jmp    652f <_Z15init_eval_masksv+0x342>
    64e8:	8b 45 f8             	mov    -0x8(%rbp),%eax
    64eb:	48 98                	cltq
    64ed:	48 8d 14 c5 00 00 00 	lea    0x0(,%rax,8),%rdx
    64f4:	00 
    64f5:	48 8d 05 44 66 0e 00 	lea    0xe6644(%rip),%rax        # ecb40 <bPassedMask>
    64fc:	48 8b 14 02          	mov    (%rdx,%rax,1),%rdx
    6500:	8b 45 fc             	mov    -0x4(%rbp),%eax
    6503:	b9 01 00 00 00       	mov    $0x1,%ecx
    6508:	c4 e2 f9 f7 c1       	shlx   %rax,%rcx,%rax
    650d:	48 89 d1             	mov    %rdx,%rcx
    6510:	48 09 c1             	or     %rax,%rcx
    6513:	8b 45 f8             	mov    -0x8(%rbp),%eax
    6516:	48 98                	cltq
    6518:	48 8d 14 c5 00 00 00 	lea    0x0(,%rax,8),%rdx
    651f:	00 
    6520:	48 8d 05 19 66 0e 00 	lea    0xe6619(%rip),%rax        # ecb40 <bPassedMask>
    6527:	48 89 0c 02          	mov    %rcx,(%rdx,%rax,1)
    652b:	83 6d fc 08          	subl   $0x8,-0x4(%rbp)
    652f:	83 7d fc 00          	cmpl   $0x0,-0x4(%rbp)
    6533:	79 b3                	jns    64e8 <_Z15init_eval_masksv+0x2fb>
    6535:	8b 45 f8             	mov    -0x8(%rbp),%eax
    6538:	83 e0 07             	and    $0x7,%eax
    653b:	83 f8 06             	cmp    $0x6,%eax
    653e:	0f 8f 00 01 00 00    	jg     6644 <_Z15init_eval_masksv+0x457>
    6544:	8b 45 f8             	mov    -0x8(%rbp),%eax
    6547:	48 98                	cltq
    6549:	48 8d 14 c5 00 00 00 	lea    0x0(,%rax,8),%rdx
    6550:	00 
    6551:	48 8d 05 e8 67 0e 00 	lea    0xe67e8(%rip),%rax        # ecd40 <isolatedMask>
    6558:	48 8b 0c 02          	mov    (%rdx,%rax,1),%rcx
    655c:	8b 45 f8             	mov    -0x8(%rbp),%eax
    655f:	83 e0 07             	and    $0x7,%eax
    6562:	ff c0                	inc    %eax
    6564:	48 98                	cltq
    6566:	48 8d 14 c5 00 00 00 	lea    0x0(,%rax,8),%rdx
    656d:	00 
    656e:	48 8d 05 4b 63 0e 00 	lea    0xe634b(%rip),%rax        # ec8c0 <fileBBMask>
    6575:	48 8b 04 02          	mov    (%rdx,%rax,1),%rax
    6579:	48 09 c1             	or     %rax,%rcx
    657c:	8b 45 f8             	mov    -0x8(%rbp),%eax
    657f:	48 98                	cltq
    6581:	48 8d 14 c5 00 00 00 	lea    0x0(,%rax,8),%rdx
    6588:	00 
    6589:	48 8d 05 b0 67 0e 00 	lea    0xe67b0(%rip),%rax        # ecd40 <isolatedMask>
    6590:	48 89 0c 02          	mov    %rcx,(%rdx,%rax,1)
    6594:	8b 45 f8             	mov    -0x8(%rbp),%eax
    6597:	83 c0 09             	add    $0x9,%eax
    659a:	89 45 fc             	mov    %eax,-0x4(%rbp)
    659d:	eb 47                	jmp    65e6 <_Z15init_eval_masksv+0x3f9>
    659f:	8b 45 f8             	mov    -0x8(%rbp),%eax
    65a2:	48 98                	cltq
    65a4:	48 8d 14 c5 00 00 00 	lea    0x0(,%rax,8),%rdx
    65ab:	00 
    65ac:	48 8d 05 8d 63 0e 00 	lea    0xe638d(%rip),%rax        # ec940 <wPassedMask>
    65b3:	48 8b 14 02          	mov    (%rdx,%rax,1),%rdx
    65b7:	8b 45 fc             	mov    -0x4(%rbp),%eax
    65ba:	b9 01 00 00 00       	mov    $0x1,%ecx
    65bf:	c4 e2 f9 f7 c1       	shlx   %rax,%rcx,%rax
    65c4:	48 89 d1             	mov    %rdx,%rcx
    65c7:	48 09 c1             	or     %rax,%rcx
    65ca:	8b 45 f8             	mov    -0x8(%rbp),%eax
    65cd:	48 98                	cltq
    65cf:	48 8d 14 c5 00 00 00 	lea    0x0(,%rax,8),%rdx
    65d6:	00 
    65d7:	48 8d 05 62 63 0e 00 	lea    0xe6362(%rip),%rax        # ec940 <wPassedMask>
    65de:	48 89 0c 02          	mov    %rcx,(%rdx,%rax,1)
    65e2:	83 45 fc 08          	addl   $0x8,-0x4(%rbp)
    65e6:	83 7d fc 3f          	cmpl   $0x3f,-0x4(%rbp)
    65ea:	7e b3                	jle    659f <_Z15init_eval_masksv+0x3b2>
    65ec:	8b 45 f8             	mov    -0x8(%rbp),%eax
    65ef:	83 e8 07             	sub    $0x7,%eax
    65f2:	89 45 fc             	mov    %eax,-0x4(%rbp)
    65f5:	eb 47                	jmp    663e <_Z15init_eval_masksv+0x451>
    65f7:	8b 45 f8             	mov    -0x8(%rbp),%eax
    65fa:	48 98                	cltq
    65fc:	48 8d 14 c5 00 00 00 	lea    0x0(,%rax,8),%rdx
    6603:	00 
    6604:	48 8d 05 35 65 0e 00 	lea    0xe6535(%rip),%rax        # ecb40 <bPassedMask>
    660b:	48 8b 14 02          	mov    (%rdx,%rax,1),%rdx
    660f:	8b 45 fc             	mov    -0x4(%rbp),%eax
    6612:	b9 01 00 00 00       	mov    $0x1,%ecx
    6617:	c4 e2 f9 f7 c1       	shlx   %rax,%rcx,%rax
    661c:	48 89 d1             	mov    %rdx,%rcx
    661f:	48 09 c1             	or     %rax,%rcx
    6622:	8b 45 f8             	mov    -0x8(%rbp),%eax
    6625:	48 98                	cltq
    6627:	48 8d 14 c5 00 00 00 	lea    0x0(,%rax,8),%rdx
    662e:	00 
    662f:	48 8d 05 0a 65 0e 00 	lea    0xe650a(%rip),%rax        # ecb40 <bPassedMask>
    6636:	48 89 0c 02          	mov    %rcx,(%rdx,%rax,1)
    663a:	83 6d fc 08          	subl   $0x8,-0x4(%rbp)
    663e:	83 7d fc 00          	cmpl   $0x0,-0x4(%rbp)
    6642:	79 b3                	jns    65f7 <_Z15init_eval_masksv+0x40a>
    6644:	ff 45 f8             	incl   -0x8(%rbp)
    6647:	83 7d f8 3f          	cmpl   $0x3f,-0x8(%rbp)
    664b:	0f 8e 26 fd ff ff    	jle    6377 <_Z15init_eval_masksv+0x18a>
    6651:	90                   	nop
    6652:	90                   	nop
    6653:	5d                   	pop    %rbp
    6654:	c3                   	ret

0000000000006655 <_Z41__static_initialization_and_destruction_0v>:
    6655:	55                   	push   %rbp
    6656:	48 89 e5             	mov    %rsp,%rbp
    6659:	41 52                	push   %r10
    665b:	53                   	push   %rbx
    665c:	48 83 c4 80          	add    $0xffffffffffffff80,%rsp
    6660:	4c 8d 55 10          	lea    0x10(%rbp),%r10
    6664:	64 48 8b 0c 25 28 00 	mov    %fs:0x28,%rcx
    666b:	00 00 
    666d:	48 89 4d e8          	mov    %rcx,-0x18(%rbp)
    6671:	31 c9                	xor    %ecx,%ecx
    6673:	48 8d 0d 3e 62 0e 00 	lea    0xe623e(%rip),%rcx        # ec8b8 <_ZGV13char_to_piece>
    667a:	0f b6 09             	movzbl (%rcx),%ecx
    667d:	84 c9                	test   %cl,%cl
    667f:	0f 85 71 01 00 00    	jne    67f6 <_Z41__static_initialization_and_destruction_0v+0x1a1>
    6685:	48 8d 0d 2c 62 0e 00 	lea    0xe622c(%rip),%rcx        # ec8b8 <_ZGV13char_to_piece>
    668c:	c6 01 01             	movb   $0x1,(%rcx)
    668f:	c5 f9 ef c0          	vpxor  %xmm0,%xmm0,%xmm0
    6693:	c5 fe 7f 45 80       	vmovdqu %ymm0,-0x80(%rbp)
    6698:	c5 fe 7f 45 a0       	vmovdqu %ymm0,-0x60(%rbp)
    669d:	c5 fe 7f 45 c0       	vmovdqu %ymm0,-0x40(%rbp)
    66a2:	c5 f9 d6 45 e0       	vmovq  %xmm0,-0x20(%rbp)
    66a7:	c6 45 80 30          	movb   $0x30,-0x80(%rbp)
    66ab:	c6 45 88 50          	movb   $0x50,-0x78(%rbp)
    66af:	c7 45 8c 01 00 00 00 	movl   $0x1,-0x74(%rbp)
    66b6:	c6 45 90 52          	movb   $0x52,-0x70(%rbp)
    66ba:	c7 45 94 04 00 00 00 	movl   $0x4,-0x6c(%rbp)
    66c1:	c6 45 98 4e          	movb   $0x4e,-0x68(%rbp)
    66c5:	c7 45 9c 02 00 00 00 	movl   $0x2,-0x64(%rbp)
    66cc:	c6 45 a0 42          	movb   $0x42,-0x60(%rbp)
    66d0:	c7 45 a4 03 00 00 00 	movl   $0x3,-0x5c(%rbp)
    66d7:	c6 45 a8 51          	movb   $0x51,-0x58(%rbp)
    66db:	c7 45 ac 05 00 00 00 	movl   $0x5,-0x54(%rbp)
    66e2:	c6 45 b0 4b          	movb   $0x4b,-0x50(%rbp)
    66e6:	c7 45 b4 06 00 00 00 	movl   $0x6,-0x4c(%rbp)
    66ed:	c6 45 b8 70          	movb   $0x70,-0x48(%rbp)
    66f1:	c7 45 bc 09 00 00 00 	movl   $0x9,-0x44(%rbp)
    66f8:	c6 45 c0 6e          	movb   $0x6e,-0x40(%rbp)
    66fc:	c7 45 c4 0a 00 00 00 	movl   $0xa,-0x3c(%rbp)
    6703:	c6 45 c8 72          	movb   $0x72,-0x38(%rbp)
    6707:	c7 45 cc 0c 00 00 00 	movl   $0xc,-0x34(%rbp)
    670e:	c6 45 d0 62          	movb   $0x62,-0x30(%rbp)
    6712:	c7 45 d4 0b 00 00 00 	movl   $0xb,-0x2c(%rbp)
    6719:	c6 45 d8 71          	movb   $0x71,-0x28(%rbp)
    671d:	c7 45 dc 0d 00 00 00 	movl   $0xd,-0x24(%rbp)
    6724:	c6 45 e0 6b          	movb   $0x6b,-0x20(%rbp)
    6728:	c7 45 e4 0e 00 00 00 	movl   $0xe,-0x1c(%rbp)
    672f:	48 8d 4d 80          	lea    -0x80(%rbp),%rcx
    6733:	48 89 c8             	mov    %rcx,%rax
    6736:	ba 0d 00 00 00       	mov    $0xd,%edx
    673b:	48 8d 8d 77 ff ff ff 	lea    -0x89(%rbp),%rcx
    6742:	48 89 8d 78 ff ff ff 	mov    %rcx,-0x88(%rbp)
    6749:	90                   	nop
    674a:	90                   	nop
    674b:	48 8d b5 76 ff ff ff 	lea    -0x8a(%rbp),%rsi
    6752:	48 8d 8d 75 ff ff ff 	lea    -0x8b(%rbp),%rcx
    6759:	49 89 c0             	mov    %rax,%r8
    675c:	49 89 d1             	mov    %rdx,%r9
    675f:	4c 89 c7             	mov    %r8,%rdi
    6762:	48 83 ec 08          	sub    $0x8,%rsp
    6766:	48 8d 85 77 ff ff ff 	lea    -0x89(%rbp),%rax
    676d:	50                   	push   %rax
    676e:	49 89 f1             	mov    %rsi,%r9
    6771:	49 89 c8             	mov    %rcx,%r8
    6774:	b9 00 00 00 00       	mov    $0x0,%ecx
    6779:	48 89 fe             	mov    %rdi,%rsi
    677c:	48 8d 05 fd 60 0e 00 	lea    0xe60fd(%rip),%rax        # ec880 <char_to_piece>
    6783:	48 89 c7             	mov    %rax,%rdi
    6786:	e8 31 db ff ff       	call   42bc <_ZNSt13unordered_mapIciSt4hashIcESt8equal_toIcESaISt4pairIKciEEEC1ESt16initializer_listIS6_EmRKS1_RKS3_RKS7_>
    678b:	48 83 c4 10          	add    $0x10,%rsp
    678f:	48 8d 85 77 ff ff ff 	lea    -0x89(%rbp),%rax
    6796:	48 89 c7             	mov    %rax,%rdi
    6799:	e8 8a db ff ff       	call   4328 <_ZNSt15__new_allocatorISt4pairIKciEED1Ev>
    679e:	90                   	nop
    679f:	48 8d 05 62 1a 01 00 	lea    0x11a62(%rip),%rax        # 18208 <__dso_handle>
    67a6:	48 89 c2             	mov    %rax,%rdx
    67a9:	48 8d 05 d0 60 0e 00 	lea    0xe60d0(%rip),%rax        # ec880 <char_to_piece>
    67b0:	48 89 c6             	mov    %rax,%rsi
    67b3:	48 8d 05 fa f8 ff ff 	lea    -0x706(%rip),%rax        # 60b4 <_ZNSt13unordered_mapIciSt4hashIcESt8equal_toIcESaISt4pairIKciEEED1Ev>
    67ba:	48 89 c7             	mov    %rax,%rdi
    67bd:	e8 3e ca ff ff       	call   3200 <__cxa_atexit@plt>
    67c2:	eb 32                	jmp    67f6 <_Z41__static_initialization_and_destruction_0v+0x1a1>
    67c4:	48 89 c3             	mov    %rax,%rbx
    67c7:	48 8d 85 77 ff ff ff 	lea    -0x89(%rbp),%rax
    67ce:	48 89 c7             	mov    %rax,%rdi
    67d1:	e8 52 db ff ff       	call   4328 <_ZNSt15__new_allocatorISt4pairIKciEED1Ev>
    67d6:	90                   	nop
    67d7:	48 89 d8             	mov    %rbx,%rax
    67da:	48 8b 55 e8          	mov    -0x18(%rbp),%rdx
    67de:	64 48 2b 14 25 28 00 	sub    %fs:0x28,%rdx
    67e5:	00 00 
    67e7:	74 05                	je     67ee <_Z41__static_initialization_and_destruction_0v+0x199>
    67e9:	e8 b2 ca ff ff       	call   32a0 <__stack_chk_fail@plt>
    67ee:	48 89 c7             	mov    %rax,%rdi
    67f1:	e8 da cb ff ff       	call   33d0 <_Unwind_Resume@plt>
    67f6:	90                   	nop
    67f7:	48 8b 45 e8          	mov    -0x18(%rbp),%rax
    67fb:	64 48 2b 04 25 28 00 	sub    %fs:0x28,%rax
    6802:	00 00 
    6804:	74 05                	je     680b <_Z41__static_initialization_and_destruction_0v+0x1b6>
    6806:	e8 95 ca ff ff       	call   32a0 <__stack_chk_fail@plt>
    680b:	48 8d 65 f0          	lea    -0x10(%rbp),%rsp
    680f:	5b                   	pop    %rbx
    6810:	41 5a                	pop    %r10
    6812:	5d                   	pop    %rbp
    6813:	c3                   	ret

0000000000006814 <_GLOBAL__sub_I_fileBBMask>:
    6814:	55                   	push   %rbp
    6815:	48 89 e5             	mov    %rsp,%rbp
    6818:	e8 38 fe ff ff       	call   6655 <_Z41__static_initialization_and_destruction_0v>
    681d:	5d                   	pop    %rbp
    681e:	c3                   	ret

000000000000681f <_Z9init_keysv>:
    681f:	55                   	push   %rbp
    6820:	48 89 e5             	mov    %rsp,%rbp
    6823:	48 83 ec 30          	sub    $0x30,%rsp
    6827:	bf 2c 0f 01 00       	mov    $0x10f2c,%edi
    682c:	e8 9a 88 00 00       	call   f0cb <_Z8seed_rngm>
    6831:	48 8d 05 a8 ad 00 00 	lea    0xada8(%rip),%rax        # 115e0 <_ZL6pieces>
    6838:	48 89 45 f0          	mov    %rax,-0x10(%rbp)
    683c:	48 8d 05 9d ad 00 00 	lea    0xad9d(%rip),%rax        # 115e0 <_ZL6pieces>
    6843:	48 89 45 e8          	mov    %rax,-0x18(%rbp)
    6847:	48 8d 05 c2 ad 00 00 	lea    0xadc2(%rip),%rax        # 11610 <_ZL14is_sliding_arr>
    684e:	48 89 45 f8          	mov    %rax,-0x8(%rbp)
    6852:	eb 4b                	jmp    689f <_Z9init_keysv+0x80>
    6854:	48 8b 45 e8          	mov    -0x18(%rbp),%rax
    6858:	8b 00                	mov    (%rax),%eax
    685a:	89 45 e4             	mov    %eax,-0x1c(%rbp)
    685d:	c7 45 d8 00 00 00 00 	movl   $0x0,-0x28(%rbp)
    6864:	eb 2e                	jmp    6894 <_Z9init_keysv+0x75>
    6866:	e8 aa 88 00 00       	call   f115 <_Z11rand_uint64v>
    686b:	8b 55 d8             	mov    -0x28(%rbp),%edx
    686e:	48 63 d2             	movslq %edx,%rdx
    6871:	8b 4d e4             	mov    -0x1c(%rbp),%ecx
    6874:	48 63 c9             	movslq %ecx,%rcx
    6877:	48 c1 e1 06          	shl    $0x6,%rcx
    687b:	48 01 ca             	add    %rcx,%rdx
    687e:	48 8d 0c d5 00 00 00 	lea    0x0(,%rdx,8),%rcx
    6885:	00 
    6886:	48 8d 15 f3 66 0e 00 	lea    0xe66f3(%rip),%rdx        # ecf80 <piece_keys>
    688d:	48 89 04 11          	mov    %rax,(%rcx,%rdx,1)
    6891:	ff 45 d8             	incl   -0x28(%rbp)
    6894:	83 7d d8 3f          	cmpl   $0x3f,-0x28(%rbp)
    6898:	7e cc                	jle    6866 <_Z9init_keysv+0x47>
    689a:	48 83 45 e8 04       	addq   $0x4,-0x18(%rbp)
    689f:	48 8b 45 e8          	mov    -0x18(%rbp),%rax
    68a3:	48 3b 45 f8          	cmp    -0x8(%rbp),%rax
    68a7:	75 ab                	jne    6854 <_Z9init_keysv+0x35>
    68a9:	e8 67 88 00 00       	call   f115 <_Z11rand_uint64v>
    68ae:	48 89 05 cb 84 0e 00 	mov    %rax,0xe84cb(%rip)        # eed80 <turn_key>
    68b5:	c7 45 dc 00 00 00 00 	movl   $0x0,-0x24(%rbp)
    68bc:	eb 21                	jmp    68df <_Z9init_keysv+0xc0>
    68be:	e8 52 88 00 00       	call   f115 <_Z11rand_uint64v>
    68c3:	8b 55 dc             	mov    -0x24(%rbp),%edx
    68c6:	48 63 d2             	movslq %edx,%rdx
    68c9:	48 8d 0c d5 00 00 00 	lea    0x0(,%rdx,8),%rcx
    68d0:	00 
    68d1:	48 8d 15 c8 84 0e 00 	lea    0xe84c8(%rip),%rdx        # eeda0 <castle_keys>
    68d8:	48 89 04 11          	mov    %rax,(%rcx,%rdx,1)
    68dc:	ff 45 dc             	incl   -0x24(%rbp)
    68df:	83 7d dc 0f          	cmpl   $0xf,-0x24(%rbp)
    68e3:	7e d9                	jle    68be <_Z9init_keysv+0x9f>
    68e5:	c7 45 e0 00 00 00 00 	movl   $0x0,-0x20(%rbp)
    68ec:	eb 21                	jmp    690f <_Z9init_keysv+0xf0>
    68ee:	e8 22 88 00 00       	call   f115 <_Z11rand_uint64v>
    68f3:	8b 55 e0             	mov    -0x20(%rbp),%edx
    68f6:	48 63 d2             	movslq %edx,%rdx
    68f9:	48 8d 0c d5 00 00 00 	lea    0x0(,%rdx,8),%rcx
    6900:	00 
    6901:	48 8d 15 18 85 0e 00 	lea    0xe8518(%rip),%rdx        # eee20 <ep_keys>
    6908:	48 89 04 11          	mov    %rax,(%rcx,%rdx,1)
    690c:	ff 45 e0             	incl   -0x20(%rbp)
    690f:	83 7d e0 3f          	cmpl   $0x3f,-0x20(%rbp)
    6913:	7e d9                	jle    68ee <_Z9init_keysv+0xcf>
    6915:	90                   	nop
    6916:	90                   	nop
    6917:	c9                   	leave
    6918:	c3                   	ret

0000000000006919 <_Z5resetP7board_t>:
    6919:	55                   	push   %rbp
    691a:	48 89 e5             	mov    %rsp,%rbp
    691d:	48 83 ec 50          	sub    $0x50,%rsp
    6921:	48 89 7d b8          	mov    %rdi,-0x48(%rbp)
    6925:	64 48 8b 04 25 28 00 	mov    %fs:0x28,%rax
    692c:	00 00 
    692e:	48 89 45 f8          	mov    %rax,-0x8(%rbp)
    6932:	31 c0                	xor    %eax,%eax
    6934:	c7 45 c8 00 00 00 00 	movl   $0x0,-0x38(%rbp)
    693b:	eb 68                	jmp    69a5 <_Z5resetP7board_t+0x8c>
    693d:	c7 45 d0 00 00 00 00 	movl   $0x0,-0x30(%rbp)
    6944:	c7 45 d4 00 00 00 00 	movl   $0x0,-0x2c(%rbp)
    694b:	c7 45 d8 40 00 00 00 	movl   $0x40,-0x28(%rbp)
    6952:	c7 45 dc 00 00 00 00 	movl   $0x0,-0x24(%rbp)
    6959:	48 c7 45 e0 00 00 00 	movq   $0x0,-0x20(%rbp)
    6960:	00 
    6961:	c7 45 e8 00 00 00 00 	movl   $0x0,-0x18(%rbp)
    6968:	8b 45 c8             	mov    -0x38(%rbp),%eax
    696b:	48 98                	cltq
    696d:	48 83 c0 0d          	add    $0xd,%rax
    6971:	48 c1 e0 05          	shl    $0x5,%rax
    6975:	48 89 c2             	mov    %rax,%rdx
    6978:	48 8b 45 b8          	mov    -0x48(%rbp),%rax
    697c:	48 01 d0             	add    %rdx,%rax
    697f:	48 8d 48 10          	lea    0x10(%rax),%rcx
    6983:	48 8b 45 d0          	mov    -0x30(%rbp),%rax
    6987:	48 8b 55 d8          	mov    -0x28(%rbp),%rdx
    698b:	48 89 01             	mov    %rax,(%rcx)
    698e:	48 89 51 08          	mov    %rdx,0x8(%rcx)
    6992:	48 8b 45 dc          	mov    -0x24(%rbp),%rax
    6996:	48 8b 55 e4          	mov    -0x1c(%rbp),%rdx
    699a:	48 89 41 0c          	mov    %rax,0xc(%rcx)
    699e:	48 89 51 14          	mov    %rdx,0x14(%rcx)
    69a2:	ff 45 c8             	incl   -0x38(%rbp)
    69a5:	81 7d c8 ff 07 00 00 	cmpl   $0x7ff,-0x38(%rbp)
    69ac:	7e 8f                	jle    693d <_Z5resetP7board_t+0x24>
    69ae:	48 8b 45 b8          	mov    -0x48(%rbp),%rax
    69b2:	48 83 c0 78          	add    $0x78,%rax
    69b6:	ba 00 01 00 00       	mov    $0x100,%edx
    69bb:	be 00 00 00 00       	mov    $0x0,%esi
    69c0:	48 89 c7             	mov    %rax,%rdi
    69c3:	e8 48 c7 ff ff       	call   3110 <memset@plt>
    69c8:	c7 45 cc 00 00 00 00 	movl   $0x0,-0x34(%rbp)
    69cf:	eb 14                	jmp    69e5 <_Z5resetP7board_t+0xcc>
    69d1:	48 8b 55 b8          	mov    -0x48(%rbp),%rdx
    69d5:	8b 45 cc             	mov    -0x34(%rbp),%eax
    69d8:	48 98                	cltq
    69da:	48 c7 04 c2 00 00 00 	movq   $0x0,(%rdx,%rax,8)
    69e1:	00 
    69e2:	ff 45 cc             	incl   -0x34(%rbp)
    69e5:	83 7d cc 0e          	cmpl   $0xe,-0x34(%rbp)
    69e9:	7e e6                	jle    69d1 <_Z5resetP7board_t+0xb8>
    69eb:	48 8b 45 b8          	mov    -0x48(%rbp),%rax
    69ef:	48 c7 80 80 01 00 00 	movq   $0x0,0x180(%rax)
    69f6:	00 00 00 00 
    69fa:	48 8b 45 b8          	mov    -0x48(%rbp),%rax
    69fe:	48 8b 90 80 01 00 00 	mov    0x180(%rax),%rdx
    6a05:	48 8b 45 b8          	mov    -0x48(%rbp),%rax
    6a09:	48 89 90 78 01 00 00 	mov    %rdx,0x178(%rax)
    6a10:	48 8b 45 b8          	mov    -0x48(%rbp),%rax
    6a14:	c7 80 88 01 00 00 02 	movl   $0x2,0x188(%rax)
    6a1b:	00 00 00 
    6a1e:	48 8b 45 b8          	mov    -0x48(%rbp),%rax
    6a22:	c7 80 9c 01 00 00 40 	movl   $0x40,0x19c(%rax)
    6a29:	00 00 00 
    6a2c:	48 8b 45 b8          	mov    -0x48(%rbp),%rax
    6a30:	c7 80 8c 01 00 00 00 	movl   $0x0,0x18c(%rax)
    6a37:	00 00 00 
    6a3a:	48 8b 45 b8          	mov    -0x48(%rbp),%rax
    6a3e:	c7 80 90 01 00 00 00 	movl   $0x0,0x190(%rax)
    6a45:	00 00 00 
    6a48:	48 8b 45 b8          	mov    -0x48(%rbp),%rax
    6a4c:	c7 80 94 01 00 00 00 	movl   $0x0,0x194(%rax)
    6a53:	00 00 00 
    6a56:	48 8b 45 b8          	mov    -0x48(%rbp),%rax
    6a5a:	c7 80 98 01 00 00 00 	movl   $0x0,0x198(%rax)
    6a61:	00 00 00 
    6a64:	48 8b 45 b8          	mov    -0x48(%rbp),%rax
    6a68:	48 c7 80 a8 01 00 00 	movq   $0x0,0x1a8(%rax)
    6a6f:	00 00 00 00 
    6a73:	48 8b 45 b8          	mov    -0x48(%rbp),%rax
    6a77:	c7 80 a0 01 00 00 40 	movl   $0x40,0x1a0(%rax)
    6a7e:	00 00 00 
    6a81:	48 8b 45 b8          	mov    -0x48(%rbp),%rax
    6a85:	8b 90 a0 01 00 00    	mov    0x1a0(%rax),%edx
    6a8b:	48 8b 45 b8          	mov    -0x48(%rbp),%rax
    6a8f:	89 90 a4 01 00 00    	mov    %edx,0x1a4(%rax)
    6a95:	90                   	nop
    6a96:	48 8b 45 f8          	mov    -0x8(%rbp),%rax
    6a9a:	64 48 2b 04 25 28 00 	sub    %fs:0x28,%rax
    6aa1:	00 00 
    6aa3:	74 05                	je     6aaa <_Z5resetP7board_t+0x191>
    6aa5:	e8 f6 c7 ff ff       	call   32a0 <__stack_chk_fail@plt>
    6aaa:	c9                   	leave
    6aab:	c3                   	ret

0000000000006aac <_Z5setupP7board_tRKNSt7__cxx1112basic_stringIcSt11char_traitsIcESaIcEEE>:
    6aac:	55                   	push   %rbp
    6aad:	48 89 e5             	mov    %rsp,%rbp
    6ab0:	41 54                	push   %r12
    6ab2:	53                   	push   %rbx
    6ab3:	48 81 ec 00 01 00 00 	sub    $0x100,%rsp
    6aba:	48 89 bd f8 fe ff ff 	mov    %rdi,-0x108(%rbp)
    6ac1:	48 89 b5 f0 fe ff ff 	mov    %rsi,-0x110(%rbp)
    6ac8:	64 48 8b 04 25 28 00 	mov    %fs:0x28,%rax
    6acf:	00 00 
    6ad1:	48 89 45 e8          	mov    %rax,-0x18(%rbp)
    6ad5:	31 c0                	xor    %eax,%eax
    6ad7:	48 8d 85 20 ff ff ff 	lea    -0xe0(%rbp),%rax
    6ade:	bb 05 00 00 00       	mov    $0x5,%ebx
    6ae3:	49 89 c4             	mov    %rax,%r12
    6ae6:	eb 0f                	jmp    6af7 <_Z5setupP7board_tRKNSt7__cxx1112basic_stringIcSt11char_traitsIcESaIcEEE+0x4b>
    6ae8:	4c 89 e7             	mov    %r12,%rdi
    6aeb:	e8 50 c8 ff ff       	call   3340 <_ZNSt7__cxx1112basic_stringIcSt11char_traitsIcESaIcEEC1Ev@plt>
    6af0:	48 ff cb             	dec    %rbx
    6af3:	49 83 c4 20          	add    $0x20,%r12
    6af7:	48 85 db             	test   %rbx,%rbx
    6afa:	79 ec                	jns    6ae8 <_Z5setupP7board_tRKNSt7__cxx1112basic_stringIcSt11char_traitsIcESaIcEEE+0x3c>
    6afc:	c7 85 04 ff ff ff 00 	movl   $0x0,-0xfc(%rbp)
    6b03:	00 00 00 
    6b06:	48 c7 85 18 ff ff ff 	movq   $0x0,-0xe8(%rbp)
    6b0d:	00 00 00 00 
    6b11:	eb 74                	jmp    6b87 <_Z5setupP7board_tRKNSt7__cxx1112basic_stringIcSt11char_traitsIcESaIcEEE+0xdb>
    6b13:	48 8b 95 18 ff ff ff 	mov    -0xe8(%rbp),%rdx
    6b1a:	48 8b 85 f0 fe ff ff 	mov    -0x110(%rbp),%rax
    6b21:	48 89 d6             	mov    %rdx,%rsi
    6b24:	48 89 c7             	mov    %rax,%rdi
    6b27:	e8 54 c7 ff ff       	call   3280 <_ZNKSt7__cxx1112basic_stringIcSt11char_traitsIcESaIcEEixEm@plt>
    6b2c:	0f b6 00             	movzbl (%rax),%eax
    6b2f:	3c 20                	cmp    $0x20,%al
    6b31:	0f 94 c0             	sete   %al
    6b34:	84 c0                	test   %al,%al
    6b36:	74 08                	je     6b40 <_Z5setupP7board_tRKNSt7__cxx1112basic_stringIcSt11char_traitsIcESaIcEEE+0x94>
    6b38:	ff 85 04 ff ff ff    	incl   -0xfc(%rbp)
    6b3e:	eb 40                	jmp    6b80 <_Z5setupP7board_tRKNSt7__cxx1112basic_stringIcSt11char_traitsIcESaIcEEE+0xd4>
    6b40:	48 8b 95 18 ff ff ff 	mov    -0xe8(%rbp),%rdx
    6b47:	48 8b 85 f0 fe ff ff 	mov    -0x110(%rbp),%rax
    6b4e:	48 89 d6             	mov    %rdx,%rsi
    6b51:	48 89 c7             	mov    %rax,%rdi
    6b54:	e8 27 c7 ff ff       	call   3280 <_ZNKSt7__cxx1112basic_stringIcSt11char_traitsIcESaIcEEixEm@plt>
    6b59:	0f b6 00             	movzbl (%rax),%eax
    6b5c:	0f be c0             	movsbl %al,%eax
    6b5f:	48 8d 95 20 ff ff ff 	lea    -0xe0(%rbp),%rdx
    6b66:	8b 8d 04 ff ff ff    	mov    -0xfc(%rbp),%ecx
    6b6c:	48 63 c9             	movslq %ecx,%rcx
    6b6f:	48 c1 e1 05          	shl    $0x5,%rcx
    6b73:	48 01 ca             	add    %rcx,%rdx
    6b76:	89 c6                	mov    %eax,%esi
    6b78:	48 89 d7             	mov    %rdx,%rdi
    6b7b:	e8 c0 c5 ff ff       	call   3140 <_ZNSt7__cxx1112basic_stringIcSt11char_traitsIcESaIcEEpLEc@plt>
    6b80:	48 ff 85 18 ff ff ff 	incq   -0xe8(%rbp)
    6b87:	48 8b 85 f0 fe ff ff 	mov    -0x110(%rbp),%rax
    6b8e:	48 89 c7             	mov    %rax,%rdi
    6b91:	e8 ea c5 ff ff       	call   3180 <_ZNKSt7__cxx1112basic_stringIcSt11char_traitsIcESaIcEE4sizeEv@plt>
    6b96:	48 39 85 18 ff ff ff 	cmp    %rax,-0xe8(%rbp)
    6b9d:	0f 92 c0             	setb   %al
    6ba0:	84 c0                	test   %al,%al
    6ba2:	0f 85 6b ff ff ff    	jne    6b13 <_Z5setupP7board_tRKNSt7__cxx1112basic_stringIcSt11char_traitsIcESaIcEEE+0x67>
    6ba8:	48 8b 85 f8 fe ff ff 	mov    -0x108(%rbp),%rax
    6baf:	48 89 c7             	mov    %rax,%rdi
    6bb2:	e8 62 fd ff ff       	call   6919 <_Z5resetP7board_t>
    6bb7:	c7 85 08 ff ff ff 38 	movl   $0x38,-0xf8(%rbp)
    6bbe:	00 00 00 
    6bc1:	48 c7 85 18 ff ff ff 	movq   $0x0,-0xe8(%rbp)
    6bc8:	00 00 00 00 
    6bcc:	e9 38 01 00 00       	jmp    6d09 <_Z5setupP7board_tRKNSt7__cxx1112basic_stringIcSt11char_traitsIcESaIcEEE+0x25d>
    6bd1:	48 8b 95 18 ff ff ff 	mov    -0xe8(%rbp),%rdx
    6bd8:	48 8d 85 20 ff ff ff 	lea    -0xe0(%rbp),%rax
    6bdf:	48 89 d6             	mov    %rdx,%rsi
    6be2:	48 89 c7             	mov    %rax,%rdi
    6be5:	e8 36 c8 ff ff       	call   3420 <_ZNSt7__cxx1112basic_stringIcSt11char_traitsIcESaIcEEixEm@plt>
    6bea:	0f b6 00             	movzbl (%rax),%eax
    6bed:	88 85 03 ff ff ff    	mov    %al,-0xfd(%rbp)
    6bf3:	0f b6 85 03 ff ff ff 	movzbl -0xfd(%rbp),%eax
    6bfa:	3c 2f                	cmp    $0x2f,%al
    6bfc:	75 0c                	jne    6c0a <_Z5setupP7board_tRKNSt7__cxx1112basic_stringIcSt11char_traitsIcESaIcEEE+0x15e>
    6bfe:	83 ad 08 ff ff ff 10 	subl   $0x10,-0xf8(%rbp)
    6c05:	e9 f8 00 00 00       	jmp    6d02 <_Z5setupP7board_tRKNSt7__cxx1112basic_stringIcSt11char_traitsIcESaIcEEE+0x256>
    6c0a:	0f b6 85 03 ff ff ff 	movzbl -0xfd(%rbp),%eax
    6c11:	0f be c0             	movsbl %al,%eax
    6c14:	83 e8 30             	sub    $0x30,%eax
    6c17:	83 f8 09             	cmp    $0x9,%eax
    6c1a:	0f 96 c0             	setbe  %al
    6c1d:	0f b6 c0             	movzbl %al,%eax
    6c20:	85 c0                	test   %eax,%eax
    6c22:	74 18                	je     6c3c <_Z5setupP7board_tRKNSt7__cxx1112basic_stringIcSt11char_traitsIcESaIcEEE+0x190>
    6c24:	0f b6 85 03 ff ff ff 	movzbl -0xfd(%rbp),%eax
    6c2b:	0f be c0             	movsbl %al,%eax
    6c2e:	83 e8 30             	sub    $0x30,%eax
    6c31:	01 85 08 ff ff ff    	add    %eax,-0xf8(%rbp)
    6c37:	e9 c6 00 00 00       	jmp    6d02 <_Z5setupP7board_tRKNSt7__cxx1112basic_stringIcSt11char_traitsIcESaIcEEE+0x256>
    6c3c:	48 8d 85 03 ff ff ff 	lea    -0xfd(%rbp),%rax
    6c43:	48 89 c6             	mov    %rax,%rsi
    6c46:	48 8d 05 33 5c 0e 00 	lea    0xe5c33(%rip),%rax        # ec880 <char_to_piece>
    6c4d:	48 89 c7             	mov    %rax,%rdi
    6c50:	e8 85 3c 00 00       	call   a8da <_ZNSt13unordered_mapIciSt4hashIcESt8equal_toIcESaISt4pairIKciEEEixERS5_>
    6c55:	8b 00                	mov    (%rax),%eax
    6c57:	89 85 14 ff ff ff    	mov    %eax,-0xec(%rbp)
    6c5d:	48 8b 95 f8 fe ff ff 	mov    -0x108(%rbp),%rdx
    6c64:	8b 85 14 ff ff ff    	mov    -0xec(%rbp),%eax
    6c6a:	48 98                	cltq
    6c6c:	48 8b 14 c2          	mov    (%rdx,%rax,8),%rdx
    6c70:	8b 85 08 ff ff ff    	mov    -0xf8(%rbp),%eax
    6c76:	b9 01 00 00 00       	mov    $0x1,%ecx
    6c7b:	c4 e2 f9 f7 c1       	shlx   %rax,%rcx,%rax
    6c80:	48 89 d1             	mov    %rdx,%rcx
    6c83:	48 09 c1             	or     %rax,%rcx
    6c86:	48 8b 95 f8 fe ff ff 	mov    -0x108(%rbp),%rdx
    6c8d:	8b 85 14 ff ff ff    	mov    -0xec(%rbp),%eax
    6c93:	48 98                	cltq
    6c95:	48 89 0c c2          	mov    %rcx,(%rdx,%rax,8)
    6c99:	8b 85 14 ff ff ff    	mov    -0xec(%rbp),%eax
    6c9f:	89 c7                	mov    %eax,%edi
    6ca1:	e8 1b 37 00 00       	call   a3c1 <_Z11piece_colori>
    6ca6:	48 8b 95 f8 fe ff ff 	mov    -0x108(%rbp),%rdx
    6cad:	48 63 c8             	movslq %eax,%rcx
    6cb0:	48 83 c1 2c          	add    $0x2c,%rcx
    6cb4:	48 8b 4c ca 18       	mov    0x18(%rdx,%rcx,8),%rcx
    6cb9:	8b 95 08 ff ff ff    	mov    -0xf8(%rbp),%edx
    6cbf:	be 01 00 00 00       	mov    $0x1,%esi
    6cc4:	c4 e2 e9 f7 d6       	shlx   %rdx,%rsi,%rdx
    6cc9:	48 09 d1             	or     %rdx,%rcx
    6ccc:	48 8b 95 f8 fe ff ff 	mov    -0x108(%rbp),%rdx
    6cd3:	48 98                	cltq
    6cd5:	48 83 c0 2c          	add    $0x2c,%rax
    6cd9:	48 89 4c c2 18       	mov    %rcx,0x18(%rdx,%rax,8)
    6cde:	48 8b 85 f8 fe ff ff 	mov    -0x108(%rbp),%rax
    6ce5:	8b 95 08 ff ff ff    	mov    -0xf8(%rbp),%edx
    6ceb:	48 63 d2             	movslq %edx,%rdx
    6cee:	48 83 c2 18          	add    $0x18,%rdx
    6cf2:	8b 8d 14 ff ff ff    	mov    -0xec(%rbp),%ecx
    6cf8:	89 4c 90 18          	mov    %ecx,0x18(%rax,%rdx,4)
    6cfc:	ff 85 08 ff ff ff    	incl   -0xf8(%rbp)
    6d02:	48 ff 85 18 ff ff ff 	incq   -0xe8(%rbp)
    6d09:	48 8d 85 20 ff ff ff 	lea    -0xe0(%rbp),%rax
    6d10:	48 89 c7             	mov    %rax,%rdi
    6d13:	e8 68 c4 ff ff       	call   3180 <_ZNKSt7__cxx1112basic_stringIcSt11char_traitsIcESaIcEE4sizeEv@plt>
    6d18:	48 39 85 18 ff ff ff 	cmp    %rax,-0xe8(%rbp)
    6d1f:	0f 92 c0             	setb   %al
    6d22:	84 c0                	test   %al,%al
    6d24:	0f 85 a7 fe ff ff    	jne    6bd1 <_Z5setupP7board_tRKNSt7__cxx1112basic_stringIcSt11char_traitsIcESaIcEEE+0x125>
    6d2a:	48 8b 85 f8 fe ff ff 	mov    -0x108(%rbp),%rax
    6d31:	48 8b 40 30          	mov    0x30(%rax),%rax
    6d35:	f3 48 0f b8 c0       	popcnt %rax,%rax
    6d3a:	89 c2                	mov    %eax,%edx
    6d3c:	48 8b 85 f8 fe ff ff 	mov    -0x108(%rbp),%rax
    6d43:	48 8b 40 70          	mov    0x70(%rax),%rax
    6d47:	f3 48 0f b8 c0       	popcnt %rax,%rax
    6d4c:	39 c2                	cmp    %eax,%edx
    6d4e:	0f 84 9b 00 00 00    	je     6def <_Z5setupP7board_tRKNSt7__cxx1112basic_stringIcSt11char_traitsIcESaIcEEE+0x343>
    6d54:	48 8d 05 8d aa 00 00 	lea    0xaa8d(%rip),%rax        # 117e8 <_ZL9BORDER_SQ+0x8>
    6d5b:	48 89 c6             	mov    %rax,%rsi
    6d5e:	48 8d 05 bd aa 00 00 	lea    0xaabd(%rip),%rax        # 11822 <_ZL9BORDER_SQ+0x42>
    6d65:	48 89 c7             	mov    %rax,%rdi
    6d68:	b8 00 00 00 00       	mov    $0x0,%eax
    6d6d:	e8 de c2 ff ff       	call   3050 <printf@plt>
    6d72:	48 8d 05 b6 aa 00 00 	lea    0xaab6(%rip),%rax        # 1182f <_ZL9BORDER_SQ+0x4f>
    6d79:	48 89 c6             	mov    %rax,%rsi
    6d7c:	48 8d 05 b8 aa 00 00 	lea    0xaab8(%rip),%rax        # 1183b <_ZL9BORDER_SQ+0x5b>
    6d83:	48 89 c7             	mov    %rax,%rdi
    6d86:	b8 00 00 00 00       	mov    $0x0,%eax
    6d8b:	e8 c0 c2 ff ff       	call   3050 <printf@plt>
    6d90:	48 8d 05 ab aa 00 00 	lea    0xaaab(%rip),%rax        # 11842 <_ZL9BORDER_SQ+0x62>
    6d97:	48 89 c6             	mov    %rax,%rsi
    6d9a:	48 8d 05 aa aa 00 00 	lea    0xaaaa(%rip),%rax        # 1184b <_ZL9BORDER_SQ+0x6b>
    6da1:	48 89 c7             	mov    %rax,%rdi
    6da4:	b8 00 00 00 00       	mov    $0x0,%eax
    6da9:	e8 a2 c2 ff ff       	call   3050 <printf@plt>
    6dae:	48 8d 05 9d aa 00 00 	lea    0xaa9d(%rip),%rax        # 11852 <_ZL9BORDER_SQ+0x72>
    6db5:	48 89 c6             	mov    %rax,%rsi
    6db8:	48 8d 05 a1 aa 00 00 	lea    0xaaa1(%rip),%rax        # 11860 <_ZL9BORDER_SQ+0x80>
    6dbf:	48 89 c7             	mov    %rax,%rdi
    6dc2:	b8 00 00 00 00       	mov    $0x0,%eax
    6dc7:	e8 84 c2 ff ff       	call   3050 <printf@plt>
    6dcc:	be 8b 00 00 00       	mov    $0x8b,%esi
    6dd1:	48 8d 05 94 aa 00 00 	lea    0xaa94(%rip),%rax        # 1186c <_ZL9BORDER_SQ+0x8c>
    6dd8:	48 89 c7             	mov    %rax,%rdi
    6ddb:	b8 00 00 00 00       	mov    $0x0,%eax
    6de0:	e8 6b c2 ff ff       	call   3050 <printf@plt>
    6de5:	bf 01 00 00 00       	mov    $0x1,%edi
    6dea:	e8 e1 c4 ff ff       	call   32d0 <exit@plt>
    6def:	48 8b 85 f8 fe ff ff 	mov    -0x108(%rbp),%rax
    6df6:	48 8b 40 30          	mov    0x30(%rax),%rax
    6dfa:	48 89 c7             	mov    %rax,%rdi
    6dfd:	e8 cd f2 ff ff       	call   60cf <_Z16bit_scan_forwardm>
    6e02:	48 8b 95 f8 fe ff ff 	mov    -0x108(%rbp),%rdx
    6e09:	89 82 a4 01 00 00    	mov    %eax,0x1a4(%rdx)
    6e0f:	48 8b 85 f8 fe ff ff 	mov    -0x108(%rbp),%rax
    6e16:	48 8b 40 70          	mov    0x70(%rax),%rax
    6e1a:	48 89 c7             	mov    %rax,%rdi
    6e1d:	e8 ad f2 ff ff       	call   60cf <_Z16bit_scan_forwardm>
    6e22:	48 8b 95 f8 fe ff ff 	mov    -0x108(%rbp),%rdx
    6e29:	89 82 a0 01 00 00    	mov    %eax,0x1a0(%rdx)
    6e2f:	48 8d 85 20 ff ff ff 	lea    -0xe0(%rbp),%rax
    6e36:	48 83 c0 20          	add    $0x20,%rax
    6e3a:	48 8d 15 37 aa 00 00 	lea    0xaa37(%rip),%rdx        # 11878 <_ZL9BORDER_SQ+0x98>
    6e41:	48 89 d6             	mov    %rdx,%rsi
    6e44:	48 89 c7             	mov    %rax,%rdi
    6e47:	e8 b3 3a 00 00       	call   a8ff <_ZSteqIcSt11char_traitsIcESaIcEEbRKNSt7__cxx1112basic_stringIT_T0_T1_EEPKS5_>
    6e4c:	84 c0                	test   %al,%al
    6e4e:	74 07                	je     6e57 <_Z5setupP7board_tRKNSt7__cxx1112basic_stringIcSt11char_traitsIcESaIcEEE+0x3ab>
    6e50:	ba 01 00 00 00       	mov    $0x1,%edx
    6e55:	eb 05                	jmp    6e5c <_Z5setupP7board_tRKNSt7__cxx1112basic_stringIcSt11char_traitsIcESaIcEEE+0x3b0>
    6e57:	ba 00 00 00 00       	mov    $0x0,%edx
    6e5c:	48 8b 85 f8 fe ff ff 	mov    -0x108(%rbp),%rax
    6e63:	89 90 88 01 00 00    	mov    %edx,0x188(%rax)
    6e69:	48 8b 85 f8 fe ff ff 	mov    -0x108(%rbp),%rax
    6e70:	c7 80 94 01 00 00 00 	movl   $0x0,0x194(%rax)
    6e77:	00 00 00 
    6e7a:	48 8d 85 20 ff ff ff 	lea    -0xe0(%rbp),%rax
    6e81:	48 83 c0 40          	add    $0x40,%rax
    6e85:	48 8d 15 ee a9 00 00 	lea    0xa9ee(%rip),%rdx        # 1187a <_ZL9BORDER_SQ+0x9a>
    6e8c:	48 89 d6             	mov    %rdx,%rsi
    6e8f:	48 89 c7             	mov    %rax,%rdi
    6e92:	e8 df 3a 00 00       	call   a976 <_ZStneIcSt11char_traitsIcESaIcEEbRKNSt7__cxx1112basic_stringIT_T0_T1_EEPKS5_>
    6e97:	84 c0                	test   %al,%al
    6e99:	0f 84 1c 01 00 00    	je     6fbb <_Z5setupP7board_tRKNSt7__cxx1112basic_stringIcSt11char_traitsIcESaIcEEE+0x50f>
    6e9f:	48 8d 85 20 ff ff ff 	lea    -0xe0(%rbp),%rax
    6ea6:	48 83 c0 40          	add    $0x40,%rax
    6eaa:	ba 00 00 00 00       	mov    $0x0,%edx
    6eaf:	be 4b 00 00 00       	mov    $0x4b,%esi
    6eb4:	48 89 c7             	mov    %rax,%rdi
    6eb7:	e8 54 c4 ff ff       	call   3310 <_ZNKSt7__cxx1112basic_stringIcSt11char_traitsIcESaIcEE4findEcm@plt>
    6ebc:	48 83 f8 ff          	cmp    $0xffffffffffffffff,%rax
    6ec0:	0f 95 c0             	setne  %al
    6ec3:	84 c0                	test   %al,%al
    6ec5:	74 1f                	je     6ee6 <_Z5setupP7board_tRKNSt7__cxx1112basic_stringIcSt11char_traitsIcESaIcEEE+0x43a>
    6ec7:	48 8b 85 f8 fe ff ff 	mov    -0x108(%rbp),%rax
    6ece:	8b 80 94 01 00 00    	mov    0x194(%rax),%eax
    6ed4:	83 c8 01             	or     $0x1,%eax
    6ed7:	89 c2                	mov    %eax,%edx
    6ed9:	48 8b 85 f8 fe ff ff 	mov    -0x108(%rbp),%rax
    6ee0:	89 90 94 01 00 00    	mov    %edx,0x194(%rax)
    6ee6:	48 8d 85 20 ff ff ff 	lea    -0xe0(%rbp),%rax
    6eed:	48 83 c0 40          	add    $0x40,%rax
    6ef1:	ba 00 00 00 00       	mov    $0x0,%edx
    6ef6:	be 51 00 00 00       	mov    $0x51,%esi
    6efb:	48 89 c7             	mov    %rax,%rdi
    6efe:	e8 0d c4 ff ff       	call   3310 <_ZNKSt7__cxx1112basic_stringIcSt11char_traitsIcESaIcEE4findEcm@plt>
    6f03:	48 83 f8 ff          	cmp    $0xffffffffffffffff,%rax
    6f07:	0f 95 c0             	setne  %al
    6f0a:	84 c0                	test   %al,%al
    6f0c:	74 1f                	je     6f2d <_Z5setupP7board_tRKNSt7__cxx1112basic_stringIcSt11char_traitsIcESaIcEEE+0x481>
    6f0e:	48 8b 85 f8 fe ff ff 	mov    -0x108(%rbp),%rax
    6f15:	8b 80 94 01 00 00    	mov    0x194(%rax),%eax
    6f1b:	83 c8 02             	or     $0x2,%eax
    6f1e:	89 c2                	mov    %eax,%edx
    6f20:	48 8b 85 f8 fe ff ff 	mov    -0x108(%rbp),%rax
    6f27:	89 90 94 01 00 00    	mov    %edx,0x194(%rax)
    6f2d:	48 8d 85 20 ff ff ff 	lea    -0xe0(%rbp),%rax
    6f34:	48 83 c0 40          	add    $0x40,%rax
    6f38:	ba 00 00 00 00       	mov    $0x0,%edx
    6f3d:	be 6b 00 00 00       	mov    $0x6b,%esi
    6f42:	48 89 c7             	mov    %rax,%rdi
    6f45:	e8 c6 c3 ff ff       	call   3310 <_ZNKSt7__cxx1112basic_stringIcSt11char_traitsIcESaIcEE4findEcm@plt>
    6f4a:	48 83 f8 ff          	cmp    $0xffffffffffffffff,%rax
    6f4e:	0f 95 c0             	setne  %al
    6f51:	84 c0                	test   %al,%al
    6f53:	74 1f                	je     6f74 <_Z5setupP7board_tRKNSt7__cxx1112basic_stringIcSt11char_traitsIcESaIcEEE+0x4c8>
    6f55:	48 8b 85 f8 fe ff ff 	mov    -0x108(%rbp),%rax
    6f5c:	8b 80 94 01 00 00    	mov    0x194(%rax),%eax
    6f62:	83 c8 04             	or     $0x4,%eax
    6f65:	89 c2                	mov    %eax,%edx
    6f67:	48 8b 85 f8 fe ff ff 	mov    -0x108(%rbp),%rax
    6f6e:	89 90 94 01 00 00    	mov    %edx,0x194(%rax)
    6f74:	48 8d 85 20 ff ff ff 	lea    -0xe0(%rbp),%rax
    6f7b:	48 83 c0 40          	add    $0x40,%rax
    6f7f:	ba 00 00 00 00       	mov    $0x0,%edx
    6f84:	be 71 00 00 00       	mov    $0x71,%esi
    6f89:	48 89 c7             	mov    %rax,%rdi
    6f8c:	e8 7f c3 ff ff       	call   3310 <_ZNKSt7__cxx1112basic_stringIcSt11char_traitsIcESaIcEE4findEcm@plt>
    6f91:	48 83 f8 ff          	cmp    $0xffffffffffffffff,%rax
    6f95:	0f 95 c0             	setne  %al
    6f98:	84 c0                	test   %al,%al
    6f9a:	74 1f                	je     6fbb <_Z5setupP7board_tRKNSt7__cxx1112basic_stringIcSt11char_traitsIcESaIcEEE+0x50f>
    6f9c:	48 8b 85 f8 fe ff ff 	mov    -0x108(%rbp),%rax
    6fa3:	8b 80 94 01 00 00    	mov    0x194(%rax),%eax
    6fa9:	83 c8 08             	or     $0x8,%eax
    6fac:	89 c2                	mov    %eax,%edx
    6fae:	48 8b 85 f8 fe ff ff 	mov    -0x108(%rbp),%rax
    6fb5:	89 90 94 01 00 00    	mov    %edx,0x194(%rax)
    6fbb:	48 8d 85 20 ff ff ff 	lea    -0xe0(%rbp),%rax
    6fc2:	48 83 c0 60          	add    $0x60,%rax
    6fc6:	48 8d 15 ad a8 00 00 	lea    0xa8ad(%rip),%rdx        # 1187a <_ZL9BORDER_SQ+0x9a>
    6fcd:	48 89 d6             	mov    %rdx,%rsi
    6fd0:	48 89 c7             	mov    %rax,%rdi
    6fd3:	e8 9e 39 00 00       	call   a976 <_ZStneIcSt11char_traitsIcESaIcEEbRKNSt7__cxx1112basic_stringIT_T0_T1_EEPKS5_>
    6fd8:	84 c0                	test   %al,%al
    6fda:	74 72                	je     704e <_Z5setupP7board_tRKNSt7__cxx1112basic_stringIcSt11char_traitsIcESaIcEEE+0x5a2>
    6fdc:	48 8d 85 20 ff ff ff 	lea    -0xe0(%rbp),%rax
    6fe3:	48 83 c0 60          	add    $0x60,%rax
    6fe7:	be 00 00 00 00       	mov    $0x0,%esi
    6fec:	48 89 c7             	mov    %rax,%rdi
    6fef:	e8 2c c4 ff ff       	call   3420 <_ZNSt7__cxx1112basic_stringIcSt11char_traitsIcESaIcEEixEm@plt>
    6ff4:	0f b6 00             	movzbl (%rax),%eax
    6ff7:	0f be c0             	movsbl %al,%eax
    6ffa:	83 e8 61             	sub    $0x61,%eax
    6ffd:	89 85 0c ff ff ff    	mov    %eax,-0xf4(%rbp)
    7003:	48 8d 85 20 ff ff ff 	lea    -0xe0(%rbp),%rax
    700a:	48 83 c0 60          	add    $0x60,%rax
    700e:	be 01 00 00 00       	mov    $0x1,%esi
    7013:	48 89 c7             	mov    %rax,%rdi
    7016:	e8 05 c4 ff ff       	call   3420 <_ZNSt7__cxx1112basic_stringIcSt11char_traitsIcESaIcEEixEm@plt>
    701b:	0f b6 00             	movzbl (%rax),%eax
    701e:	0f be c0             	movsbl %al,%eax
    7021:	83 e8 31             	sub    $0x31,%eax
    7024:	89 85 10 ff ff ff    	mov    %eax,-0xf0(%rbp)
    702a:	8b 85 10 ff ff ff    	mov    -0xf0(%rbp),%eax
    7030:	8d 14 c5 00 00 00 00 	lea    0x0(,%rax,8),%edx
    7037:	8b 85 0c ff ff ff    	mov    -0xf4(%rbp),%eax
    703d:	01 c2                	add    %eax,%edx
    703f:	48 8b 85 f8 fe ff ff 	mov    -0x108(%rbp),%rax
    7046:	89 90 9c 01 00 00    	mov    %edx,0x19c(%rax)
    704c:	eb 11                	jmp    705f <_Z5setupP7board_tRKNSt7__cxx1112basic_stringIcSt11char_traitsIcESaIcEEE+0x5b3>
    704e:	48 8b 85 f8 fe ff ff 	mov    -0x108(%rbp),%rax
    7055:	c7 80 9c 01 00 00 40 	movl   $0x40,0x19c(%rax)
    705c:	00 00 00 
    705f:	48 8d 85 20 ff ff ff 	lea    -0xe0(%rbp),%rax
    7066:	48 83 e8 80          	sub    $0xffffffffffffff80,%rax
    706a:	48 89 c7             	mov    %rax,%rdi
    706d:	e8 0e c1 ff ff       	call   3180 <_ZNKSt7__cxx1112basic_stringIcSt11char_traitsIcESaIcEE4sizeEv@plt>
    7072:	48 85 c0             	test   %rax,%rax
    7075:	0f 95 c0             	setne  %al
    7078:	84 c0                	test   %al,%al
    707a:	74 2a                	je     70a6 <_Z5setupP7board_tRKNSt7__cxx1112basic_stringIcSt11char_traitsIcESaIcEEE+0x5fa>
    707c:	48 8d 85 20 ff ff ff 	lea    -0xe0(%rbp),%rax
    7083:	48 83 e8 80          	sub    $0xffffffffffffff80,%rax
    7087:	ba 0a 00 00 00       	mov    $0xa,%edx
    708c:	be 00 00 00 00       	mov    $0x0,%esi
    7091:	48 89 c7             	mov    %rax,%rdi
    7094:	e8 f3 31 00 00       	call   a28c <_ZNSt7__cxx114stoiERKNS_12basic_stringIcSt11char_traitsIcESaIcEEEPmi>
    7099:	48 8b 95 f8 fe ff ff 	mov    -0x108(%rbp),%rdx
    70a0:	89 82 8c 01 00 00    	mov    %eax,0x18c(%rdx)
    70a6:	48 8b 85 f8 fe ff ff 	mov    -0x108(%rbp),%rax
    70ad:	48 89 c7             	mov    %rax,%rdi
    70b0:	e8 6c 07 00 00       	call   7821 <_Z16generate_pos_keyPK7board_t>
    70b5:	48 8b 95 f8 fe ff ff 	mov    -0x108(%rbp),%rdx
    70bc:	48 89 82 a8 01 00 00 	mov    %rax,0x1a8(%rdx)
    70c3:	48 8d 9d 20 ff ff ff 	lea    -0xe0(%rbp),%rbx
    70ca:	48 81 c3 c0 00 00 00 	add    $0xc0,%rbx
    70d1:	48 8d 85 20 ff ff ff 	lea    -0xe0(%rbp),%rax
    70d8:	48 39 c3             	cmp    %rax,%rbx
    70db:	74 0e                	je     70eb <_Z5setupP7board_tRKNSt7__cxx1112basic_stringIcSt11char_traitsIcESaIcEEE+0x63f>
    70dd:	48 83 eb 20          	sub    $0x20,%rbx
    70e1:	48 89 df             	mov    %rbx,%rdi
    70e4:	e8 47 c3 ff ff       	call   3430 <_ZNSt7__cxx1112basic_stringIcSt11char_traitsIcESaIcEED1Ev@plt>
    70e9:	eb e6                	jmp    70d1 <_Z5setupP7board_tRKNSt7__cxx1112basic_stringIcSt11char_traitsIcESaIcEEE+0x625>
    70eb:	90                   	nop
    70ec:	90                   	nop
    70ed:	48 8b 45 e8          	mov    -0x18(%rbp),%rax
    70f1:	64 48 2b 04 25 28 00 	sub    %fs:0x28,%rax
    70f8:	00 00 
    70fa:	74 52                	je     714e <_Z5setupP7board_tRKNSt7__cxx1112basic_stringIcSt11char_traitsIcESaIcEEE+0x6a2>
    70fc:	eb 4b                	jmp    7149 <_Z5setupP7board_tRKNSt7__cxx1112basic_stringIcSt11char_traitsIcESaIcEEE+0x69d>
    70fe:	49 89 c4             	mov    %rax,%r12
    7101:	48 8d 9d 20 ff ff ff 	lea    -0xe0(%rbp),%rbx
    7108:	48 81 c3 c0 00 00 00 	add    $0xc0,%rbx
    710f:	48 8d 85 20 ff ff ff 	lea    -0xe0(%rbp),%rax
    7116:	48 39 c3             	cmp    %rax,%rbx
    7119:	74 0e                	je     7129 <_Z5setupP7board_tRKNSt7__cxx1112basic_stringIcSt11char_traitsIcESaIcEEE+0x67d>
    711b:	48 83 eb 20          	sub    $0x20,%rbx
    711f:	48 89 df             	mov    %rbx,%rdi
    7122:	e8 09 c3 ff ff       	call   3430 <_ZNSt7__cxx1112basic_stringIcSt11char_traitsIcESaIcEED1Ev@plt>
    7127:	eb e6                	jmp    710f <_Z5setupP7board_tRKNSt7__cxx1112basic_stringIcSt11char_traitsIcESaIcEEE+0x663>
    7129:	90                   	nop
    712a:	4c 89 e0             	mov    %r12,%rax
    712d:	48 8b 55 e8          	mov    -0x18(%rbp),%rdx
    7131:	64 48 2b 14 25 28 00 	sub    %fs:0x28,%rdx
    7138:	00 00 
    713a:	74 05                	je     7141 <_Z5setupP7board_tRKNSt7__cxx1112basic_stringIcSt11char_traitsIcESaIcEEE+0x695>
    713c:	e8 5f c1 ff ff       	call   32a0 <__stack_chk_fail@plt>
    7141:	48 89 c7             	mov    %rax,%rdi
    7144:	e8 87 c2 ff ff       	call   33d0 <_Unwind_Resume@plt>
    7149:	e8 52 c1 ff ff       	call   32a0 <__stack_chk_fail@plt>
    714e:	48 81 c4 00 01 00 00 	add    $0x100,%rsp
    7155:	5b                   	pop    %rbx
    7156:	41 5c                	pop    %r12
    7158:	5d                   	pop    %rbp
    7159:	c3                   	ret

000000000000715a <_Z5printPK7board_tb>:
    715a:	55                   	push   %rbp
    715b:	48 89 e5             	mov    %rsp,%rbp
    715e:	41 54                	push   %r12
    7160:	53                   	push   %rbx
    7161:	48 81 ec b0 00 00 00 	sub    $0xb0,%rsp
    7168:	48 89 bd 48 ff ff ff 	mov    %rdi,-0xb8(%rbp)
    716f:	89 f0                	mov    %esi,%eax
    7171:	88 85 44 ff ff ff    	mov    %al,-0xbc(%rbp)
    7177:	64 48 8b 04 25 28 00 	mov    %fs:0x28,%rax
    717e:	00 00 
    7180:	48 89 45 e8          	mov    %rax,-0x18(%rbp)
    7184:	31 c0                	xor    %eax,%eax
    7186:	0f b6 05 b3 7e 0e 00 	movzbl 0xe7eb3(%rip),%eax        # ef040 <_ZGVZ5printPK7board_tbE15horizontal_line>
    718d:	84 c0                	test   %al,%al
    718f:	0f 94 c0             	sete   %al
    7192:	84 c0                	test   %al,%al
    7194:	0f 84 93 00 00 00    	je     722d <_Z5printPK7board_tb+0xd3>
    719a:	48 8d 05 9f 7e 0e 00 	lea    0xe7e9f(%rip),%rax        # ef040 <_ZGVZ5printPK7board_tbE15horizontal_line>
    71a1:	48 89 c7             	mov    %rax,%rdi
    71a4:	e8 47 c2 ff ff       	call   33f0 <__cxa_guard_acquire@plt>
    71a9:	85 c0                	test   %eax,%eax
    71ab:	0f 95 c0             	setne  %al
    71ae:	84 c0                	test   %al,%al
    71b0:	74 7b                	je     722d <_Z5printPK7board_tb+0xd3>
    71b2:	41 bc 00 00 00 00    	mov    $0x0,%r12d
    71b8:	48 8d 85 5f ff ff ff 	lea    -0xa1(%rbp),%rax
    71bf:	48 89 85 70 ff ff ff 	mov    %rax,-0x90(%rbp)
    71c6:	90                   	nop
    71c7:	90                   	nop
    71c8:	48 8d 85 5f ff ff ff 	lea    -0xa1(%rbp),%rax
    71cf:	48 89 c2             	mov    %rax,%rdx
    71d2:	48 8d 05 a7 a6 00 00 	lea    0xa6a7(%rip),%rax        # 11880 <_ZL9BORDER_SQ+0xa0>
    71d9:	48 89 c6             	mov    %rax,%rsi
    71dc:	48 8d 05 3d 7e 0e 00 	lea    0xe7e3d(%rip),%rax        # ef020 <_ZZ5printPK7board_tbE15horizontal_line>
    71e3:	48 89 c7             	mov    %rax,%rdi
    71e6:	e8 d9 35 00 00       	call   a7c4 <_ZNSt7__cxx1112basic_stringIcSt11char_traitsIcESaIcEEC1IS3_EEPKcRKS3_>
    71eb:	48 8d 05 16 10 01 00 	lea    0x11016(%rip),%rax        # 18208 <__dso_handle>
    71f2:	48 89 c2             	mov    %rax,%rdx
    71f5:	48 8d 05 24 7e 0e 00 	lea    0xe7e24(%rip),%rax        # ef020 <_ZZ5printPK7board_tbE15horizontal_line>
    71fc:	48 89 c6             	mov    %rax,%rsi
    71ff:	48 8b 05 b2 0d 01 00 	mov    0x10db2(%rip),%rax        # 17fb8 <_ZNSt7__cxx1112basic_stringIcSt11char_traitsIcESaIcEED1Ev@GLIBCXX_3.4.21>
    7206:	48 89 c7             	mov    %rax,%rdi
    7209:	e8 f2 bf ff ff       	call   3200 <__cxa_atexit@plt>
    720e:	48 8d 05 2b 7e 0e 00 	lea    0xe7e2b(%rip),%rax        # ef040 <_ZGVZ5printPK7board_tbE15horizontal_line>
    7215:	48 89 c7             	mov    %rax,%rdi
    7218:	e8 43 bf ff ff       	call   3160 <__cxa_guard_release@plt>
    721d:	48 8d 85 5f ff ff ff 	lea    -0xa1(%rbp),%rax
    7224:	48 89 c7             	mov    %rax,%rdi
    7227:	e8 1c 39 00 00       	call   ab48 <_ZNSt15__new_allocatorIcED1Ev>
    722c:	90                   	nop
    722d:	48 8d 05 ec 7d 0e 00 	lea    0xe7dec(%rip),%rax        # ef020 <_ZZ5printPK7board_tbE15horizontal_line>
    7234:	48 89 c6             	mov    %rax,%rsi
    7237:	48 8d 05 02 14 01 00 	lea    0x11402(%rip),%rax        # 18640 <_ZSt4cout@GLIBCXX_3.4>
    723e:	48 89 c7             	mov    %rax,%rdi
    7241:	e8 ca bf ff ff       	call   3210 <_ZStlsIcSt11char_traitsIcESaIcEERSt13basic_ostreamIT_T0_ES7_RKNSt7__cxx1112basic_stringIS4_S5_T1_EE@plt>
    7246:	48 8b 15 63 0d 01 00 	mov    0x10d63(%rip),%rdx        # 17fb0 <_ZSt4endlIcSt11char_traitsIcEERSt13basic_ostreamIT_T0_ES6_@GLIBCXX_3.4>
    724d:	48 89 d6             	mov    %rdx,%rsi
    7250:	48 89 c7             	mov    %rax,%rdi
    7253:	e8 f8 bf ff ff       	call   3250 <_ZNSolsEPFRSoS_E@plt>
    7258:	c7 85 60 ff ff ff 07 	movl   $0x7,-0xa0(%rbp)
    725f:	00 00 00 
    7262:	e9 40 01 00 00       	jmp    73a7 <_Z5printPK7board_tb+0x24d>
    7267:	8b 85 60 ff ff ff    	mov    -0xa0(%rbp),%eax
    726d:	ff c0                	inc    %eax
    726f:	89 c6                	mov    %eax,%esi
    7271:	48 8d 05 c8 13 01 00 	lea    0x113c8(%rip),%rax        # 18640 <_ZSt4cout@GLIBCXX_3.4>
    7278:	48 89 c7             	mov    %rax,%rdi
    727b:	e8 40 c1 ff ff       	call   33c0 <_ZNSolsEi@plt>
    7280:	48 89 c2             	mov    %rax,%rdx
    7283:	48 8d 05 1a a6 00 00 	lea    0xa61a(%rip),%rax        # 118a4 <_ZL9BORDER_SQ+0xc4>
    728a:	48 89 c6             	mov    %rax,%rsi
    728d:	48 89 d7             	mov    %rdx,%rdi
    7290:	e8 8b bf ff ff       	call   3220 <_ZStlsISt11char_traitsIcEERSt13basic_ostreamIcT_ES5_PKc@plt>
    7295:	c7 85 64 ff ff ff 00 	movl   $0x0,-0x9c(%rbp)
    729c:	00 00 00 
    729f:	e9 9a 00 00 00       	jmp    733e <_Z5printPK7board_tb+0x1e4>
    72a4:	8b 85 60 ff ff ff    	mov    -0xa0(%rbp),%eax
    72aa:	8d 14 c5 00 00 00 00 	lea    0x0(,%rax,8),%edx
    72b1:	8b 85 64 ff ff ff    	mov    -0x9c(%rbp),%eax
    72b7:	01 d0                	add    %edx,%eax
    72b9:	89 85 68 ff ff ff    	mov    %eax,-0x98(%rbp)
    72bf:	c7 85 6c ff ff ff 00 	movl   $0x0,-0x94(%rbp)
    72c6:	00 00 00 
    72c9:	48 8b 85 48 ff ff ff 	mov    -0xb8(%rbp),%rax
    72d0:	8b 95 68 ff ff ff    	mov    -0x98(%rbp),%edx
    72d6:	48 63 d2             	movslq %edx,%rdx
    72d9:	48 83 c2 18          	add    $0x18,%rdx
    72dd:	8b 44 90 18          	mov    0x18(%rax,%rdx,4),%eax
    72e1:	89 85 6c ff ff ff    	mov    %eax,-0x94(%rbp)
    72e7:	48 8d 05 b8 a5 00 00 	lea    0xa5b8(%rip),%rax        # 118a6 <_ZL9BORDER_SQ+0xc6>
    72ee:	48 89 c6             	mov    %rax,%rsi
    72f1:	48 8d 05 48 13 01 00 	lea    0x11348(%rip),%rax        # 18640 <_ZSt4cout@GLIBCXX_3.4>
    72f8:	48 89 c7             	mov    %rax,%rdi
    72fb:	e8 20 bf ff ff       	call   3220 <_ZStlsISt11char_traitsIcEERSt13basic_ostreamIcT_ES5_PKc@plt>
    7300:	48 89 c2             	mov    %rax,%rdx
    7303:	8b 85 6c ff ff ff    	mov    -0x94(%rbp),%eax
    7309:	48 98                	cltq
    730b:	48 8d 0d 0e a3 00 00 	lea    0xa30e(%rip),%rcx        # 11620 <_ZL14piece_to_ascii>
    7312:	0f b6 04 08          	movzbl (%rax,%rcx,1),%eax
    7316:	0f be c0             	movsbl %al,%eax
    7319:	89 c6                	mov    %eax,%esi
    731b:	48 89 d7             	mov    %rdx,%rdi
    731e:	e8 9d bf ff ff       	call   32c0 <_ZStlsISt11char_traitsIcEERSt13basic_ostreamIcT_ES5_c@plt>
    7323:	48 89 c2             	mov    %rax,%rdx
    7326:	48 8d 05 77 a5 00 00 	lea    0xa577(%rip),%rax        # 118a4 <_ZL9BORDER_SQ+0xc4>
    732d:	48 89 c6             	mov    %rax,%rsi
    7330:	48 89 d7             	mov    %rdx,%rdi
    7333:	e8 e8 be ff ff       	call   3220 <_ZStlsISt11char_traitsIcEERSt13basic_ostreamIcT_ES5_PKc@plt>
    7338:	ff 85 64 ff ff ff    	incl   -0x9c(%rbp)
    733e:	83 bd 64 ff ff ff 07 	cmpl   $0x7,-0x9c(%rbp)
    7345:	0f 8e 59 ff ff ff    	jle    72a4 <_Z5printPK7board_tb+0x14a>
    734b:	48 8d 05 57 a5 00 00 	lea    0xa557(%rip),%rax        # 118a9 <_ZL9BORDER_SQ+0xc9>
    7352:	48 89 c6             	mov    %rax,%rsi
    7355:	48 8d 05 e4 12 01 00 	lea    0x112e4(%rip),%rax        # 18640 <_ZSt4cout@GLIBCXX_3.4>
    735c:	48 89 c7             	mov    %rax,%rdi
    735f:	e8 bc be ff ff       	call   3220 <_ZStlsISt11char_traitsIcEERSt13basic_ostreamIcT_ES5_PKc@plt>
    7364:	48 8b 15 45 0c 01 00 	mov    0x10c45(%rip),%rdx        # 17fb0 <_ZSt4endlIcSt11char_traitsIcEERSt13basic_ostreamIT_T0_ES6_@GLIBCXX_3.4>
    736b:	48 89 d6             	mov    %rdx,%rsi
    736e:	48 89 c7             	mov    %rax,%rdi
    7371:	e8 da be ff ff       	call   3250 <_ZNSolsEPFRSoS_E@plt>
    7376:	48 8d 05 a3 7c 0e 00 	lea    0xe7ca3(%rip),%rax        # ef020 <_ZZ5printPK7board_tbE15horizontal_line>
    737d:	48 89 c6             	mov    %rax,%rsi
    7380:	48 8d 05 b9 12 01 00 	lea    0x112b9(%rip),%rax        # 18640 <_ZSt4cout@GLIBCXX_3.4>
    7387:	48 89 c7             	mov    %rax,%rdi
    738a:	e8 81 be ff ff       	call   3210 <_ZStlsIcSt11char_traitsIcESaIcEERSt13basic_ostreamIT_T0_ES7_RKNSt7__cxx1112basic_stringIS4_S5_T1_EE@plt>
    738f:	48 8b 15 1a 0c 01 00 	mov    0x10c1a(%rip),%rdx        # 17fb0 <_ZSt4endlIcSt11char_traitsIcEERSt13basic_ostreamIT_T0_ES6_@GLIBCXX_3.4>
    7396:	48 89 d6             	mov    %rdx,%rsi
    7399:	48 89 c7             	mov    %rax,%rdi
    739c:	e8 af be ff ff       	call   3250 <_ZNSolsEPFRSoS_E@plt>
    73a1:	ff 8d 60 ff ff ff    	decl   -0xa0(%rbp)
    73a7:	83 bd 60 ff ff ff 00 	cmpl   $0x0,-0xa0(%rbp)
    73ae:	0f 89 b3 fe ff ff    	jns    7267 <_Z5printPK7board_tb+0x10d>
    73b4:	48 8d 05 f5 a4 00 00 	lea    0xa4f5(%rip),%rax        # 118b0 <_ZL9BORDER_SQ+0xd0>
    73bb:	48 89 c6             	mov    %rax,%rsi
    73be:	48 8d 05 7b 12 01 00 	lea    0x1127b(%rip),%rax        # 18640 <_ZSt4cout@GLIBCXX_3.4>
    73c5:	48 89 c7             	mov    %rax,%rdi
    73c8:	e8 53 be ff ff       	call   3220 <_ZStlsISt11char_traitsIcEERSt13basic_ostreamIcT_ES5_PKc@plt>
    73cd:	48 8b 15 dc 0b 01 00 	mov    0x10bdc(%rip),%rdx        # 17fb0 <_ZSt4endlIcSt11char_traitsIcEERSt13basic_ostreamIT_T0_ES6_@GLIBCXX_3.4>
    73d4:	48 89 d6             	mov    %rdx,%rsi
    73d7:	48 89 c7             	mov    %rax,%rdi
    73da:	e8 71 be ff ff       	call   3250 <_ZNSolsEPFRSoS_E@plt>
    73df:	0f b6 85 44 ff ff ff 	movzbl -0xbc(%rbp),%eax
    73e6:	83 f0 01             	xor    $0x1,%eax
    73e9:	84 c0                	test   %al,%al
    73eb:	0f 85 0f 04 00 00    	jne    7800 <_Z5printPK7board_tb+0x6a6>
    73f1:	48 8d 05 da a4 00 00 	lea    0xa4da(%rip),%rax        # 118d2 <_ZL9BORDER_SQ+0xf2>
    73f8:	48 89 c6             	mov    %rax,%rsi
    73fb:	48 8d 05 3e 12 01 00 	lea    0x1123e(%rip),%rax        # 18640 <_ZSt4cout@GLIBCXX_3.4>
    7402:	48 89 c7             	mov    %rax,%rdi
    7405:	e8 16 be ff ff       	call   3220 <_ZStlsISt11char_traitsIcEERSt13basic_ostreamIcT_ES5_PKc@plt>
    740a:	48 89 c2             	mov    %rax,%rdx
    740d:	48 8b 85 48 ff ff ff 	mov    -0xb8(%rbp),%rax
    7414:	8b 80 88 01 00 00    	mov    0x188(%rax),%eax
    741a:	85 c0                	test   %eax,%eax
    741c:	74 09                	je     7427 <_Z5printPK7board_tb+0x2cd>
    741e:	48 8d 05 bc a4 00 00 	lea    0xa4bc(%rip),%rax        # 118e1 <_ZL9BORDER_SQ+0x101>
    7425:	eb 07                	jmp    742e <_Z5printPK7board_tb+0x2d4>
    7427:	48 8d 05 b9 a4 00 00 	lea    0xa4b9(%rip),%rax        # 118e7 <_ZL9BORDER_SQ+0x107>
    742e:	48 89 c6             	mov    %rax,%rsi
    7431:	48 89 d7             	mov    %rdx,%rdi
    7434:	e8 e7 bd ff ff       	call   3220 <_ZStlsISt11char_traitsIcEERSt13basic_ostreamIcT_ES5_PKc@plt>
    7439:	48 8b 15 70 0b 01 00 	mov    0x10b70(%rip),%rdx        # 17fb0 <_ZSt4endlIcSt11char_traitsIcEERSt13basic_ostreamIT_T0_ES6_@GLIBCXX_3.4>
    7440:	48 89 d6             	mov    %rdx,%rsi
    7443:	48 89 c7             	mov    %rax,%rdi
    7446:	e8 05 be ff ff       	call   3250 <_ZNSolsEPFRSoS_E@plt>
    744b:	48 8d 05 9b a4 00 00 	lea    0xa49b(%rip),%rax        # 118ed <_ZL9BORDER_SQ+0x10d>
    7452:	48 89 c6             	mov    %rax,%rsi
    7455:	48 8d 05 e4 11 01 00 	lea    0x111e4(%rip),%rax        # 18640 <_ZSt4cout@GLIBCXX_3.4>
    745c:	48 89 c7             	mov    %rax,%rdi
    745f:	e8 bc bd ff ff       	call   3220 <_ZStlsISt11char_traitsIcEERSt13basic_ostreamIcT_ES5_PKc@plt>
    7464:	49 89 c4             	mov    %rax,%r12
    7467:	48 8b 85 48 ff ff ff 	mov    -0xb8(%rbp),%rax
    746e:	8b 80 9c 01 00 00    	mov    0x19c(%rax),%eax
    7474:	bb 00 00 00 00       	mov    $0x0,%ebx
    7479:	83 f8 40             	cmp    $0x40,%eax
    747c:	75 34                	jne    74b2 <_Z5printPK7board_tb+0x358>
    747e:	48 8d 85 5f ff ff ff 	lea    -0xa1(%rbp),%rax
    7485:	48 89 85 78 ff ff ff 	mov    %rax,-0x88(%rbp)
    748c:	90                   	nop
    748d:	90                   	nop
    748e:	bb 01 00 00 00       	mov    $0x1,%ebx
    7493:	48 8d 95 5f ff ff ff 	lea    -0xa1(%rbp),%rdx
    749a:	48 8d 45 c0          	lea    -0x40(%rbp),%rax
    749e:	48 8d 0d 5c a4 00 00 	lea    0xa45c(%rip),%rcx        # 11901 <_ZL9BORDER_SQ+0x121>
    74a5:	48 89 ce             	mov    %rcx,%rsi
    74a8:	48 89 c7             	mov    %rax,%rdi
    74ab:	e8 14 33 00 00       	call   a7c4 <_ZNSt7__cxx1112basic_stringIcSt11char_traitsIcESaIcEEC1IS3_EEPKcRKS3_>
    74b0:	eb 1b                	jmp    74cd <_Z5printPK7board_tb+0x373>
    74b2:	48 8b 85 48 ff ff ff 	mov    -0xb8(%rbp),%rax
    74b9:	8b 90 9c 01 00 00    	mov    0x19c(%rax),%edx
    74bf:	48 8d 45 c0          	lea    -0x40(%rbp),%rax
    74c3:	89 d6                	mov    %edx,%esi
    74c5:	48 89 c7             	mov    %rax,%rdi
    74c8:	e8 34 2e 00 00       	call   a301 <_Z13square_to_strB5cxx11i>
    74cd:	48 8d 45 c0          	lea    -0x40(%rbp),%rax
    74d1:	48 89 c6             	mov    %rax,%rsi
    74d4:	4c 89 e7             	mov    %r12,%rdi
    74d7:	e8 34 bd ff ff       	call   3210 <_ZStlsIcSt11char_traitsIcESaIcEERSt13basic_ostreamIT_T0_ES7_RKNSt7__cxx1112basic_stringIS4_S5_T1_EE@plt>
    74dc:	48 8b 15 cd 0a 01 00 	mov    0x10acd(%rip),%rdx        # 17fb0 <_ZSt4endlIcSt11char_traitsIcEERSt13basic_ostreamIT_T0_ES6_@GLIBCXX_3.4>
    74e3:	48 89 d6             	mov    %rdx,%rsi
    74e6:	48 89 c7             	mov    %rax,%rdi
    74e9:	e8 62 bd ff ff       	call   3250 <_ZNSolsEPFRSoS_E@plt>
    74ee:	48 8d 45 c0          	lea    -0x40(%rbp),%rax
    74f2:	48 89 c7             	mov    %rax,%rdi
    74f5:	e8 36 bf ff ff       	call   3430 <_ZNSt7__cxx1112basic_stringIcSt11char_traitsIcESaIcEED1Ev@plt>
    74fa:	84 db                	test   %bl,%bl
    74fc:	74 10                	je     750e <_Z5printPK7board_tb+0x3b4>
    74fe:	48 8d 85 5f ff ff ff 	lea    -0xa1(%rbp),%rax
    7505:	48 89 c7             	mov    %rax,%rdi
    7508:	e8 3b 36 00 00       	call   ab48 <_ZNSt15__new_allocatorIcED1Ev>
    750d:	90                   	nop
    750e:	48 8d 05 f1 a3 00 00 	lea    0xa3f1(%rip),%rax        # 11906 <_ZL9BORDER_SQ+0x126>
    7515:	48 89 c6             	mov    %rax,%rsi
    7518:	48 8d 05 21 11 01 00 	lea    0x11121(%rip),%rax        # 18640 <_ZSt4cout@GLIBCXX_3.4>
    751f:	48 89 c7             	mov    %rax,%rdi
    7522:	e8 f9 bc ff ff       	call   3220 <_ZStlsISt11char_traitsIcEERSt13basic_ostreamIcT_ES5_PKc@plt>
    7527:	48 8d 45 80          	lea    -0x80(%rbp),%rax
    752b:	48 89 c7             	mov    %rax,%rdi
    752e:	e8 0d be ff ff       	call   3340 <_ZNSt7__cxx1112basic_stringIcSt11char_traitsIcESaIcEEC1Ev@plt>
    7533:	48 8b 85 48 ff ff ff 	mov    -0xb8(%rbp),%rax
    753a:	8b 80 94 01 00 00    	mov    0x194(%rax),%eax
    7540:	83 e0 01             	and    $0x1,%eax
    7543:	85 c0                	test   %eax,%eax
    7545:	74 11                	je     7558 <_Z5printPK7board_tb+0x3fe>
    7547:	48 8d 45 80          	lea    -0x80(%rbp),%rax
    754b:	be 4b 00 00 00       	mov    $0x4b,%esi
    7550:	48 89 c7             	mov    %rax,%rdi
    7553:	e8 98 bc ff ff       	call   31f0 <_ZNSt7__cxx1112basic_stringIcSt11char_traitsIcESaIcEE9push_backEc@plt>
    7558:	48 8b 85 48 ff ff ff 	mov    -0xb8(%rbp),%rax
    755f:	8b 80 94 01 00 00    	mov    0x194(%rax),%eax
    7565:	83 e0 02             	and    $0x2,%eax
    7568:	85 c0                	test   %eax,%eax
    756a:	74 11                	je     757d <_Z5printPK7board_tb+0x423>
    756c:	48 8d 45 80          	lea    -0x80(%rbp),%rax
    7570:	be 51 00 00 00       	mov    $0x51,%esi
    7575:	48 89 c7             	mov    %rax,%rdi
    7578:	e8 73 bc ff ff       	call   31f0 <_ZNSt7__cxx1112basic_stringIcSt11char_traitsIcESaIcEE9push_backEc@plt>
    757d:	48 8b 85 48 ff ff ff 	mov    -0xb8(%rbp),%rax
    7584:	8b 80 94 01 00 00    	mov    0x194(%rax),%eax
    758a:	83 e0 04             	and    $0x4,%eax
    758d:	85 c0                	test   %eax,%eax
    758f:	74 11                	je     75a2 <_Z5printPK7board_tb+0x448>
    7591:	48 8d 45 80          	lea    -0x80(%rbp),%rax
    7595:	be 6b 00 00 00       	mov    $0x6b,%esi
    759a:	48 89 c7             	mov    %rax,%rdi
    759d:	e8 4e bc ff ff       	call   31f0 <_ZNSt7__cxx1112basic_stringIcSt11char_traitsIcESaIcEE9push_backEc@plt>
    75a2:	48 8b 85 48 ff ff ff 	mov    -0xb8(%rbp),%rax
    75a9:	8b 80 94 01 00 00    	mov    0x194(%rax),%eax
    75af:	83 e0 08             	and    $0x8,%eax
    75b2:	85 c0                	test   %eax,%eax
    75b4:	74 11                	je     75c7 <_Z5printPK7board_tb+0x46d>
    75b6:	48 8d 45 80          	lea    -0x80(%rbp),%rax
    75ba:	be 71 00 00 00       	mov    $0x71,%esi
    75bf:	48 89 c7             	mov    %rax,%rdi
    75c2:	e8 29 bc ff ff       	call   31f0 <_ZNSt7__cxx1112basic_stringIcSt11char_traitsIcESaIcEE9push_backEc@plt>
    75c7:	48 8d 45 80          	lea    -0x80(%rbp),%rax
    75cb:	48 89 c6             	mov    %rax,%rsi
    75ce:	48 8d 05 6b 10 01 00 	lea    0x1106b(%rip),%rax        # 18640 <_ZSt4cout@GLIBCXX_3.4>
    75d5:	48 89 c7             	mov    %rax,%rdi
    75d8:	e8 33 bc ff ff       	call   3210 <_ZStlsIcSt11char_traitsIcESaIcEERSt13basic_ostreamIT_T0_ES7_RKNSt7__cxx1112basic_stringIS4_S5_T1_EE@plt>
    75dd:	48 8b 15 cc 09 01 00 	mov    0x109cc(%rip),%rdx        # 17fb0 <_ZSt4endlIcSt11char_traitsIcEERSt13basic_ostreamIT_T0_ES6_@GLIBCXX_3.4>
    75e4:	48 89 d6             	mov    %rdx,%rsi
    75e7:	48 89 c7             	mov    %rax,%rdi
    75ea:	e8 61 bc ff ff       	call   3250 <_ZNSolsEPFRSoS_E@plt>
    75ef:	48 8d 05 25 a3 00 00 	lea    0xa325(%rip),%rax        # 1191b <_ZL9BORDER_SQ+0x13b>
    75f6:	48 89 c6             	mov    %rax,%rsi
    75f9:	48 8d 05 40 10 01 00 	lea    0x11040(%rip),%rax        # 18640 <_ZSt4cout@GLIBCXX_3.4>
    7600:	48 89 c7             	mov    %rax,%rdi
    7603:	e8 18 bc ff ff       	call   3220 <_ZStlsISt11char_traitsIcEERSt13basic_ostreamIcT_ES5_PKc@plt>
    7608:	48 89 c2             	mov    %rax,%rdx
    760b:	48 8d 05 0c 2f 00 00 	lea    0x2f0c(%rip),%rax        # a51e <_ZSt3hexRSt8ios_base>
    7612:	48 89 c6             	mov    %rax,%rsi
    7615:	48 89 d7             	mov    %rdx,%rdi
    7618:	e8 63 ba ff ff       	call   3080 <_ZNSolsEPFRSt8ios_baseS0_E@plt>
    761d:	48 89 c2             	mov    %rax,%rdx
    7620:	48 8b 85 48 ff ff ff 	mov    -0xb8(%rbp),%rax
    7627:	48 8b 80 a8 01 00 00 	mov    0x1a8(%rax),%rax
    762e:	48 89 c6             	mov    %rax,%rsi
    7631:	48 89 d7             	mov    %rdx,%rdi
    7634:	e8 37 ba ff ff       	call   3070 <_ZNSolsEm@plt>
    7639:	48 89 c2             	mov    %rax,%rdx
    763c:	48 8d 05 b3 2e 00 00 	lea    0x2eb3(%rip),%rax        # a4f6 <_ZSt3decRSt8ios_base>
    7643:	48 89 c6             	mov    %rax,%rsi
    7646:	48 89 d7             	mov    %rdx,%rdi
    7649:	e8 32 ba ff ff       	call   3080 <_ZNSolsEPFRSt8ios_baseS0_E@plt>
    764e:	48 8b 15 5b 09 01 00 	mov    0x1095b(%rip),%rdx        # 17fb0 <_ZSt4endlIcSt11char_traitsIcEERSt13basic_ostreamIT_T0_ES6_@GLIBCXX_3.4>
    7655:	48 89 d6             	mov    %rdx,%rsi
    7658:	48 89 c7             	mov    %rax,%rdi
    765b:	e8 f0 bb ff ff       	call   3250 <_ZNSolsEPFRSoS_E@plt>
    7660:	48 8d 05 c7 a2 00 00 	lea    0xa2c7(%rip),%rax        # 1192e <_ZL9BORDER_SQ+0x14e>
    7667:	48 89 c6             	mov    %rax,%rsi
    766a:	48 8d 05 cf 0f 01 00 	lea    0x10fcf(%rip),%rax        # 18640 <_ZSt4cout@GLIBCXX_3.4>
    7671:	48 89 c7             	mov    %rax,%rdi
    7674:	e8 a7 bb ff ff       	call   3220 <_ZStlsISt11char_traitsIcEERSt13basic_ostreamIcT_ES5_PKc@plt>
    7679:	48 89 c3             	mov    %rax,%rbx
    767c:	48 8b 85 48 ff ff ff 	mov    -0xb8(%rbp),%rax
    7683:	8b 90 a4 01 00 00    	mov    0x1a4(%rax),%edx
    7689:	48 8d 45 a0          	lea    -0x60(%rbp),%rax
    768d:	89 d6                	mov    %edx,%esi
    768f:	48 89 c7             	mov    %rax,%rdi
    7692:	e8 6a 2c 00 00       	call   a301 <_Z13square_to_strB5cxx11i>
    7697:	48 8d 45 a0          	lea    -0x60(%rbp),%rax
    769b:	48 89 c6             	mov    %rax,%rsi
    769e:	48 89 df             	mov    %rbx,%rdi
    76a1:	e8 6a bb ff ff       	call   3210 <_ZStlsIcSt11char_traitsIcESaIcEERSt13basic_ostreamIT_T0_ES7_RKNSt7__cxx1112basic_stringIS4_S5_T1_EE@plt>
    76a6:	48 89 c2             	mov    %rax,%rdx
    76a9:	48 8d 05 96 a2 00 00 	lea    0xa296(%rip),%rax        # 11946 <_ZL9BORDER_SQ+0x166>
    76b0:	48 89 c6             	mov    %rax,%rsi
    76b3:	48 89 d7             	mov    %rdx,%rdi
    76b6:	e8 65 bb ff ff       	call   3220 <_ZStlsISt11char_traitsIcEERSt13basic_ostreamIcT_ES5_PKc@plt>
    76bb:	48 89 c3             	mov    %rax,%rbx
    76be:	48 8b 85 48 ff ff ff 	mov    -0xb8(%rbp),%rax
    76c5:	8b 90 a0 01 00 00    	mov    0x1a0(%rax),%edx
    76cb:	48 8d 45 c0          	lea    -0x40(%rbp),%rax
    76cf:	89 d6                	mov    %edx,%esi
    76d1:	48 89 c7             	mov    %rax,%rdi
    76d4:	e8 28 2c 00 00       	call   a301 <_Z13square_to_strB5cxx11i>
    76d9:	48 8d 45 c0          	lea    -0x40(%rbp),%rax
    76dd:	48 89 c6             	mov    %rax,%rsi
    76e0:	48 89 df             	mov    %rbx,%rdi
    76e3:	e8 28 bb ff ff       	call   3210 <_ZStlsIcSt11char_traitsIcESaIcEERSt13basic_ostreamIT_T0_ES7_RKNSt7__cxx1112basic_stringIS4_S5_T1_EE@plt>
    76e8:	48 8b 15 c1 08 01 00 	mov    0x108c1(%rip),%rdx        # 17fb0 <_ZSt4endlIcSt11char_traitsIcEERSt13basic_ostreamIT_T0_ES6_@GLIBCXX_3.4>
    76ef:	48 89 d6             	mov    %rdx,%rsi
    76f2:	48 89 c7             	mov    %rax,%rdi
    76f5:	e8 56 bb ff ff       	call   3250 <_ZNSolsEPFRSoS_E@plt>
    76fa:	48 8d 45 c0          	lea    -0x40(%rbp),%rax
    76fe:	48 89 c7             	mov    %rax,%rdi
    7701:	e8 2a bd ff ff       	call   3430 <_ZNSt7__cxx1112basic_stringIcSt11char_traitsIcESaIcEED1Ev@plt>
    7706:	48 8d 45 a0          	lea    -0x60(%rbp),%rax
    770a:	48 89 c7             	mov    %rax,%rdi
    770d:	e8 1e bd ff ff       	call   3430 <_ZNSt7__cxx1112basic_stringIcSt11char_traitsIcESaIcEED1Ev@plt>
    7712:	48 8d 45 80          	lea    -0x80(%rbp),%rax
    7716:	48 89 c7             	mov    %rax,%rdi
    7719:	e8 12 bd ff ff       	call   3430 <_ZNSt7__cxx1112basic_stringIcSt11char_traitsIcESaIcEED1Ev@plt>
    771e:	e9 de 00 00 00       	jmp    7801 <_Z5printPK7board_tb+0x6a7>
    7723:	48 89 c3             	mov    %rax,%rbx
    7726:	48 8d 85 5f ff ff ff 	lea    -0xa1(%rbp),%rax
    772d:	48 89 c7             	mov    %rax,%rdi
    7730:	e8 13 34 00 00       	call   ab48 <_ZNSt15__new_allocatorIcED1Ev>
    7735:	90                   	nop
    7736:	45 84 e4             	test   %r12b,%r12b
    7739:	75 0f                	jne    774a <_Z5printPK7board_tb+0x5f0>
    773b:	48 8d 05 fe 78 0e 00 	lea    0xe78fe(%rip),%rax        # ef040 <_ZGVZ5printPK7board_tbE15horizontal_line>
    7742:	48 89 c7             	mov    %rax,%rdi
    7745:	e8 06 ba ff ff       	call   3150 <__cxa_guard_abort@plt>
    774a:	48 89 d8             	mov    %rbx,%rax
    774d:	48 8b 55 e8          	mov    -0x18(%rbp),%rdx
    7751:	64 48 2b 14 25 28 00 	sub    %fs:0x28,%rdx
    7758:	00 00 
    775a:	74 05                	je     7761 <_Z5printPK7board_tb+0x607>
    775c:	e8 3f bb ff ff       	call   32a0 <__stack_chk_fail@plt>
    7761:	48 89 c7             	mov    %rax,%rdi
    7764:	e8 67 bc ff ff       	call   33d0 <_Unwind_Resume@plt>
    7769:	49 89 c4             	mov    %rax,%r12
    776c:	48 8d 45 c0          	lea    -0x40(%rbp),%rax
    7770:	48 89 c7             	mov    %rax,%rdi
    7773:	e8 b8 bc ff ff       	call   3430 <_ZNSt7__cxx1112basic_stringIcSt11char_traitsIcESaIcEED1Ev@plt>
    7778:	eb 03                	jmp    777d <_Z5printPK7board_tb+0x623>
    777a:	49 89 c4             	mov    %rax,%r12
    777d:	84 db                	test   %bl,%bl
    777f:	74 10                	je     7791 <_Z5printPK7board_tb+0x637>
    7781:	48 8d 85 5f ff ff ff 	lea    -0xa1(%rbp),%rax
    7788:	48 89 c7             	mov    %rax,%rdi
    778b:	e8 b8 33 00 00       	call   ab48 <_ZNSt15__new_allocatorIcED1Ev>
    7790:	90                   	nop
    7791:	4c 89 e0             	mov    %r12,%rax
    7794:	48 8b 55 e8          	mov    -0x18(%rbp),%rdx
    7798:	64 48 2b 14 25 28 00 	sub    %fs:0x28,%rdx
    779f:	00 00 
    77a1:	74 05                	je     77a8 <_Z5printPK7board_tb+0x64e>
    77a3:	e8 f8 ba ff ff       	call   32a0 <__stack_chk_fail@plt>
    77a8:	48 89 c7             	mov    %rax,%rdi
    77ab:	e8 20 bc ff ff       	call   33d0 <_Unwind_Resume@plt>
    77b0:	48 89 c3             	mov    %rax,%rbx
    77b3:	48 8d 45 c0          	lea    -0x40(%rbp),%rax
    77b7:	48 89 c7             	mov    %rax,%rdi
    77ba:	e8 71 bc ff ff       	call   3430 <_ZNSt7__cxx1112basic_stringIcSt11char_traitsIcESaIcEED1Ev@plt>
    77bf:	eb 03                	jmp    77c4 <_Z5printPK7board_tb+0x66a>
    77c1:	48 89 c3             	mov    %rax,%rbx
    77c4:	48 8d 45 a0          	lea    -0x60(%rbp),%rax
    77c8:	48 89 c7             	mov    %rax,%rdi
    77cb:	e8 60 bc ff ff       	call   3430 <_ZNSt7__cxx1112basic_stringIcSt11char_traitsIcESaIcEED1Ev@plt>
    77d0:	eb 03                	jmp    77d5 <_Z5printPK7board_tb+0x67b>
    77d2:	48 89 c3             	mov    %rax,%rbx
    77d5:	48 8d 45 80          	lea    -0x80(%rbp),%rax
    77d9:	48 89 c7             	mov    %rax,%rdi
    77dc:	e8 4f bc ff ff       	call   3430 <_ZNSt7__cxx1112basic_stringIcSt11char_traitsIcESaIcEED1Ev@plt>
    77e1:	48 89 d8             	mov    %rbx,%rax
    77e4:	48 8b 55 e8          	mov    -0x18(%rbp),%rdx
    77e8:	64 48 2b 14 25 28 00 	sub    %fs:0x28,%rdx
    77ef:	00 00 
    77f1:	74 05                	je     77f8 <_Z5printPK7board_tb+0x69e>
    77f3:	e8 a8 ba ff ff       	call   32a0 <__stack_chk_fail@plt>
    77f8:	48 89 c7             	mov    %rax,%rdi
    77fb:	e8 d0 bb ff ff       	call   33d0 <_Unwind_Resume@plt>
    7800:	90                   	nop
    7801:	48 8b 45 e8          	mov    -0x18(%rbp),%rax
    7805:	64 48 2b 04 25 28 00 	sub    %fs:0x28,%rax
    780c:	00 00 
    780e:	74 05                	je     7815 <_Z5printPK7board_tb+0x6bb>
    7810:	e8 8b ba ff ff       	call   32a0 <__stack_chk_fail@plt>
    7815:	48 81 c4 b0 00 00 00 	add    $0xb0,%rsp
    781c:	5b                   	pop    %rbx
    781d:	41 5c                	pop    %r12
    781f:	5d                   	pop    %rbp
    7820:	c3                   	ret

0000000000007821 <_Z16generate_pos_keyPK7board_t>:
    7821:	55                   	push   %rbp
    7822:	48 89 e5             	mov    %rsp,%rbp
    7825:	48 89 7d e8          	mov    %rdi,-0x18(%rbp)
    7829:	48 c7 45 f8 00 00 00 	movq   $0x0,-0x8(%rbp)
    7830:	00 
    7831:	c7 45 f4 00 00 00 00 	movl   $0x0,-0xc(%rbp)
    7838:	eb 3b                	jmp    7875 <_Z16generate_pos_keyPK7board_t+0x54>
    783a:	48 8b 45 e8          	mov    -0x18(%rbp),%rax
    783e:	8b 55 f4             	mov    -0xc(%rbp),%edx
    7841:	48 63 d2             	movslq %edx,%rdx
    7844:	48 83 c2 18          	add    $0x18,%rdx
    7848:	8b 54 90 18          	mov    0x18(%rax,%rdx,4),%edx
    784c:	8b 45 f4             	mov    -0xc(%rbp),%eax
    784f:	48 98                	cltq
    7851:	48 63 d2             	movslq %edx,%rdx
    7854:	48 c1 e2 06          	shl    $0x6,%rdx
    7858:	48 01 d0             	add    %rdx,%rax
    785b:	48 8d 14 c5 00 00 00 	lea    0x0(,%rax,8),%rdx
    7862:	00 
    7863:	48 8d 05 16 57 0e 00 	lea    0xe5716(%rip),%rax        # ecf80 <piece_keys>
    786a:	48 8b 04 02          	mov    (%rdx,%rax,1),%rax
    786e:	48 31 45 f8          	xor    %rax,-0x8(%rbp)
    7872:	ff 45 f4             	incl   -0xc(%rbp)
    7875:	83 7d f4 3f          	cmpl   $0x3f,-0xc(%rbp)
    7879:	7e bf                	jle    783a <_Z16generate_pos_keyPK7board_t+0x19>
    787b:	48 8b 45 e8          	mov    -0x18(%rbp),%rax
    787f:	8b 80 88 01 00 00    	mov    0x188(%rax),%eax
    7885:	83 f8 01             	cmp    $0x1,%eax
    7888:	75 0b                	jne    7895 <_Z16generate_pos_keyPK7board_t+0x74>
    788a:	48 8b 05 ef 74 0e 00 	mov    0xe74ef(%rip),%rax        # eed80 <turn_key>
    7891:	48 31 45 f8          	xor    %rax,-0x8(%rbp)
    7895:	48 8b 45 e8          	mov    -0x18(%rbp),%rax
    7899:	8b 80 94 01 00 00    	mov    0x194(%rax),%eax
    789f:	48 98                	cltq
    78a1:	48 8d 14 c5 00 00 00 	lea    0x0(,%rax,8),%rdx
    78a8:	00 
    78a9:	48 8d 05 f0 74 0e 00 	lea    0xe74f0(%rip),%rax        # eeda0 <castle_keys>
    78b0:	48 8b 04 02          	mov    (%rdx,%rax,1),%rax
    78b4:	48 31 45 f8          	xor    %rax,-0x8(%rbp)
    78b8:	48 8b 45 e8          	mov    -0x18(%rbp),%rax
    78bc:	8b 80 9c 01 00 00    	mov    0x19c(%rax),%eax
    78c2:	83 f8 40             	cmp    $0x40,%eax
    78c5:	74 23                	je     78ea <_Z16generate_pos_keyPK7board_t+0xc9>
    78c7:	48 8b 45 e8          	mov    -0x18(%rbp),%rax
    78cb:	8b 80 9c 01 00 00    	mov    0x19c(%rax),%eax
    78d1:	48 98                	cltq
    78d3:	48 8d 14 c5 00 00 00 	lea    0x0(,%rax,8),%rdx
    78da:	00 
    78db:	48 8d 05 3e 75 0e 00 	lea    0xe753e(%rip),%rax        # eee20 <ep_keys>
    78e2:	48 8b 04 02          	mov    (%rdx,%rax,1),%rax
    78e6:	48 31 45 f8          	xor    %rax,-0x8(%rbp)
    78ea:	48 8b 45 f8          	mov    -0x8(%rbp),%rax
    78ee:	5d                   	pop    %rbp
    78ef:	c3                   	ret

00000000000078f0 <_Z4testP7board_t>:
    78f0:	55                   	push   %rbp
    78f1:	48 89 e5             	mov    %rsp,%rbp
    78f4:	48 83 ec 20          	sub    $0x20,%rsp
    78f8:	48 89 7d e8          	mov    %rdi,-0x18(%rbp)
    78fc:	48 8b 45 e8          	mov    -0x18(%rbp),%rax
    7900:	48 89 c7             	mov    %rax,%rdi
    7903:	e8 2c 21 00 00       	call   9a34 <_Z5checkPK7board_t>
    7908:	83 f0 01             	xor    $0x1,%eax
    790b:	84 c0                	test   %al,%al
    790d:	0f 84 9b 00 00 00    	je     79ae <_Z4testP7board_t+0xbe>
    7913:	48 8d 05 38 a0 00 00 	lea    0xa038(%rip),%rax        # 11952 <_ZL9BORDER_SQ+0x172>
    791a:	48 89 c6             	mov    %rax,%rsi
    791d:	48 8d 05 fe 9e 00 00 	lea    0x9efe(%rip),%rax        # 11822 <_ZL9BORDER_SQ+0x42>
    7924:	48 89 c7             	mov    %rax,%rdi
    7927:	b8 00 00 00 00       	mov    $0x0,%eax
    792c:	e8 1f b7 ff ff       	call   3050 <printf@plt>
    7931:	48 8d 05 f7 9e 00 00 	lea    0x9ef7(%rip),%rax        # 1182f <_ZL9BORDER_SQ+0x4f>
    7938:	48 89 c6             	mov    %rax,%rsi
    793b:	48 8d 05 f9 9e 00 00 	lea    0x9ef9(%rip),%rax        # 1183b <_ZL9BORDER_SQ+0x5b>
    7942:	48 89 c7             	mov    %rax,%rdi
    7945:	b8 00 00 00 00       	mov    $0x0,%eax
    794a:	e8 01 b7 ff ff       	call   3050 <printf@plt>
    794f:	48 8d 05 ec 9e 00 00 	lea    0x9eec(%rip),%rax        # 11842 <_ZL9BORDER_SQ+0x62>
    7956:	48 89 c6             	mov    %rax,%rsi
    7959:	48 8d 05 eb 9e 00 00 	lea    0x9eeb(%rip),%rax        # 1184b <_ZL9BORDER_SQ+0x6b>
    7960:	48 89 c7             	mov    %rax,%rdi
    7963:	b8 00 00 00 00       	mov    $0x0,%eax
    7968:	e8 e3 b6 ff ff       	call   3050 <printf@plt>
    796d:	48 8d 05 de 9e 00 00 	lea    0x9ede(%rip),%rax        # 11852 <_ZL9BORDER_SQ+0x72>
    7974:	48 89 c6             	mov    %rax,%rsi
    7977:	48 8d 05 e2 9e 00 00 	lea    0x9ee2(%rip),%rax        # 11860 <_ZL9BORDER_SQ+0x80>
    797e:	48 89 c7             	mov    %rax,%rdi
    7981:	b8 00 00 00 00       	mov    $0x0,%eax
    7986:	e8 c5 b6 ff ff       	call   3050 <printf@plt>
    798b:	be 3d 01 00 00       	mov    $0x13d,%esi
    7990:	48 8d 05 d5 9e 00 00 	lea    0x9ed5(%rip),%rax        # 1186c <_ZL9BORDER_SQ+0x8c>
    7997:	48 89 c7             	mov    %rax,%rdi
    799a:	b8 00 00 00 00       	mov    $0x0,%eax
    799f:	e8 ac b6 ff ff       	call   3050 <printf@plt>
    79a4:	bf 01 00 00 00       	mov    $0x1,%edi
    79a9:	e8 22 b9 ff ff       	call   32d0 <exit@plt>
    79ae:	c7 45 f4 07 00 00 00 	movl   $0x7,-0xc(%rbp)
    79b5:	eb 7d                	jmp    7a34 <_Z4testP7board_t+0x144>
    79b7:	c7 45 f8 00 00 00 00 	movl   $0x0,-0x8(%rbp)
    79be:	eb 52                	jmp    7a12 <_Z4testP7board_t+0x122>
    79c0:	8b 45 f4             	mov    -0xc(%rbp),%eax
    79c3:	8d 14 c5 00 00 00 00 	lea    0x0(,%rax,8),%edx
    79ca:	8b 45 f8             	mov    -0x8(%rbp),%eax
    79cd:	01 d0                	add    %edx,%eax
    79cf:	89 45 fc             	mov    %eax,-0x4(%rbp)
    79d2:	8b 4d fc             	mov    -0x4(%rbp),%ecx
    79d5:	48 8b 45 e8          	mov    -0x18(%rbp),%rax
    79d9:	ba 01 00 00 00       	mov    $0x1,%edx
    79de:	89 ce                	mov    %ecx,%esi
    79e0:	48 89 c7             	mov    %rax,%rdi
    79e3:	e8 49 5d 00 00       	call   d731 <_Z11is_attackedP7board_tii>
    79e8:	48 85 c0             	test   %rax,%rax
    79eb:	74 09                	je     79f6 <_Z4testP7board_t+0x106>
    79ed:	48 8d 05 6b 9f 00 00 	lea    0x9f6b(%rip),%rax        # 1195f <_ZL9BORDER_SQ+0x17f>
    79f4:	eb 07                	jmp    79fd <_Z4testP7board_t+0x10d>
    79f6:	48 8d 05 65 9f 00 00 	lea    0x9f65(%rip),%rax        # 11962 <_ZL9BORDER_SQ+0x182>
    79fd:	48 89 c6             	mov    %rax,%rsi
    7a00:	48 8d 05 39 0c 01 00 	lea    0x10c39(%rip),%rax        # 18640 <_ZSt4cout@GLIBCXX_3.4>
    7a07:	48 89 c7             	mov    %rax,%rdi
    7a0a:	e8 11 b8 ff ff       	call   3220 <_ZStlsISt11char_traitsIcEERSt13basic_ostreamIcT_ES5_PKc@plt>
    7a0f:	ff 45 f8             	incl   -0x8(%rbp)
    7a12:	83 7d f8 07          	cmpl   $0x7,-0x8(%rbp)
    7a16:	7e a8                	jle    79c0 <_Z4testP7board_t+0xd0>
    7a18:	48 8b 05 91 05 01 00 	mov    0x10591(%rip),%rax        # 17fb0 <_ZSt4endlIcSt11char_traitsIcEERSt13basic_ostreamIT_T0_ES6_@GLIBCXX_3.4>
    7a1f:	48 89 c6             	mov    %rax,%rsi
    7a22:	48 8d 05 17 0c 01 00 	lea    0x10c17(%rip),%rax        # 18640 <_ZSt4cout@GLIBCXX_3.4>
    7a29:	48 89 c7             	mov    %rax,%rdi
    7a2c:	e8 1f b8 ff ff       	call   3250 <_ZNSolsEPFRSoS_E@plt>
    7a31:	ff 4d f4             	decl   -0xc(%rbp)
    7a34:	83 7d f4 00          	cmpl   $0x0,-0xc(%rbp)
    7a38:	0f 89 79 ff ff ff    	jns    79b7 <_Z4testP7board_t+0xc7>
    7a3e:	90                   	nop
    7a3f:	90                   	nop
    7a40:	c9                   	leave
    7a41:	c3                   	ret

0000000000007a42 <_ZL9add_pieceP7board_tii>:
    7a42:	55                   	push   %rbp
    7a43:	48 89 e5             	mov    %rsp,%rbp
    7a46:	48 83 ec 10          	sub    $0x10,%rsp
    7a4a:	48 89 7d f8          	mov    %rdi,-0x8(%rbp)
    7a4e:	89 75 f4             	mov    %esi,-0xc(%rbp)
    7a51:	89 55 f0             	mov    %edx,-0x10(%rbp)
    7a54:	48 8b 45 f8          	mov    -0x8(%rbp),%rax
    7a58:	48 89 c7             	mov    %rax,%rdi
    7a5b:	e8 d4 1f 00 00       	call   9a34 <_Z5checkPK7board_t>
    7a60:	83 f0 01             	xor    $0x1,%eax
    7a63:	84 c0                	test   %al,%al
    7a65:	0f 84 9b 00 00 00    	je     7b06 <_ZL9add_pieceP7board_tii+0xc4>
    7a6b:	48 8d 05 e0 9e 00 00 	lea    0x9ee0(%rip),%rax        # 11952 <_ZL9BORDER_SQ+0x172>
    7a72:	48 89 c6             	mov    %rax,%rsi
    7a75:	48 8d 05 a6 9d 00 00 	lea    0x9da6(%rip),%rax        # 11822 <_ZL9BORDER_SQ+0x42>
    7a7c:	48 89 c7             	mov    %rax,%rdi
    7a7f:	b8 00 00 00 00       	mov    $0x0,%eax
    7a84:	e8 c7 b5 ff ff       	call   3050 <printf@plt>
    7a89:	48 8d 05 9f 9d 00 00 	lea    0x9d9f(%rip),%rax        # 1182f <_ZL9BORDER_SQ+0x4f>
    7a90:	48 89 c6             	mov    %rax,%rsi
    7a93:	48 8d 05 a1 9d 00 00 	lea    0x9da1(%rip),%rax        # 1183b <_ZL9BORDER_SQ+0x5b>
    7a9a:	48 89 c7             	mov    %rax,%rdi
    7a9d:	b8 00 00 00 00       	mov    $0x0,%eax
    7aa2:	e8 a9 b5 ff ff       	call   3050 <printf@plt>
    7aa7:	48 8d 05 94 9d 00 00 	lea    0x9d94(%rip),%rax        # 11842 <_ZL9BORDER_SQ+0x62>
    7aae:	48 89 c6             	mov    %rax,%rsi
    7ab1:	48 8d 05 93 9d 00 00 	lea    0x9d93(%rip),%rax        # 1184b <_ZL9BORDER_SQ+0x6b>
    7ab8:	48 89 c7             	mov    %rax,%rdi
    7abb:	b8 00 00 00 00       	mov    $0x0,%eax
    7ac0:	e8 8b b5 ff ff       	call   3050 <printf@plt>
    7ac5:	48 8d 05 86 9d 00 00 	lea    0x9d86(%rip),%rax        # 11852 <_ZL9BORDER_SQ+0x72>
    7acc:	48 89 c6             	mov    %rax,%rsi
    7acf:	48 8d 05 8a 9d 00 00 	lea    0x9d8a(%rip),%rax        # 11860 <_ZL9BORDER_SQ+0x80>
    7ad6:	48 89 c7             	mov    %rax,%rdi
    7ad9:	b8 00 00 00 00       	mov    $0x0,%eax
    7ade:	e8 6d b5 ff ff       	call   3050 <printf@plt>
    7ae3:	be 52 01 00 00       	mov    $0x152,%esi
    7ae8:	48 8d 05 7d 9d 00 00 	lea    0x9d7d(%rip),%rax        # 1186c <_ZL9BORDER_SQ+0x8c>
    7aef:	48 89 c7             	mov    %rax,%rdi
    7af2:	b8 00 00 00 00       	mov    $0x0,%eax
    7af7:	e8 54 b5 ff ff       	call   3050 <printf@plt>
    7afc:	bf 01 00 00 00       	mov    $0x1,%edi
    7b01:	e8 ca b7 ff ff       	call   32d0 <exit@plt>
    7b06:	48 8b 45 f8          	mov    -0x8(%rbp),%rax
    7b0a:	8b 55 f0             	mov    -0x10(%rbp),%edx
    7b0d:	48 63 d2             	movslq %edx,%rdx
    7b10:	48 83 c2 18          	add    $0x18,%rdx
    7b14:	8b 4d f4             	mov    -0xc(%rbp),%ecx
    7b17:	89 4c 90 18          	mov    %ecx,0x18(%rax,%rdx,4)
    7b1b:	48 8b 55 f8          	mov    -0x8(%rbp),%rdx
    7b1f:	8b 45 f4             	mov    -0xc(%rbp),%eax
    7b22:	48 98                	cltq
    7b24:	48 8b 14 c2          	mov    (%rdx,%rax,8),%rdx
    7b28:	8b 45 f0             	mov    -0x10(%rbp),%eax
    7b2b:	b9 01 00 00 00       	mov    $0x1,%ecx
    7b30:	c4 e2 f9 f7 c1       	shlx   %rax,%rcx,%rax
    7b35:	48 89 d1             	mov    %rdx,%rcx
    7b38:	48 09 c1             	or     %rax,%rcx
    7b3b:	48 8b 55 f8          	mov    -0x8(%rbp),%rdx
    7b3f:	8b 45 f4             	mov    -0xc(%rbp),%eax
    7b42:	48 98                	cltq
    7b44:	48 89 0c c2          	mov    %rcx,(%rdx,%rax,8)
    7b48:	8b 45 f4             	mov    -0xc(%rbp),%eax
    7b4b:	89 c7                	mov    %eax,%edi
    7b4d:	e8 6f 28 00 00       	call   a3c1 <_Z11piece_colori>
    7b52:	48 8b 55 f8          	mov    -0x8(%rbp),%rdx
    7b56:	48 63 c8             	movslq %eax,%rcx
    7b59:	48 83 c1 2c          	add    $0x2c,%rcx
    7b5d:	48 8b 4c ca 18       	mov    0x18(%rdx,%rcx,8),%rcx
    7b62:	8b 55 f0             	mov    -0x10(%rbp),%edx
    7b65:	be 01 00 00 00       	mov    $0x1,%esi
    7b6a:	c4 e2 e9 f7 d6       	shlx   %rdx,%rsi,%rdx
    7b6f:	48 09 d1             	or     %rdx,%rcx
    7b72:	48 8b 55 f8          	mov    -0x8(%rbp),%rdx
    7b76:	48 98                	cltq
    7b78:	48 83 c0 2c          	add    $0x2c,%rax
    7b7c:	48 89 4c c2 18       	mov    %rcx,0x18(%rdx,%rax,8)
    7b81:	48 8b 45 f8          	mov    -0x8(%rbp),%rax
    7b85:	48 8b 88 a8 01 00 00 	mov    0x1a8(%rax),%rcx
    7b8c:	8b 45 f0             	mov    -0x10(%rbp),%eax
    7b8f:	48 98                	cltq
    7b91:	8b 55 f4             	mov    -0xc(%rbp),%edx
    7b94:	48 63 d2             	movslq %edx,%rdx
    7b97:	48 c1 e2 06          	shl    $0x6,%rdx
    7b9b:	48 01 d0             	add    %rdx,%rax
    7b9e:	48 8d 14 c5 00 00 00 	lea    0x0(,%rax,8),%rdx
    7ba5:	00 
    7ba6:	48 8d 05 d3 53 0e 00 	lea    0xe53d3(%rip),%rax        # ecf80 <piece_keys>
    7bad:	48 8b 04 02          	mov    (%rdx,%rax,1),%rax
    7bb1:	48 31 c1             	xor    %rax,%rcx
    7bb4:	48 89 ca             	mov    %rcx,%rdx
    7bb7:	48 8b 45 f8          	mov    -0x8(%rbp),%rax
    7bbb:	48 89 90 a8 01 00 00 	mov    %rdx,0x1a8(%rax)
    7bc2:	90                   	nop
    7bc3:	c9                   	leave
    7bc4:	c3                   	ret

0000000000007bc5 <_ZL8rm_pieceP7board_ti>:
    7bc5:	55                   	push   %rbp
    7bc6:	48 89 e5             	mov    %rsp,%rbp
    7bc9:	48 83 ec 20          	sub    $0x20,%rsp
    7bcd:	48 89 7d e8          	mov    %rdi,-0x18(%rbp)
    7bd1:	89 75 e4             	mov    %esi,-0x1c(%rbp)
    7bd4:	48 8b 45 e8          	mov    -0x18(%rbp),%rax
    7bd8:	48 89 c7             	mov    %rax,%rdi
    7bdb:	e8 54 1e 00 00       	call   9a34 <_Z5checkPK7board_t>
    7be0:	83 f0 01             	xor    $0x1,%eax
    7be3:	84 c0                	test   %al,%al
    7be5:	0f 84 9b 00 00 00    	je     7c86 <_ZL8rm_pieceP7board_ti+0xc1>
    7beb:	48 8d 05 60 9d 00 00 	lea    0x9d60(%rip),%rax        # 11952 <_ZL9BORDER_SQ+0x172>
    7bf2:	48 89 c6             	mov    %rax,%rsi
    7bf5:	48 8d 05 26 9c 00 00 	lea    0x9c26(%rip),%rax        # 11822 <_ZL9BORDER_SQ+0x42>
    7bfc:	48 89 c7             	mov    %rax,%rdi
    7bff:	b8 00 00 00 00       	mov    $0x0,%eax
    7c04:	e8 47 b4 ff ff       	call   3050 <printf@plt>
    7c09:	48 8d 05 1f 9c 00 00 	lea    0x9c1f(%rip),%rax        # 1182f <_ZL9BORDER_SQ+0x4f>
    7c10:	48 89 c6             	mov    %rax,%rsi
    7c13:	48 8d 05 21 9c 00 00 	lea    0x9c21(%rip),%rax        # 1183b <_ZL9BORDER_SQ+0x5b>
    7c1a:	48 89 c7             	mov    %rax,%rdi
    7c1d:	b8 00 00 00 00       	mov    $0x0,%eax
    7c22:	e8 29 b4 ff ff       	call   3050 <printf@plt>
    7c27:	48 8d 05 14 9c 00 00 	lea    0x9c14(%rip),%rax        # 11842 <_ZL9BORDER_SQ+0x62>
    7c2e:	48 89 c6             	mov    %rax,%rsi
    7c31:	48 8d 05 13 9c 00 00 	lea    0x9c13(%rip),%rax        # 1184b <_ZL9BORDER_SQ+0x6b>
    7c38:	48 89 c7             	mov    %rax,%rdi
    7c3b:	b8 00 00 00 00       	mov    $0x0,%eax
    7c40:	e8 0b b4 ff ff       	call   3050 <printf@plt>
    7c45:	48 8d 05 06 9c 00 00 	lea    0x9c06(%rip),%rax        # 11852 <_ZL9BORDER_SQ+0x72>
    7c4c:	48 89 c6             	mov    %rax,%rsi
    7c4f:	48 8d 05 0a 9c 00 00 	lea    0x9c0a(%rip),%rax        # 11860 <_ZL9BORDER_SQ+0x80>
    7c56:	48 89 c7             	mov    %rax,%rdi
    7c59:	b8 00 00 00 00       	mov    $0x0,%eax
    7c5e:	e8 ed b3 ff ff       	call   3050 <printf@plt>
    7c63:	be 62 01 00 00       	mov    $0x162,%esi
    7c68:	48 8d 05 fd 9b 00 00 	lea    0x9bfd(%rip),%rax        # 1186c <_ZL9BORDER_SQ+0x8c>
    7c6f:	48 89 c7             	mov    %rax,%rdi
    7c72:	b8 00 00 00 00       	mov    $0x0,%eax
    7c77:	e8 d4 b3 ff ff       	call   3050 <printf@plt>
    7c7c:	bf 01 00 00 00       	mov    $0x1,%edi
    7c81:	e8 4a b6 ff ff       	call   32d0 <exit@plt>
    7c86:	48 8b 45 e8          	mov    -0x18(%rbp),%rax
    7c8a:	8b 55 e4             	mov    -0x1c(%rbp),%edx
    7c8d:	48 63 d2             	movslq %edx,%rdx
    7c90:	48 83 c2 18          	add    $0x18,%rdx
    7c94:	8b 44 90 18          	mov    0x18(%rax,%rdx,4),%eax
    7c98:	89 45 fc             	mov    %eax,-0x4(%rbp)
    7c9b:	48 8b 45 e8          	mov    -0x18(%rbp),%rax
    7c9f:	8b 55 e4             	mov    -0x1c(%rbp),%edx
    7ca2:	48 63 d2             	movslq %edx,%rdx
    7ca5:	48 83 c2 18          	add    $0x18,%rdx
    7ca9:	c7 44 90 18 00 00 00 	movl   $0x0,0x18(%rax,%rdx,4)
    7cb0:	00 
    7cb1:	48 8b 55 e8          	mov    -0x18(%rbp),%rdx
    7cb5:	8b 45 fc             	mov    -0x4(%rbp),%eax
    7cb8:	48 98                	cltq
    7cba:	48 8b 14 c2          	mov    (%rdx,%rax,8),%rdx
    7cbe:	8b 45 e4             	mov    -0x1c(%rbp),%eax
    7cc1:	b9 01 00 00 00       	mov    $0x1,%ecx
    7cc6:	c4 e2 f9 f7 c1       	shlx   %rax,%rcx,%rax
    7ccb:	48 89 d1             	mov    %rdx,%rcx
    7cce:	48 31 c1             	xor    %rax,%rcx
    7cd1:	48 8b 55 e8          	mov    -0x18(%rbp),%rdx
    7cd5:	8b 45 fc             	mov    -0x4(%rbp),%eax
    7cd8:	48 98                	cltq
    7cda:	48 89 0c c2          	mov    %rcx,(%rdx,%rax,8)
    7cde:	8b 45 fc             	mov    -0x4(%rbp),%eax
    7ce1:	89 c7                	mov    %eax,%edi
    7ce3:	e8 d9 26 00 00       	call   a3c1 <_Z11piece_colori>
    7ce8:	48 8b 55 e8          	mov    -0x18(%rbp),%rdx
    7cec:	48 63 c8             	movslq %eax,%rcx
    7cef:	48 83 c1 2c          	add    $0x2c,%rcx
    7cf3:	48 8b 4c ca 18       	mov    0x18(%rdx,%rcx,8),%rcx
    7cf8:	8b 55 e4             	mov    -0x1c(%rbp),%edx
    7cfb:	be 01 00 00 00       	mov    $0x1,%esi
    7d00:	c4 e2 e9 f7 d6       	shlx   %rdx,%rsi,%rdx
    7d05:	48 31 d1             	xor    %rdx,%rcx
    7d08:	48 8b 55 e8          	mov    -0x18(%rbp),%rdx
    7d0c:	48 98                	cltq
    7d0e:	48 83 c0 2c          	add    $0x2c,%rax
    7d12:	48 89 4c c2 18       	mov    %rcx,0x18(%rdx,%rax,8)
    7d17:	48 8b 45 e8          	mov    -0x18(%rbp),%rax
    7d1b:	48 8b 88 a8 01 00 00 	mov    0x1a8(%rax),%rcx
    7d22:	8b 45 e4             	mov    -0x1c(%rbp),%eax
    7d25:	48 98                	cltq
    7d27:	8b 55 fc             	mov    -0x4(%rbp),%edx
    7d2a:	48 63 d2             	movslq %edx,%rdx
    7d2d:	48 c1 e2 06          	shl    $0x6,%rdx
    7d31:	48 01 d0             	add    %rdx,%rax
    7d34:	48 8d 14 c5 00 00 00 	lea    0x0(,%rax,8),%rdx
    7d3b:	00 
    7d3c:	48 8d 05 3d 52 0e 00 	lea    0xe523d(%rip),%rax        # ecf80 <piece_keys>
    7d43:	48 8b 04 02          	mov    (%rdx,%rax,1),%rax
    7d47:	48 31 c1             	xor    %rax,%rcx
    7d4a:	48 89 ca             	mov    %rcx,%rdx
    7d4d:	48 8b 45 e8          	mov    -0x18(%rbp),%rax
    7d51:	48 89 90 a8 01 00 00 	mov    %rdx,0x1a8(%rax)
    7d58:	90                   	nop
    7d59:	c9                   	leave
    7d5a:	c3                   	ret

0000000000007d5b <_ZL8mv_pieceP7board_tii>:
    7d5b:	55                   	push   %rbp
    7d5c:	48 89 e5             	mov    %rsp,%rbp
    7d5f:	48 83 ec 20          	sub    $0x20,%rsp
    7d63:	48 89 7d e8          	mov    %rdi,-0x18(%rbp)
    7d67:	89 75 e4             	mov    %esi,-0x1c(%rbp)
    7d6a:	89 55 e0             	mov    %edx,-0x20(%rbp)
    7d6d:	48 8b 45 e8          	mov    -0x18(%rbp),%rax
    7d71:	8b 55 e4             	mov    -0x1c(%rbp),%edx
    7d74:	48 63 d2             	movslq %edx,%rdx
    7d77:	48 83 c2 18          	add    $0x18,%rdx
    7d7b:	8b 44 90 18          	mov    0x18(%rax,%rdx,4),%eax
    7d7f:	89 45 fc             	mov    %eax,-0x4(%rbp)
    7d82:	48 8b 45 e8          	mov    -0x18(%rbp),%rax
    7d86:	8b 55 e0             	mov    -0x20(%rbp),%edx
    7d89:	48 63 d2             	movslq %edx,%rdx
    7d8c:	48 83 c2 18          	add    $0x18,%rdx
    7d90:	8b 4d fc             	mov    -0x4(%rbp),%ecx
    7d93:	89 4c 90 18          	mov    %ecx,0x18(%rax,%rdx,4)
    7d97:	48 8b 45 e8          	mov    -0x18(%rbp),%rax
    7d9b:	8b 55 e4             	mov    -0x1c(%rbp),%edx
    7d9e:	48 63 d2             	movslq %edx,%rdx
    7da1:	48 83 c2 18          	add    $0x18,%rdx
    7da5:	c7 44 90 18 00 00 00 	movl   $0x0,0x18(%rax,%rdx,4)
    7dac:	00 
    7dad:	48 8b 55 e8          	mov    -0x18(%rbp),%rdx
    7db1:	8b 45 fc             	mov    -0x4(%rbp),%eax
    7db4:	48 98                	cltq
    7db6:	48 8b 14 c2          	mov    (%rdx,%rax,8),%rdx
    7dba:	8b 45 e4             	mov    -0x1c(%rbp),%eax
    7dbd:	b9 01 00 00 00       	mov    $0x1,%ecx
    7dc2:	c4 e2 f9 f7 c1       	shlx   %rax,%rcx,%rax
    7dc7:	48 89 d1             	mov    %rdx,%rcx
    7dca:	48 31 c1             	xor    %rax,%rcx
    7dcd:	48 8b 55 e8          	mov    -0x18(%rbp),%rdx
    7dd1:	8b 45 fc             	mov    -0x4(%rbp),%eax
    7dd4:	48 98                	cltq
    7dd6:	48 89 0c c2          	mov    %rcx,(%rdx,%rax,8)
    7dda:	48 8b 55 e8          	mov    -0x18(%rbp),%rdx
    7dde:	8b 45 fc             	mov    -0x4(%rbp),%eax
    7de1:	48 98                	cltq
    7de3:	48 8b 14 c2          	mov    (%rdx,%rax,8),%rdx
    7de7:	8b 45 e0             	mov    -0x20(%rbp),%eax
    7dea:	b9 01 00 00 00       	mov    $0x1,%ecx
    7def:	c4 e2 f9 f7 c1       	shlx   %rax,%rcx,%rax
    7df4:	48 89 d1             	mov    %rdx,%rcx
    7df7:	48 09 c1             	or     %rax,%rcx
    7dfa:	48 8b 55 e8          	mov    -0x18(%rbp),%rdx
    7dfe:	8b 45 fc             	mov    -0x4(%rbp),%eax
    7e01:	48 98                	cltq
    7e03:	48 89 0c c2          	mov    %rcx,(%rdx,%rax,8)
    7e07:	8b 45 fc             	mov    -0x4(%rbp),%eax
    7e0a:	89 c7                	mov    %eax,%edi
    7e0c:	e8 b0 25 00 00       	call   a3c1 <_Z11piece_colori>
    7e11:	48 8b 55 e8          	mov    -0x18(%rbp),%rdx
    7e15:	48 63 c8             	movslq %eax,%rcx
    7e18:	48 83 c1 2c          	add    $0x2c,%rcx
    7e1c:	48 8b 4c ca 18       	mov    0x18(%rdx,%rcx,8),%rcx
    7e21:	8b 55 e4             	mov    -0x1c(%rbp),%edx
    7e24:	be 01 00 00 00       	mov    $0x1,%esi
    7e29:	c4 e2 e9 f7 d6       	shlx   %rdx,%rsi,%rdx
    7e2e:	48 31 d1             	xor    %rdx,%rcx
    7e31:	48 8b 55 e8          	mov    -0x18(%rbp),%rdx
    7e35:	48 98                	cltq
    7e37:	48 83 c0 2c          	add    $0x2c,%rax
    7e3b:	48 89 4c c2 18       	mov    %rcx,0x18(%rdx,%rax,8)
    7e40:	8b 45 fc             	mov    -0x4(%rbp),%eax
    7e43:	89 c7                	mov    %eax,%edi
    7e45:	e8 77 25 00 00       	call   a3c1 <_Z11piece_colori>
    7e4a:	48 8b 55 e8          	mov    -0x18(%rbp),%rdx
    7e4e:	48 63 c8             	movslq %eax,%rcx
    7e51:	48 83 c1 2c          	add    $0x2c,%rcx
    7e55:	48 8b 4c ca 18       	mov    0x18(%rdx,%rcx,8),%rcx
    7e5a:	8b 55 e0             	mov    -0x20(%rbp),%edx
    7e5d:	be 01 00 00 00       	mov    $0x1,%esi
    7e62:	c4 e2 e9 f7 d6       	shlx   %rdx,%rsi,%rdx
    7e67:	48 09 d1             	or     %rdx,%rcx
    7e6a:	48 8b 55 e8          	mov    -0x18(%rbp),%rdx
    7e6e:	48 98                	cltq
    7e70:	48 83 c0 2c          	add    $0x2c,%rax
    7e74:	48 89 4c c2 18       	mov    %rcx,0x18(%rdx,%rax,8)
    7e79:	48 8b 45 e8          	mov    -0x18(%rbp),%rax
    7e7d:	48 8b 88 a8 01 00 00 	mov    0x1a8(%rax),%rcx
    7e84:	8b 45 e4             	mov    -0x1c(%rbp),%eax
    7e87:	48 98                	cltq
    7e89:	8b 55 fc             	mov    -0x4(%rbp),%edx
    7e8c:	48 63 d2             	movslq %edx,%rdx
    7e8f:	48 c1 e2 06          	shl    $0x6,%rdx
    7e93:	48 01 d0             	add    %rdx,%rax
    7e96:	48 8d 14 c5 00 00 00 	lea    0x0(,%rax,8),%rdx
    7e9d:	00 
    7e9e:	48 8d 05 db 50 0e 00 	lea    0xe50db(%rip),%rax        # ecf80 <piece_keys>
    7ea5:	48 8b 04 02          	mov    (%rdx,%rax,1),%rax
    7ea9:	48 31 c1             	xor    %rax,%rcx
    7eac:	48 89 ca             	mov    %rcx,%rdx
    7eaf:	48 8b 45 e8          	mov    -0x18(%rbp),%rax
    7eb3:	48 89 90 a8 01 00 00 	mov    %rdx,0x1a8(%rax)
    7eba:	48 8b 45 e8          	mov    -0x18(%rbp),%rax
    7ebe:	48 8b 88 a8 01 00 00 	mov    0x1a8(%rax),%rcx
    7ec5:	8b 45 e0             	mov    -0x20(%rbp),%eax
    7ec8:	48 98                	cltq
    7eca:	8b 55 fc             	mov    -0x4(%rbp),%edx
    7ecd:	48 63 d2             	movslq %edx,%rdx
    7ed0:	48 c1 e2 06          	shl    $0x6,%rdx
    7ed4:	48 01 d0             	add    %rdx,%rax
    7ed7:	48 8d 14 c5 00 00 00 	lea    0x0(,%rax,8),%rdx
    7ede:	00 
    7edf:	48 8d 05 9a 50 0e 00 	lea    0xe509a(%rip),%rax        # ecf80 <piece_keys>
    7ee6:	48 8b 04 02          	mov    (%rdx,%rax,1),%rax
    7eea:	48 31 c1             	xor    %rax,%rcx
    7eed:	48 89 ca             	mov    %rcx,%rdx
    7ef0:	48 8b 45 e8          	mov    -0x18(%rbp),%rax
    7ef4:	48 89 90 a8 01 00 00 	mov    %rdx,0x1a8(%rax)
    7efb:	90                   	nop
    7efc:	c9                   	leave
    7efd:	c3                   	ret

0000000000007efe <_Z9make_moveP7board_tj>:
    7efe:	55                   	push   %rbp
    7eff:	48 89 e5             	mov    %rsp,%rbp
    7f02:	48 83 ec 60          	sub    $0x60,%rsp
    7f06:	48 89 7c 24 08       	mov    %rdi,0x8(%rsp)
    7f0b:	89 74 24 04          	mov    %esi,0x4(%rsp)
    7f0f:	64 48 8b 04 25 28 00 	mov    %fs:0x28,%rax
    7f16:	00 00 
    7f18:	48 89 44 24 58       	mov    %rax,0x58(%rsp)
    7f1d:	31 c0                	xor    %eax,%eax
    7f1f:	48 8b 44 24 08       	mov    0x8(%rsp),%rax
    7f24:	48 89 c7             	mov    %rax,%rdi
    7f27:	e8 08 1b 00 00       	call   9a34 <_Z5checkPK7board_t>
    7f2c:	83 f0 01             	xor    $0x1,%eax
    7f2f:	84 c0                	test   %al,%al
    7f31:	0f 84 9b 00 00 00    	je     7fd2 <_Z9make_moveP7board_tj+0xd4>
    7f37:	48 8d 05 14 9a 00 00 	lea    0x9a14(%rip),%rax        # 11952 <_ZL9BORDER_SQ+0x172>
    7f3e:	48 89 c6             	mov    %rax,%rsi
    7f41:	48 8d 05 da 98 00 00 	lea    0x98da(%rip),%rax        # 11822 <_ZL9BORDER_SQ+0x42>
    7f48:	48 89 c7             	mov    %rax,%rdi
    7f4b:	b8 00 00 00 00       	mov    $0x0,%eax
    7f50:	e8 fb b0 ff ff       	call   3050 <printf@plt>
    7f55:	48 8d 05 d3 98 00 00 	lea    0x98d3(%rip),%rax        # 1182f <_ZL9BORDER_SQ+0x4f>
    7f5c:	48 89 c6             	mov    %rax,%rsi
    7f5f:	48 8d 05 d5 98 00 00 	lea    0x98d5(%rip),%rax        # 1183b <_ZL9BORDER_SQ+0x5b>
    7f66:	48 89 c7             	mov    %rax,%rdi
    7f69:	b8 00 00 00 00       	mov    $0x0,%eax
    7f6e:	e8 dd b0 ff ff       	call   3050 <printf@plt>
    7f73:	48 8d 05 c8 98 00 00 	lea    0x98c8(%rip),%rax        # 11842 <_ZL9BORDER_SQ+0x62>
    7f7a:	48 89 c6             	mov    %rax,%rsi
    7f7d:	48 8d 05 c7 98 00 00 	lea    0x98c7(%rip),%rax        # 1184b <_ZL9BORDER_SQ+0x6b>
    7f84:	48 89 c7             	mov    %rax,%rdi
    7f87:	b8 00 00 00 00       	mov    $0x0,%eax
    7f8c:	e8 bf b0 ff ff       	call   3050 <printf@plt>
    7f91:	48 8d 05 ba 98 00 00 	lea    0x98ba(%rip),%rax        # 11852 <_ZL9BORDER_SQ+0x72>
    7f98:	48 89 c6             	mov    %rax,%rsi
    7f9b:	48 8d 05 be 98 00 00 	lea    0x98be(%rip),%rax        # 11860 <_ZL9BORDER_SQ+0x80>
    7fa2:	48 89 c7             	mov    %rax,%rdi
    7fa5:	b8 00 00 00 00       	mov    $0x0,%eax
    7faa:	e8 a1 b0 ff ff       	call   3050 <printf@plt>
    7faf:	be 8b 01 00 00       	mov    $0x18b,%esi
    7fb4:	48 8d 05 b1 98 00 00 	lea    0x98b1(%rip),%rax        # 1186c <_ZL9BORDER_SQ+0x8c>
    7fbb:	48 89 c7             	mov    %rax,%rdi
    7fbe:	b8 00 00 00 00       	mov    $0x0,%eax
    7fc3:	e8 88 b0 ff ff       	call   3050 <printf@plt>
    7fc8:	bf 01 00 00 00       	mov    $0x1,%edi
    7fcd:	e8 fe b2 ff ff       	call   32d0 <exit@plt>
    7fd2:	8b 44 24 04          	mov    0x4(%rsp),%eax
    7fd6:	83 e0 3f             	and    $0x3f,%eax
    7fd9:	89 44 24 14          	mov    %eax,0x14(%rsp)
    7fdd:	8b 44 24 04          	mov    0x4(%rsp),%eax
    7fe1:	c1 e8 06             	shr    $0x6,%eax
    7fe4:	83 e0 3f             	and    $0x3f,%eax
    7fe7:	89 44 24 18          	mov    %eax,0x18(%rsp)
    7feb:	8b 44 24 04          	mov    0x4(%rsp),%eax
    7fef:	c1 e8 0c             	shr    $0xc,%eax
    7ff2:	83 e0 0f             	and    $0xf,%eax
    7ff5:	89 44 24 1c          	mov    %eax,0x1c(%rsp)
    7ff9:	48 8b 44 24 08       	mov    0x8(%rsp),%rax
    7ffe:	8b 80 88 01 00 00    	mov    0x188(%rax),%eax
    8004:	89 44 24 20          	mov    %eax,0x20(%rsp)
    8008:	8b 44 24 20          	mov    0x20(%rsp),%eax
    800c:	83 f0 01             	xor    $0x1,%eax
    800f:	89 44 24 24          	mov    %eax,0x24(%rsp)
    8013:	c5 f9 ef c0          	vpxor  %xmm0,%xmm0,%xmm0
    8017:	c5 fe 7f 44 24 30    	vmovdqu %ymm0,0x30(%rsp)
    801d:	8b 44 24 04          	mov    0x4(%rsp),%eax
    8021:	89 44 24 30          	mov    %eax,0x30(%rsp)
    8025:	48 8b 44 24 08       	mov    0x8(%rsp),%rax
    802a:	8b 80 94 01 00 00    	mov    0x194(%rax),%eax
    8030:	89 44 24 34          	mov    %eax,0x34(%rsp)
    8034:	48 8b 44 24 08       	mov    0x8(%rsp),%rax
    8039:	8b 80 9c 01 00 00    	mov    0x19c(%rax),%eax
    803f:	89 44 24 38          	mov    %eax,0x38(%rsp)
    8043:	48 8b 44 24 08       	mov    0x8(%rsp),%rax
    8048:	8b 80 98 01 00 00    	mov    0x198(%rax),%eax
    804e:	89 44 24 3c          	mov    %eax,0x3c(%rsp)
    8052:	48 8b 44 24 08       	mov    0x8(%rsp),%rax
    8057:	48 8b 80 a8 01 00 00 	mov    0x1a8(%rax),%rax
    805e:	48 89 44 24 40       	mov    %rax,0x40(%rsp)
    8063:	48 8b 44 24 08       	mov    0x8(%rsp),%rax
    8068:	48 89 c6             	mov    %rax,%rsi
    806b:	48 8d 05 de 4e 0e 00 	lea    0xe4ede(%rip),%rax        # ecf50 <ref_boards>
    8072:	48 89 c7             	mov    %rax,%rdi
    8075:	e8 24 29 00 00       	call   a99e <_ZNSt6vectorI7board_tSaIS0_EE9push_backERKS0_>
    807a:	48 8b 44 24 08       	mov    0x8(%rsp),%rax
    807f:	8b 80 8c 01 00 00    	mov    0x18c(%rax),%eax
    8085:	8d 50 01             	lea    0x1(%rax),%edx
    8088:	48 8b 44 24 08       	mov    0x8(%rsp),%rax
    808d:	89 90 8c 01 00 00    	mov    %edx,0x18c(%rax)
    8093:	48 8b 44 24 08       	mov    0x8(%rsp),%rax
    8098:	8b 80 98 01 00 00    	mov    0x198(%rax),%eax
    809e:	8d 50 01             	lea    0x1(%rax),%edx
    80a1:	48 8b 44 24 08       	mov    0x8(%rsp),%rax
    80a6:	89 90 98 01 00 00    	mov    %edx,0x198(%rax)
    80ac:	83 7c 24 1c 05       	cmpl   $0x5,0x1c(%rsp)
    80b1:	75 68                	jne    811b <_Z9make_moveP7board_tj+0x21d>
    80b3:	48 8b 44 24 08       	mov    0x8(%rsp),%rax
    80b8:	8b 80 9c 01 00 00    	mov    0x19c(%rax),%eax
    80be:	89 44 24 28          	mov    %eax,0x28(%rsp)
    80c2:	83 7c 24 20 00       	cmpl   $0x0,0x20(%rsp)
    80c7:	74 07                	je     80d0 <_Z9make_moveP7board_tj+0x1d2>
    80c9:	b8 08 00 00 00       	mov    $0x8,%eax
    80ce:	eb 05                	jmp    80d5 <_Z9make_moveP7board_tj+0x1d7>
    80d0:	b8 f8 ff ff ff       	mov    $0xfffffff8,%eax
    80d5:	01 44 24 28          	add    %eax,0x28(%rsp)
    80d9:	48 8b 44 24 08       	mov    0x8(%rsp),%rax
    80de:	8b 54 24 28          	mov    0x28(%rsp),%edx
    80e2:	48 63 d2             	movslq %edx,%rdx
    80e5:	48 83 c2 18          	add    $0x18,%rdx
    80e9:	8b 44 90 18          	mov    0x18(%rax,%rdx,4),%eax
    80ed:	89 44 24 2c          	mov    %eax,0x2c(%rsp)
    80f1:	8b 54 24 28          	mov    0x28(%rsp),%edx
    80f5:	48 8b 44 24 08       	mov    0x8(%rsp),%rax
    80fa:	89 d6                	mov    %edx,%esi
    80fc:	48 89 c7             	mov    %rax,%rdi
    80ff:	e8 c1 fa ff ff       	call   7bc5 <_ZL8rm_pieceP7board_ti>
    8104:	8b 44 24 2c          	mov    0x2c(%rsp),%eax
    8108:	89 44 24 48          	mov    %eax,0x48(%rsp)
    810c:	48 8b 44 24 08       	mov    0x8(%rsp),%rax
    8111:	c7 80 98 01 00 00 00 	movl   $0x0,0x198(%rax)
    8118:	00 00 00 
    811b:	48 8b 44 24 08       	mov    0x8(%rsp),%rax
    8120:	8b 80 90 01 00 00    	mov    0x190(%rax),%eax
    8126:	8d 50 01             	lea    0x1(%rax),%edx
    8129:	48 8b 4c 24 08       	mov    0x8(%rsp),%rcx
    812e:	89 91 90 01 00 00    	mov    %edx,0x190(%rcx)
    8134:	48 98                	cltq
    8136:	48 83 c0 0d          	add    $0xd,%rax
    813a:	48 c1 e0 05          	shl    $0x5,%rax
    813e:	48 89 c2             	mov    %rax,%rdx
    8141:	48 8b 44 24 08       	mov    0x8(%rsp),%rax
    8146:	48 01 d0             	add    %rdx,%rax
    8149:	48 8d 48 10          	lea    0x10(%rax),%rcx
    814d:	48 8b 44 24 30       	mov    0x30(%rsp),%rax
    8152:	48 8b 54 24 38       	mov    0x38(%rsp),%rdx
    8157:	48 89 01             	mov    %rax,(%rcx)
    815a:	48 89 51 08          	mov    %rdx,0x8(%rcx)
    815e:	48 8b 44 24 3c       	mov    0x3c(%rsp),%rax
    8163:	48 8b 54 24 44       	mov    0x44(%rsp),%rdx
    8168:	48 89 41 0c          	mov    %rax,0xc(%rcx)
    816c:	48 89 51 14          	mov    %rdx,0x14(%rcx)
    8170:	83 7c 24 1c 02       	cmpl   $0x2,0x1c(%rsp)
    8175:	75 39                	jne    81b0 <_Z9make_moveP7board_tj+0x2b2>
    8177:	83 7c 24 14 06       	cmpl   $0x6,0x14(%rsp)
    817c:	75 19                	jne    8197 <_Z9make_moveP7board_tj+0x299>
    817e:	48 8b 44 24 08       	mov    0x8(%rsp),%rax
    8183:	ba 05 00 00 00       	mov    $0x5,%edx
    8188:	be 07 00 00 00       	mov    $0x7,%esi
    818d:	48 89 c7             	mov    %rax,%rdi
    8190:	e8 c6 fb ff ff       	call   7d5b <_ZL8mv_pieceP7board_tii>
    8195:	eb 57                	jmp    81ee <_Z9make_moveP7board_tj+0x2f0>
    8197:	48 8b 44 24 08       	mov    0x8(%rsp),%rax
    819c:	ba 3d 00 00 00       	mov    $0x3d,%edx
    81a1:	be 3f 00 00 00       	mov    $0x3f,%esi
    81a6:	48 89 c7             	mov    %rax,%rdi
    81a9:	e8 ad fb ff ff       	call   7d5b <_ZL8mv_pieceP7board_tii>
    81ae:	eb 3e                	jmp    81ee <_Z9make_moveP7board_tj+0x2f0>
    81b0:	83 7c 24 1c 03       	cmpl   $0x3,0x1c(%rsp)
    81b5:	75 37                	jne    81ee <_Z9make_moveP7board_tj+0x2f0>
    81b7:	83 7c 24 14 02       	cmpl   $0x2,0x14(%rsp)
    81bc:	75 19                	jne    81d7 <_Z9make_moveP7board_tj+0x2d9>
    81be:	48 8b 44 24 08       	mov    0x8(%rsp),%rax
    81c3:	ba 03 00 00 00       	mov    $0x3,%edx
    81c8:	be 00 00 00 00       	mov    $0x0,%esi
    81cd:	48 89 c7             	mov    %rax,%rdi
    81d0:	e8 86 fb ff ff       	call   7d5b <_ZL8mv_pieceP7board_tii>
    81d5:	eb 17                	jmp    81ee <_Z9make_moveP7board_tj+0x2f0>
    81d7:	48 8b 44 24 08       	mov    0x8(%rsp),%rax
    81dc:	ba 3b 00 00 00       	mov    $0x3b,%edx
    81e1:	be 38 00 00 00       	mov    $0x38,%esi
    81e6:	48 89 c7             	mov    %rax,%rdi
    81e9:	e8 6d fb ff ff       	call   7d5b <_ZL8mv_pieceP7board_tii>
    81ee:	48 8b 44 24 08       	mov    0x8(%rsp),%rax
    81f3:	8b 80 9c 01 00 00    	mov    0x19c(%rax),%eax
    81f9:	83 f8 40             	cmp    $0x40,%eax
    81fc:	74 3e                	je     823c <_Z9make_moveP7board_tj+0x33e>
    81fe:	48 8b 44 24 08       	mov    0x8(%rsp),%rax
    8203:	48 8b 88 a8 01 00 00 	mov    0x1a8(%rax),%rcx
    820a:	48 8b 44 24 08       	mov    0x8(%rsp),%rax
    820f:	8b 80 9c 01 00 00    	mov    0x19c(%rax),%eax
    8215:	48 98                	cltq
    8217:	48 8d 14 c5 00 00 00 	lea    0x0(,%rax,8),%rdx
    821e:	00 
    821f:	48 8d 05 fa 6b 0e 00 	lea    0xe6bfa(%rip),%rax        # eee20 <ep_keys>
    8226:	48 8b 04 02          	mov    (%rdx,%rax,1),%rax
    822a:	48 31 c1             	xor    %rax,%rcx
    822d:	48 89 ca             	mov    %rcx,%rdx
    8230:	48 8b 44 24 08       	mov    0x8(%rsp),%rax
    8235:	48 89 90 a8 01 00 00 	mov    %rdx,0x1a8(%rax)
    823c:	83 7c 24 1c 01       	cmpl   $0x1,0x1c(%rsp)
    8241:	75 59                	jne    829c <_Z9make_moveP7board_tj+0x39e>
    8243:	8b 54 24 14          	mov    0x14(%rsp),%edx
    8247:	8b 44 24 18          	mov    0x18(%rsp),%eax
    824b:	01 d0                	add    %edx,%eax
    824d:	d1 f8                	sar    %eax
    824f:	89 c2                	mov    %eax,%edx
    8251:	48 8b 44 24 08       	mov    0x8(%rsp),%rax
    8256:	89 90 9c 01 00 00    	mov    %edx,0x19c(%rax)
    825c:	48 8b 44 24 08       	mov    0x8(%rsp),%rax
    8261:	48 8b 88 a8 01 00 00 	mov    0x1a8(%rax),%rcx
    8268:	48 8b 44 24 08       	mov    0x8(%rsp),%rax
    826d:	8b 80 9c 01 00 00    	mov    0x19c(%rax),%eax
    8273:	48 98                	cltq
    8275:	48 8d 14 c5 00 00 00 	lea    0x0(,%rax,8),%rdx
    827c:	00 
    827d:	48 8d 05 9c 6b 0e 00 	lea    0xe6b9c(%rip),%rax        # eee20 <ep_keys>
    8284:	48 8b 04 02          	mov    (%rdx,%rax,1),%rax
    8288:	48 31 c1             	xor    %rax,%rcx
    828b:	48 89 ca             	mov    %rcx,%rdx
    828e:	48 8b 44 24 08       	mov    0x8(%rsp),%rax
    8293:	48 89 90 a8 01 00 00 	mov    %rdx,0x1a8(%rax)
    829a:	eb 0f                	jmp    82ab <_Z9make_moveP7board_tj+0x3ad>
    829c:	48 8b 44 24 08       	mov    0x8(%rsp),%rax
    82a1:	c7 80 9c 01 00 00 40 	movl   $0x40,0x19c(%rax)
    82a8:	00 00 00 
    82ab:	48 8b 44 24 08       	mov    0x8(%rsp),%rax
    82b0:	48 8b 88 a8 01 00 00 	mov    0x1a8(%rax),%rcx
    82b7:	48 8b 44 24 08       	mov    0x8(%rsp),%rax
    82bc:	8b 80 94 01 00 00    	mov    0x194(%rax),%eax
    82c2:	48 98                	cltq
    82c4:	48 8d 14 c5 00 00 00 	lea    0x0(,%rax,8),%rdx
    82cb:	00 
    82cc:	48 8d 05 cd 6a 0e 00 	lea    0xe6acd(%rip),%rax        # eeda0 <castle_keys>
    82d3:	48 8b 04 02          	mov    (%rdx,%rax,1),%rax
    82d7:	48 31 c1             	xor    %rax,%rcx
    82da:	48 89 ca             	mov    %rcx,%rdx
    82dd:	48 8b 44 24 08       	mov    0x8(%rsp),%rax
    82e2:	48 89 90 a8 01 00 00 	mov    %rdx,0x1a8(%rax)
    82e9:	48 8b 44 24 08       	mov    0x8(%rsp),%rax
    82ee:	8b 88 94 01 00 00    	mov    0x194(%rax),%ecx
    82f4:	8b 44 24 18          	mov    0x18(%rsp),%eax
    82f8:	48 98                	cltq
    82fa:	48 8d 14 85 00 00 00 	lea    0x0(,%rax,4),%rdx
    8301:	00 
    8302:	48 8d 05 37 93 00 00 	lea    0x9337(%rip),%rax        # 11640 <_ZL13castle_spoils>
    8309:	8b 04 02             	mov    (%rdx,%rax,1),%eax
    830c:	21 c1                	and    %eax,%ecx
    830e:	89 ca                	mov    %ecx,%edx
    8310:	48 8b 44 24 08       	mov    0x8(%rsp),%rax
    8315:	89 90 94 01 00 00    	mov    %edx,0x194(%rax)
    831b:	48 8b 44 24 08       	mov    0x8(%rsp),%rax
    8320:	8b 88 94 01 00 00    	mov    0x194(%rax),%ecx
    8326:	8b 44 24 14          	mov    0x14(%rsp),%eax
    832a:	48 98                	cltq
    832c:	48 8d 14 85 00 00 00 	lea    0x0(,%rax,4),%rdx
    8333:	00 
    8334:	48 8d 05 05 93 00 00 	lea    0x9305(%rip),%rax        # 11640 <_ZL13castle_spoils>
    833b:	8b 04 02             	mov    (%rdx,%rax,1),%eax
    833e:	21 c1                	and    %eax,%ecx
    8340:	89 ca                	mov    %ecx,%edx
    8342:	48 8b 44 24 08       	mov    0x8(%rsp),%rax
    8347:	89 90 94 01 00 00    	mov    %edx,0x194(%rax)
    834d:	48 8b 44 24 08       	mov    0x8(%rsp),%rax
    8352:	48 8b 88 a8 01 00 00 	mov    0x1a8(%rax),%rcx
    8359:	48 8b 44 24 08       	mov    0x8(%rsp),%rax
    835e:	8b 80 94 01 00 00    	mov    0x194(%rax),%eax
    8364:	48 98                	cltq
    8366:	48 8d 14 c5 00 00 00 	lea    0x0(,%rax,8),%rdx
    836d:	00 
    836e:	48 8d 05 2b 6a 0e 00 	lea    0xe6a2b(%rip),%rax        # eeda0 <castle_keys>
    8375:	48 8b 04 02          	mov    (%rdx,%rax,1),%rax
    8379:	48 31 c1             	xor    %rax,%rcx
    837c:	48 89 ca             	mov    %rcx,%rdx
    837f:	48 8b 44 24 08       	mov    0x8(%rsp),%rax
    8384:	48 89 90 a8 01 00 00 	mov    %rdx,0x1a8(%rax)
    838b:	48 8b 44 24 08       	mov    0x8(%rsp),%rax
    8390:	8b 54 24 14          	mov    0x14(%rsp),%edx
    8394:	48 63 d2             	movslq %edx,%rdx
    8397:	48 83 c2 18          	add    $0x18,%rdx
    839b:	8b 44 90 18          	mov    0x18(%rax,%rdx,4),%eax
    839f:	85 c0                	test   %eax,%eax
    83a1:	74 22                	je     83c5 <_Z9make_moveP7board_tj+0x4c7>
    83a3:	8b 54 24 14          	mov    0x14(%rsp),%edx
    83a7:	48 8b 44 24 08       	mov    0x8(%rsp),%rax
    83ac:	89 d6                	mov    %edx,%esi
    83ae:	48 89 c7             	mov    %rax,%rdi
    83b1:	e8 0f f8 ff ff       	call   7bc5 <_ZL8rm_pieceP7board_ti>
    83b6:	48 8b 44 24 08       	mov    0x8(%rsp),%rax
    83bb:	c7 80 98 01 00 00 00 	movl   $0x0,0x198(%rax)
    83c2:	00 00 00 
    83c5:	48 8b 44 24 08       	mov    0x8(%rsp),%rax
    83ca:	8b 54 24 18          	mov    0x18(%rsp),%edx
    83ce:	48 63 d2             	movslq %edx,%rdx
    83d1:	48 83 c2 18          	add    $0x18,%rdx
    83d5:	8b 44 90 18          	mov    0x18(%rax,%rdx,4),%eax
    83d9:	89 c7                	mov    %eax,%edi
    83db:	e8 f8 1f 00 00       	call   a3d8 <_Z10piece_typei>
    83e0:	83 f8 01             	cmp    $0x1,%eax
    83e3:	0f 94 c0             	sete   %al
    83e6:	84 c0                	test   %al,%al
    83e8:	74 0f                	je     83f9 <_Z9make_moveP7board_tj+0x4fb>
    83ea:	48 8b 44 24 08       	mov    0x8(%rsp),%rax
    83ef:	c7 80 98 01 00 00 00 	movl   $0x0,0x198(%rax)
    83f6:	00 00 00 
    83f9:	8b 54 24 14          	mov    0x14(%rsp),%edx
    83fd:	8b 4c 24 18          	mov    0x18(%rsp),%ecx
    8401:	48 8b 44 24 08       	mov    0x8(%rsp),%rax
    8406:	89 ce                	mov    %ecx,%esi
    8408:	48 89 c7             	mov    %rax,%rdi
    840b:	e8 4b f9 ff ff       	call   7d5b <_ZL8mv_pieceP7board_tii>
    8410:	8b 44 24 04          	mov    0x4(%rsp),%eax
    8414:	25 00 80 00 00       	and    $0x8000,%eax
    8419:	85 c0                	test   %eax,%eax
    841b:	0f 84 e0 00 00 00    	je     8501 <_Z9make_moveP7board_tj+0x603>
    8421:	8b 54 24 14          	mov    0x14(%rsp),%edx
    8425:	48 8b 44 24 08       	mov    0x8(%rsp),%rax
    842a:	89 d6                	mov    %edx,%esi
    842c:	48 89 c7             	mov    %rax,%rdi
    842f:	e8 91 f7 ff ff       	call   7bc5 <_ZL8rm_pieceP7board_ti>
    8434:	8b 44 24 1c          	mov    0x1c(%rsp),%eax
    8438:	83 e0 fb             	and    $0xfffffffb,%eax
    843b:	83 f8 0b             	cmp    $0xb,%eax
    843e:	74 26                	je     8466 <_Z9make_moveP7board_tj+0x568>
    8440:	83 f8 0b             	cmp    $0xb,%eax
    8443:	0f 8f b8 00 00 00    	jg     8501 <_Z9make_moveP7board_tj+0x603>
    8449:	83 f8 0a             	cmp    $0xa,%eax
    844c:	74 3f                	je     848d <_Z9make_moveP7board_tj+0x58f>
    844e:	83 f8 0a             	cmp    $0xa,%eax
    8451:	0f 8f aa 00 00 00    	jg     8501 <_Z9make_moveP7board_tj+0x603>
    8457:	83 f8 08             	cmp    $0x8,%eax
    845a:	74 7f                	je     84db <_Z9make_moveP7board_tj+0x5dd>
    845c:	83 f8 09             	cmp    $0x9,%eax
    845f:	74 53                	je     84b4 <_Z9make_moveP7board_tj+0x5b6>
    8461:	e9 9b 00 00 00       	jmp    8501 <_Z9make_moveP7board_tj+0x603>
    8466:	8b 44 24 20          	mov    0x20(%rsp),%eax
    846a:	89 c6                	mov    %eax,%esi
    846c:	bf 05 00 00 00       	mov    $0x5,%edi
    8471:	e8 71 1f 00 00       	call   a3e7 <_Z10set_colourii>
    8476:	89 c1                	mov    %eax,%ecx
    8478:	8b 54 24 14          	mov    0x14(%rsp),%edx
    847c:	48 8b 44 24 08       	mov    0x8(%rsp),%rax
    8481:	89 ce                	mov    %ecx,%esi
    8483:	48 89 c7             	mov    %rax,%rdi
    8486:	e8 b7 f5 ff ff       	call   7a42 <_ZL9add_pieceP7board_tii>
    848b:	eb 74                	jmp    8501 <_Z9make_moveP7board_tj+0x603>
    848d:	8b 44 24 20          	mov    0x20(%rsp),%eax
    8491:	89 c6                	mov    %eax,%esi
    8493:	bf 04 00 00 00       	mov    $0x4,%edi
    8498:	e8 4a 1f 00 00       	call   a3e7 <_Z10set_colourii>
    849d:	89 c1                	mov    %eax,%ecx
    849f:	8b 54 24 14          	mov    0x14(%rsp),%edx
    84a3:	48 8b 44 24 08       	mov    0x8(%rsp),%rax
    84a8:	89 ce                	mov    %ecx,%esi
    84aa:	48 89 c7             	mov    %rax,%rdi
    84ad:	e8 90 f5 ff ff       	call   7a42 <_ZL9add_pieceP7board_tii>
    84b2:	eb 4d                	jmp    8501 <_Z9make_moveP7board_tj+0x603>
    84b4:	8b 44 24 20          	mov    0x20(%rsp),%eax
    84b8:	89 c6                	mov    %eax,%esi
    84ba:	bf 03 00 00 00       	mov    $0x3,%edi
    84bf:	e8 23 1f 00 00       	call   a3e7 <_Z10set_colourii>
    84c4:	89 c1                	mov    %eax,%ecx
    84c6:	8b 54 24 14          	mov    0x14(%rsp),%edx
    84ca:	48 8b 44 24 08       	mov    0x8(%rsp),%rax
    84cf:	89 ce                	mov    %ecx,%esi
    84d1:	48 89 c7             	mov    %rax,%rdi
    84d4:	e8 69 f5 ff ff       	call   7a42 <_ZL9add_pieceP7board_tii>
    84d9:	eb 26                	jmp    8501 <_Z9make_moveP7board_tj+0x603>
    84db:	8b 44 24 20          	mov    0x20(%rsp),%eax
    84df:	89 c6                	mov    %eax,%esi
    84e1:	bf 02 00 00 00       	mov    $0x2,%edi
    84e6:	e8 fc 1e 00 00       	call   a3e7 <_Z10set_colourii>
    84eb:	89 c1                	mov    %eax,%ecx
    84ed:	8b 54 24 14          	mov    0x14(%rsp),%edx
    84f1:	48 8b 44 24 08       	mov    0x8(%rsp),%rax
    84f6:	89 ce                	mov    %ecx,%esi
    84f8:	48 89 c7             	mov    %rax,%rdi
    84fb:	e8 42 f5 ff ff       	call   7a42 <_ZL9add_pieceP7board_tii>
    8500:	90                   	nop
    8501:	48 8b 44 24 08       	mov    0x8(%rsp),%rax
    8506:	8b 54 24 14          	mov    0x14(%rsp),%edx
    850a:	48 63 d2             	movslq %edx,%rdx
    850d:	48 83 c2 18          	add    $0x18,%rdx
    8511:	8b 44 90 18          	mov    0x18(%rax,%rdx,4),%eax
    8515:	89 c7                	mov    %eax,%edi
    8517:	e8 bc 1e 00 00       	call   a3d8 <_Z10piece_typei>
    851c:	83 f8 06             	cmp    $0x6,%eax
    851f:	0f 94 c0             	sete   %al
    8522:	84 c0                	test   %al,%al
    8524:	74 17                	je     853d <_Z9make_moveP7board_tj+0x63f>
    8526:	48 8b 44 24 08       	mov    0x8(%rsp),%rax
    852b:	8b 54 24 20          	mov    0x20(%rsp),%edx
    852f:	48 63 d2             	movslq %edx,%rdx
    8532:	48 83 c2 68          	add    $0x68,%rdx
    8536:	8b 4c 24 14          	mov    0x14(%rsp),%ecx
    853a:	89 0c 90             	mov    %ecx,(%rax,%rdx,4)
    853d:	48 8b 44 24 08       	mov    0x8(%rsp),%rax
    8542:	8b 54 24 24          	mov    0x24(%rsp),%edx
    8546:	89 90 88 01 00 00    	mov    %edx,0x188(%rax)
    854c:	48 8b 44 24 08       	mov    0x8(%rsp),%rax
    8551:	48 8b 90 a8 01 00 00 	mov    0x1a8(%rax),%rdx
    8558:	48 8b 05 21 68 0e 00 	mov    0xe6821(%rip),%rax        # eed80 <turn_key>
    855f:	48 31 c2             	xor    %rax,%rdx
    8562:	48 8b 44 24 08       	mov    0x8(%rsp),%rax
    8567:	48 89 90 a8 01 00 00 	mov    %rdx,0x1a8(%rax)
    856e:	48 8b 44 24 08       	mov    0x8(%rsp),%rax
    8573:	48 89 c7             	mov    %rax,%rdi
    8576:	e8 b9 14 00 00       	call   9a34 <_Z5checkPK7board_t>
    857b:	83 f0 01             	xor    $0x1,%eax
    857e:	84 c0                	test   %al,%al
    8580:	0f 84 9b 00 00 00    	je     8621 <_Z9make_moveP7board_tj+0x723>
    8586:	48 8d 05 c5 93 00 00 	lea    0x93c5(%rip),%rax        # 11952 <_ZL9BORDER_SQ+0x172>
    858d:	48 89 c6             	mov    %rax,%rsi
    8590:	48 8d 05 8b 92 00 00 	lea    0x928b(%rip),%rax        # 11822 <_ZL9BORDER_SQ+0x42>
    8597:	48 89 c7             	mov    %rax,%rdi
    859a:	b8 00 00 00 00       	mov    $0x0,%eax
    859f:	e8 ac aa ff ff       	call   3050 <printf@plt>
    85a4:	48 8d 05 84 92 00 00 	lea    0x9284(%rip),%rax        # 1182f <_ZL9BORDER_SQ+0x4f>
    85ab:	48 89 c6             	mov    %rax,%rsi
    85ae:	48 8d 05 86 92 00 00 	lea    0x9286(%rip),%rax        # 1183b <_ZL9BORDER_SQ+0x5b>
    85b5:	48 89 c7             	mov    %rax,%rdi
    85b8:	b8 00 00 00 00       	mov    $0x0,%eax
    85bd:	e8 8e aa ff ff       	call   3050 <printf@plt>
    85c2:	48 8d 05 79 92 00 00 	lea    0x9279(%rip),%rax        # 11842 <_ZL9BORDER_SQ+0x62>
    85c9:	48 89 c6             	mov    %rax,%rsi
    85cc:	48 8d 05 78 92 00 00 	lea    0x9278(%rip),%rax        # 1184b <_ZL9BORDER_SQ+0x6b>
    85d3:	48 89 c7             	mov    %rax,%rdi
    85d6:	b8 00 00 00 00       	mov    $0x0,%eax
    85db:	e8 70 aa ff ff       	call   3050 <printf@plt>
    85e0:	48 8d 05 6b 92 00 00 	lea    0x926b(%rip),%rax        # 11852 <_ZL9BORDER_SQ+0x72>
    85e7:	48 89 c6             	mov    %rax,%rsi
    85ea:	48 8d 05 6f 92 00 00 	lea    0x926f(%rip),%rax        # 11860 <_ZL9BORDER_SQ+0x80>
    85f1:	48 89 c7             	mov    %rax,%rdi
    85f4:	b8 00 00 00 00       	mov    $0x0,%eax
    85f9:	e8 52 aa ff ff       	call   3050 <printf@plt>
    85fe:	be 16 02 00 00       	mov    $0x216,%esi
    8603:	48 8d 05 62 92 00 00 	lea    0x9262(%rip),%rax        # 1186c <_ZL9BORDER_SQ+0x8c>
    860a:	48 89 c7             	mov    %rax,%rdi
    860d:	b8 00 00 00 00       	mov    $0x0,%eax
    8612:	e8 39 aa ff ff       	call   3050 <printf@plt>
    8617:	bf 01 00 00 00       	mov    $0x1,%edi
    861c:	e8 af ac ff ff       	call   32d0 <exit@plt>
    8621:	48 8b 44 24 08       	mov    0x8(%rsp),%rax
    8626:	8b 54 24 20          	mov    0x20(%rsp),%edx
    862a:	48 63 d2             	movslq %edx,%rdx
    862d:	48 83 c2 68          	add    $0x68,%rdx
    8631:	8b 0c 90             	mov    (%rax,%rdx,4),%ecx
    8634:	8b 54 24 24          	mov    0x24(%rsp),%edx
    8638:	48 8b 44 24 08       	mov    0x8(%rsp),%rax
    863d:	89 ce                	mov    %ecx,%esi
    863f:	48 89 c7             	mov    %rax,%rdi
    8642:	e8 ea 50 00 00       	call   d731 <_Z11is_attackedP7board_tii>
    8647:	48 85 c0             	test   %rax,%rax
    864a:	0f 95 c0             	setne  %al
    864d:	84 c0                	test   %al,%al
    864f:	74 1a                	je     866b <_Z9make_moveP7board_tj+0x76d>
    8651:	8b 54 24 04          	mov    0x4(%rsp),%edx
    8655:	48 8b 44 24 08       	mov    0x8(%rsp),%rax
    865a:	89 d6                	mov    %edx,%esi
    865c:	48 89 c7             	mov    %rax,%rdi
    865f:	e8 23 00 00 00       	call   8687 <_Z9undo_moveP7board_tj>
    8664:	b8 00 00 00 00       	mov    $0x0,%eax
    8669:	eb 05                	jmp    8670 <_Z9make_moveP7board_tj+0x772>
    866b:	b8 01 00 00 00       	mov    $0x1,%eax
    8670:	48 8b 54 24 58       	mov    0x58(%rsp),%rdx
    8675:	64 48 2b 14 25 28 00 	sub    %fs:0x28,%rdx
    867c:	00 00 
    867e:	74 05                	je     8685 <_Z9make_moveP7board_tj+0x787>
    8680:	e8 1b ac ff ff       	call   32a0 <__stack_chk_fail@plt>
    8685:	c9                   	leave
    8686:	c3                   	ret

0000000000008687 <_Z9undo_moveP7board_tj>:
    8687:	55                   	push   %rbp
    8688:	48 89 e5             	mov    %rsp,%rbp
    868b:	48 83 ec 50          	sub    $0x50,%rsp
    868f:	48 89 7c 24 08       	mov    %rdi,0x8(%rsp)
    8694:	89 74 24 04          	mov    %esi,0x4(%rsp)
    8698:	48 8b 44 24 08       	mov    0x8(%rsp),%rax
    869d:	48 89 c7             	mov    %rax,%rdi
    86a0:	e8 8f 13 00 00       	call   9a34 <_Z5checkPK7board_t>
    86a5:	83 f0 01             	xor    $0x1,%eax
    86a8:	84 c0                	test   %al,%al
    86aa:	0f 84 9b 00 00 00    	je     874b <_Z9undo_moveP7board_tj+0xc4>
    86b0:	48 8d 05 9b 92 00 00 	lea    0x929b(%rip),%rax        # 11952 <_ZL9BORDER_SQ+0x172>
    86b7:	48 89 c6             	mov    %rax,%rsi
    86ba:	48 8d 05 61 91 00 00 	lea    0x9161(%rip),%rax        # 11822 <_ZL9BORDER_SQ+0x42>
    86c1:	48 89 c7             	mov    %rax,%rdi
    86c4:	b8 00 00 00 00       	mov    $0x0,%eax
    86c9:	e8 82 a9 ff ff       	call   3050 <printf@plt>
    86ce:	48 8d 05 5a 91 00 00 	lea    0x915a(%rip),%rax        # 1182f <_ZL9BORDER_SQ+0x4f>
    86d5:	48 89 c6             	mov    %rax,%rsi
    86d8:	48 8d 05 5c 91 00 00 	lea    0x915c(%rip),%rax        # 1183b <_ZL9BORDER_SQ+0x5b>
    86df:	48 89 c7             	mov    %rax,%rdi
    86e2:	b8 00 00 00 00       	mov    $0x0,%eax
    86e7:	e8 64 a9 ff ff       	call   3050 <printf@plt>
    86ec:	48 8d 05 4f 91 00 00 	lea    0x914f(%rip),%rax        # 11842 <_ZL9BORDER_SQ+0x62>
    86f3:	48 89 c6             	mov    %rax,%rsi
    86f6:	48 8d 05 4e 91 00 00 	lea    0x914e(%rip),%rax        # 1184b <_ZL9BORDER_SQ+0x6b>
    86fd:	48 89 c7             	mov    %rax,%rdi
    8700:	b8 00 00 00 00       	mov    $0x0,%eax
    8705:	e8 46 a9 ff ff       	call   3050 <printf@plt>
    870a:	48 8d 05 41 91 00 00 	lea    0x9141(%rip),%rax        # 11852 <_ZL9BORDER_SQ+0x72>
    8711:	48 89 c6             	mov    %rax,%rsi
    8714:	48 8d 05 45 91 00 00 	lea    0x9145(%rip),%rax        # 11860 <_ZL9BORDER_SQ+0x80>
    871b:	48 89 c7             	mov    %rax,%rdi
    871e:	b8 00 00 00 00       	mov    $0x0,%eax
    8723:	e8 28 a9 ff ff       	call   3050 <printf@plt>
    8728:	be 22 02 00 00       	mov    $0x222,%esi
    872d:	48 8d 05 38 91 00 00 	lea    0x9138(%rip),%rax        # 1186c <_ZL9BORDER_SQ+0x8c>
    8734:	48 89 c7             	mov    %rax,%rdi
    8737:	b8 00 00 00 00       	mov    $0x0,%eax
    873c:	e8 0f a9 ff ff       	call   3050 <printf@plt>
    8741:	bf 01 00 00 00       	mov    $0x1,%edi
    8746:	e8 85 ab ff ff       	call   32d0 <exit@plt>
    874b:	8b 44 24 04          	mov    0x4(%rsp),%eax
    874f:	83 e0 3f             	and    $0x3f,%eax
    8752:	89 44 24 18          	mov    %eax,0x18(%rsp)
    8756:	8b 44 24 04          	mov    0x4(%rsp),%eax
    875a:	c1 e8 06             	shr    $0x6,%eax
    875d:	83 e0 3f             	and    $0x3f,%eax
    8760:	89 44 24 1c          	mov    %eax,0x1c(%rsp)
    8764:	8b 44 24 04          	mov    0x4(%rsp),%eax
    8768:	c1 e8 0c             	shr    $0xc,%eax
    876b:	83 e0 0f             	and    $0xf,%eax
    876e:	89 44 24 20          	mov    %eax,0x20(%rsp)
    8772:	48 8b 44 24 08       	mov    0x8(%rsp),%rax
    8777:	8b 80 90 01 00 00    	mov    0x190(%rax),%eax
    877d:	8d 50 ff             	lea    -0x1(%rax),%edx
    8780:	48 8b 44 24 08       	mov    0x8(%rsp),%rax
    8785:	89 90 90 01 00 00    	mov    %edx,0x190(%rax)
    878b:	48 8b 44 24 08       	mov    0x8(%rsp),%rax
    8790:	8b 80 90 01 00 00    	mov    0x190(%rax),%eax
    8796:	48 8b 54 24 08       	mov    0x8(%rsp),%rdx
    879b:	48 98                	cltq
    879d:	48 83 c0 0d          	add    $0xd,%rax
    87a1:	48 c1 e0 05          	shl    $0x5,%rax
    87a5:	48 01 d0             	add    %rdx,%rax
    87a8:	c5 fe 6f 40 10       	vmovdqu 0x10(%rax),%ymm0
    87ad:	c5 fe 7f 44 24 30    	vmovdqu %ymm0,0x30(%rsp)
    87b3:	48 8b 44 24 08       	mov    0x8(%rsp),%rax
    87b8:	8b 80 88 01 00 00    	mov    0x188(%rax),%eax
    87be:	89 44 24 24          	mov    %eax,0x24(%rsp)
    87c2:	8b 44 24 24          	mov    0x24(%rsp),%eax
    87c6:	83 f0 01             	xor    $0x1,%eax
    87c9:	89 44 24 28          	mov    %eax,0x28(%rsp)
    87cd:	48 8b 44 24 08       	mov    0x8(%rsp),%rax
    87d2:	8b 54 24 28          	mov    0x28(%rsp),%edx
    87d6:	89 90 88 01 00 00    	mov    %edx,0x188(%rax)
    87dc:	48 8b 44 24 08       	mov    0x8(%rsp),%rax
    87e1:	48 8b 90 a8 01 00 00 	mov    0x1a8(%rax),%rdx
    87e8:	48 8b 05 91 65 0e 00 	mov    0xe6591(%rip),%rax        # eed80 <turn_key>
    87ef:	48 31 c2             	xor    %rax,%rdx
    87f2:	48 8b 44 24 08       	mov    0x8(%rsp),%rax
    87f7:	48 89 90 a8 01 00 00 	mov    %rdx,0x1a8(%rax)
    87fe:	8b 54 24 1c          	mov    0x1c(%rsp),%edx
    8802:	8b 4c 24 18          	mov    0x18(%rsp),%ecx
    8806:	48 8b 44 24 08       	mov    0x8(%rsp),%rax
    880b:	89 ce                	mov    %ecx,%esi
    880d:	48 89 c7             	mov    %rax,%rdi
    8810:	e8 46 f5 ff ff       	call   7d5b <_ZL8mv_pieceP7board_tii>
    8815:	48 8b 44 24 08       	mov    0x8(%rsp),%rax
    881a:	8b 80 9c 01 00 00    	mov    0x19c(%rax),%eax
    8820:	83 f8 40             	cmp    $0x40,%eax
    8823:	74 3e                	je     8863 <_Z9undo_moveP7board_tj+0x1dc>
    8825:	48 8b 44 24 08       	mov    0x8(%rsp),%rax
    882a:	48 8b 88 a8 01 00 00 	mov    0x1a8(%rax),%rcx
    8831:	48 8b 44 24 08       	mov    0x8(%rsp),%rax
    8836:	8b 80 9c 01 00 00    	mov    0x19c(%rax),%eax
    883c:	48 98                	cltq
    883e:	48 8d 14 c5 00 00 00 	lea    0x0(,%rax,8),%rdx
    8845:	00 
    8846:	48 8d 05 d3 65 0e 00 	lea    0xe65d3(%rip),%rax        # eee20 <ep_keys>
    884d:	48 8b 04 02          	mov    (%rdx,%rax,1),%rax
    8851:	48 31 c1             	xor    %rax,%rcx
    8854:	48 89 ca             	mov    %rcx,%rdx
    8857:	48 8b 44 24 08       	mov    0x8(%rsp),%rax
    885c:	48 89 90 a8 01 00 00 	mov    %rdx,0x1a8(%rax)
    8863:	8b 54 24 38          	mov    0x38(%rsp),%edx
    8867:	48 8b 44 24 08       	mov    0x8(%rsp),%rax
    886c:	89 90 9c 01 00 00    	mov    %edx,0x19c(%rax)
    8872:	48 8b 44 24 08       	mov    0x8(%rsp),%rax
    8877:	8b 80 9c 01 00 00    	mov    0x19c(%rax),%eax
    887d:	83 f8 40             	cmp    $0x40,%eax
    8880:	74 3e                	je     88c0 <_Z9undo_moveP7board_tj+0x239>
    8882:	48 8b 44 24 08       	mov    0x8(%rsp),%rax
    8887:	48 8b 88 a8 01 00 00 	mov    0x1a8(%rax),%rcx
    888e:	48 8b 44 24 08       	mov    0x8(%rsp),%rax
    8893:	8b 80 9c 01 00 00    	mov    0x19c(%rax),%eax
    8899:	48 98                	cltq
    889b:	48 8d 14 c5 00 00 00 	lea    0x0(,%rax,8),%rdx
    88a2:	00 
    88a3:	48 8d 05 76 65 0e 00 	lea    0xe6576(%rip),%rax        # eee20 <ep_keys>
    88aa:	48 8b 04 02          	mov    (%rdx,%rax,1),%rax
    88ae:	48 31 c1             	xor    %rax,%rcx
    88b1:	48 89 ca             	mov    %rcx,%rdx
    88b4:	48 8b 44 24 08       	mov    0x8(%rsp),%rax
    88b9:	48 89 90 a8 01 00 00 	mov    %rdx,0x1a8(%rax)
    88c0:	83 7c 24 20 05       	cmpl   $0x5,0x20(%rsp)
    88c5:	75 3f                	jne    8906 <_Z9undo_moveP7board_tj+0x27f>
    88c7:	48 8b 44 24 08       	mov    0x8(%rsp),%rax
    88cc:	8b 80 9c 01 00 00    	mov    0x19c(%rax),%eax
    88d2:	89 44 24 2c          	mov    %eax,0x2c(%rsp)
    88d6:	83 7c 24 24 00       	cmpl   $0x0,0x24(%rsp)
    88db:	74 07                	je     88e4 <_Z9undo_moveP7board_tj+0x25d>
    88dd:	b8 08 00 00 00       	mov    $0x8,%eax
    88e2:	eb 05                	jmp    88e9 <_Z9undo_moveP7board_tj+0x262>
    88e4:	b8 f8 ff ff ff       	mov    $0xfffffff8,%eax
    88e9:	01 44 24 2c          	add    %eax,0x2c(%rsp)
    88ed:	8b 4c 24 48          	mov    0x48(%rsp),%ecx
    88f1:	8b 54 24 2c          	mov    0x2c(%rsp),%edx
    88f5:	48 8b 44 24 08       	mov    0x8(%rsp),%rax
    88fa:	89 ce                	mov    %ecx,%esi
    88fc:	48 89 c7             	mov    %rax,%rdi
    88ff:	e8 3e f1 ff ff       	call   7a42 <_ZL9add_pieceP7board_tii>
    8904:	eb 1f                	jmp    8925 <_Z9undo_moveP7board_tj+0x29e>
    8906:	8b 44 24 48          	mov    0x48(%rsp),%eax
    890a:	85 c0                	test   %eax,%eax
    890c:	74 17                	je     8925 <_Z9undo_moveP7board_tj+0x29e>
    890e:	8b 4c 24 48          	mov    0x48(%rsp),%ecx
    8912:	8b 54 24 18          	mov    0x18(%rsp),%edx
    8916:	48 8b 44 24 08       	mov    0x8(%rsp),%rax
    891b:	89 ce                	mov    %ecx,%esi
    891d:	48 89 c7             	mov    %rax,%rdi
    8920:	e8 1d f1 ff ff       	call   7a42 <_ZL9add_pieceP7board_tii>
    8925:	83 7c 24 20 02       	cmpl   $0x2,0x20(%rsp)
    892a:	75 39                	jne    8965 <_Z9undo_moveP7board_tj+0x2de>
    892c:	83 7c 24 18 06       	cmpl   $0x6,0x18(%rsp)
    8931:	75 19                	jne    894c <_Z9undo_moveP7board_tj+0x2c5>
    8933:	48 8b 44 24 08       	mov    0x8(%rsp),%rax
    8938:	ba 07 00 00 00       	mov    $0x7,%edx
    893d:	be 05 00 00 00       	mov    $0x5,%esi
    8942:	48 89 c7             	mov    %rax,%rdi
    8945:	e8 11 f4 ff ff       	call   7d5b <_ZL8mv_pieceP7board_tii>
    894a:	eb 57                	jmp    89a3 <_Z9undo_moveP7board_tj+0x31c>
    894c:	48 8b 44 24 08       	mov    0x8(%rsp),%rax
    8951:	ba 3f 00 00 00       	mov    $0x3f,%edx
    8956:	be 3d 00 00 00       	mov    $0x3d,%esi
    895b:	48 89 c7             	mov    %rax,%rdi
    895e:	e8 f8 f3 ff ff       	call   7d5b <_ZL8mv_pieceP7board_tii>
    8963:	eb 3e                	jmp    89a3 <_Z9undo_moveP7board_tj+0x31c>
    8965:	83 7c 24 20 03       	cmpl   $0x3,0x20(%rsp)
    896a:	75 37                	jne    89a3 <_Z9undo_moveP7board_tj+0x31c>
    896c:	83 7c 24 18 02       	cmpl   $0x2,0x18(%rsp)
    8971:	75 19                	jne    898c <_Z9undo_moveP7board_tj+0x305>
    8973:	48 8b 44 24 08       	mov    0x8(%rsp),%rax
    8978:	ba 00 00 00 00       	mov    $0x0,%edx
    897d:	be 03 00 00 00       	mov    $0x3,%esi
    8982:	48 89 c7             	mov    %rax,%rdi
    8985:	e8 d1 f3 ff ff       	call   7d5b <_ZL8mv_pieceP7board_tii>
    898a:	eb 17                	jmp    89a3 <_Z9undo_moveP7board_tj+0x31c>
    898c:	48 8b 44 24 08       	mov    0x8(%rsp),%rax
    8991:	ba 38 00 00 00       	mov    $0x38,%edx
    8996:	be 3b 00 00 00       	mov    $0x3b,%esi
    899b:	48 89 c7             	mov    %rax,%rdi
    899e:	e8 b8 f3 ff ff       	call   7d5b <_ZL8mv_pieceP7board_tii>
    89a3:	48 8b 44 24 08       	mov    0x8(%rsp),%rax
    89a8:	48 8b 88 a8 01 00 00 	mov    0x1a8(%rax),%rcx
    89af:	48 8b 44 24 08       	mov    0x8(%rsp),%rax
    89b4:	8b 80 94 01 00 00    	mov    0x194(%rax),%eax
    89ba:	48 98                	cltq
    89bc:	48 8d 14 c5 00 00 00 	lea    0x0(,%rax,8),%rdx
    89c3:	00 
    89c4:	48 8d 05 d5 63 0e 00 	lea    0xe63d5(%rip),%rax        # eeda0 <castle_keys>
    89cb:	48 8b 04 02          	mov    (%rdx,%rax,1),%rax
    89cf:	48 31 c1             	xor    %rax,%rcx
    89d2:	48 89 ca             	mov    %rcx,%rdx
    89d5:	48 8b 44 24 08       	mov    0x8(%rsp),%rax
    89da:	48 89 90 a8 01 00 00 	mov    %rdx,0x1a8(%rax)
    89e1:	8b 54 24 34          	mov    0x34(%rsp),%edx
    89e5:	48 8b 44 24 08       	mov    0x8(%rsp),%rax
    89ea:	89 90 94 01 00 00    	mov    %edx,0x194(%rax)
    89f0:	48 8b 44 24 08       	mov    0x8(%rsp),%rax
    89f5:	48 8b 88 a8 01 00 00 	mov    0x1a8(%rax),%rcx
    89fc:	48 8b 44 24 08       	mov    0x8(%rsp),%rax
    8a01:	8b 80 94 01 00 00    	mov    0x194(%rax),%eax
    8a07:	48 98                	cltq
    8a09:	48 8d 14 c5 00 00 00 	lea    0x0(,%rax,8),%rdx
    8a10:	00 
    8a11:	48 8d 05 88 63 0e 00 	lea    0xe6388(%rip),%rax        # eeda0 <castle_keys>
    8a18:	48 8b 04 02          	mov    (%rdx,%rax,1),%rax
    8a1c:	48 31 c1             	xor    %rax,%rcx
    8a1f:	48 89 ca             	mov    %rcx,%rdx
    8a22:	48 8b 44 24 08       	mov    0x8(%rsp),%rax
    8a27:	48 89 90 a8 01 00 00 	mov    %rdx,0x1a8(%rax)
    8a2e:	8b 54 24 3c          	mov    0x3c(%rsp),%edx
    8a32:	48 8b 44 24 08       	mov    0x8(%rsp),%rax
    8a37:	89 90 98 01 00 00    	mov    %edx,0x198(%rax)
    8a3d:	48 8b 44 24 08       	mov    0x8(%rsp),%rax
    8a42:	8b 54 24 1c          	mov    0x1c(%rsp),%edx
    8a46:	48 63 d2             	movslq %edx,%rdx
    8a49:	48 83 c2 18          	add    $0x18,%rdx
    8a4d:	8b 44 90 18          	mov    0x18(%rax,%rdx,4),%eax
    8a51:	89 c7                	mov    %eax,%edi
    8a53:	e8 80 19 00 00       	call   a3d8 <_Z10piece_typei>
    8a58:	83 f8 06             	cmp    $0x6,%eax
    8a5b:	0f 94 c0             	sete   %al
    8a5e:	84 c0                	test   %al,%al
    8a60:	74 17                	je     8a79 <_Z9undo_moveP7board_tj+0x3f2>
    8a62:	48 8b 44 24 08       	mov    0x8(%rsp),%rax
    8a67:	8b 54 24 28          	mov    0x28(%rsp),%edx
    8a6b:	48 63 d2             	movslq %edx,%rdx
    8a6e:	48 83 c2 68          	add    $0x68,%rdx
    8a72:	8b 4c 24 1c          	mov    0x1c(%rsp),%ecx
    8a76:	89 0c 90             	mov    %ecx,(%rax,%rdx,4)
    8a79:	8b 44 24 04          	mov    0x4(%rsp),%eax
    8a7d:	25 00 80 00 00       	and    $0x8000,%eax
    8a82:	85 c0                	test   %eax,%eax
    8a84:	74 38                	je     8abe <_Z9undo_moveP7board_tj+0x437>
    8a86:	8b 54 24 1c          	mov    0x1c(%rsp),%edx
    8a8a:	48 8b 44 24 08       	mov    0x8(%rsp),%rax
    8a8f:	89 d6                	mov    %edx,%esi
    8a91:	48 89 c7             	mov    %rax,%rdi
    8a94:	e8 2c f1 ff ff       	call   7bc5 <_ZL8rm_pieceP7board_ti>
    8a99:	8b 44 24 24          	mov    0x24(%rsp),%eax
    8a9d:	89 c6                	mov    %eax,%esi
    8a9f:	bf 01 00 00 00       	mov    $0x1,%edi
    8aa4:	e8 3e 19 00 00       	call   a3e7 <_Z10set_colourii>
    8aa9:	89 c2                	mov    %eax,%edx
    8aab:	8b 4c 24 1c          	mov    0x1c(%rsp),%ecx
    8aaf:	48 8b 44 24 08       	mov    0x8(%rsp),%rax
    8ab4:	89 ce                	mov    %ecx,%esi
    8ab6:	48 89 c7             	mov    %rax,%rdi
    8ab9:	e8 84 ef ff ff       	call   7a42 <_ZL9add_pieceP7board_tii>
    8abe:	48 8b 44 24 08       	mov    0x8(%rsp),%rax
    8ac3:	8b 80 8c 01 00 00    	mov    0x18c(%rax),%eax
    8ac9:	8d 50 ff             	lea    -0x1(%rax),%edx
    8acc:	48 8b 44 24 08       	mov    0x8(%rsp),%rax
    8ad1:	89 90 8c 01 00 00    	mov    %edx,0x18c(%rax)
    8ad7:	48 8b 44 24 08       	mov    0x8(%rsp),%rax
    8adc:	48 89 c7             	mov    %rax,%rdi
    8adf:	e8 50 0f 00 00       	call   9a34 <_Z5checkPK7board_t>
    8ae4:	83 f0 01             	xor    $0x1,%eax
    8ae7:	84 c0                	test   %al,%al
    8ae9:	0f 84 9b 00 00 00    	je     8b8a <_Z9undo_moveP7board_tj+0x503>
    8aef:	48 8d 05 5c 8e 00 00 	lea    0x8e5c(%rip),%rax        # 11952 <_ZL9BORDER_SQ+0x172>
    8af6:	48 89 c6             	mov    %rax,%rsi
    8af9:	48 8d 05 22 8d 00 00 	lea    0x8d22(%rip),%rax        # 11822 <_ZL9BORDER_SQ+0x42>
    8b00:	48 89 c7             	mov    %rax,%rdi
    8b03:	b8 00 00 00 00       	mov    $0x0,%eax
    8b08:	e8 43 a5 ff ff       	call   3050 <printf@plt>
    8b0d:	48 8d 05 1b 8d 00 00 	lea    0x8d1b(%rip),%rax        # 1182f <_ZL9BORDER_SQ+0x4f>
    8b14:	48 89 c6             	mov    %rax,%rsi
    8b17:	48 8d 05 1d 8d 00 00 	lea    0x8d1d(%rip),%rax        # 1183b <_ZL9BORDER_SQ+0x5b>
    8b1e:	48 89 c7             	mov    %rax,%rdi
    8b21:	b8 00 00 00 00       	mov    $0x0,%eax
    8b26:	e8 25 a5 ff ff       	call   3050 <printf@plt>
    8b2b:	48 8d 05 10 8d 00 00 	lea    0x8d10(%rip),%rax        # 11842 <_ZL9BORDER_SQ+0x62>
    8b32:	48 89 c6             	mov    %rax,%rsi
    8b35:	48 8d 05 0f 8d 00 00 	lea    0x8d0f(%rip),%rax        # 1184b <_ZL9BORDER_SQ+0x6b>
    8b3c:	48 89 c7             	mov    %rax,%rdi
    8b3f:	b8 00 00 00 00       	mov    $0x0,%eax
    8b44:	e8 07 a5 ff ff       	call   3050 <printf@plt>
    8b49:	48 8d 05 02 8d 00 00 	lea    0x8d02(%rip),%rax        # 11852 <_ZL9BORDER_SQ+0x72>
    8b50:	48 89 c6             	mov    %rax,%rsi
    8b53:	48 8d 05 06 8d 00 00 	lea    0x8d06(%rip),%rax        # 11860 <_ZL9BORDER_SQ+0x80>
    8b5a:	48 89 c7             	mov    %rax,%rdi
    8b5d:	b8 00 00 00 00       	mov    $0x0,%eax
    8b62:	e8 e9 a4 ff ff       	call   3050 <printf@plt>
    8b67:	be 7c 02 00 00       	mov    $0x27c,%esi
    8b6c:	48 8d 05 f9 8c 00 00 	lea    0x8cf9(%rip),%rax        # 1186c <_ZL9BORDER_SQ+0x8c>
    8b73:	48 89 c7             	mov    %rax,%rdi
    8b76:	b8 00 00 00 00       	mov    $0x0,%eax
    8b7b:	e8 d0 a4 ff ff       	call   3050 <printf@plt>
    8b80:	bf 01 00 00 00       	mov    $0x1,%edi
    8b85:	e8 46 a7 ff ff       	call   32d0 <exit@plt>
    8b8a:	48 8b 44 24 08       	mov    0x8(%rsp),%rax
    8b8f:	48 89 c7             	mov    %rax,%rdi
    8b92:	e8 f9 00 00 00       	call   8c90 <_Z17check_against_refPK7board_t>
    8b97:	83 f0 01             	xor    $0x1,%eax
    8b9a:	84 c0                	test   %al,%al
    8b9c:	0f 84 9b 00 00 00    	je     8c3d <_Z9undo_moveP7board_tj+0x5b6>
    8ba2:	48 8d 05 bc 8d 00 00 	lea    0x8dbc(%rip),%rax        # 11965 <_ZL9BORDER_SQ+0x185>
    8ba9:	48 89 c6             	mov    %rax,%rsi
    8bac:	48 8d 05 6f 8c 00 00 	lea    0x8c6f(%rip),%rax        # 11822 <_ZL9BORDER_SQ+0x42>
    8bb3:	48 89 c7             	mov    %rax,%rdi
    8bb6:	b8 00 00 00 00       	mov    $0x0,%eax
    8bbb:	e8 90 a4 ff ff       	call   3050 <printf@plt>
    8bc0:	48 8d 05 68 8c 00 00 	lea    0x8c68(%rip),%rax        # 1182f <_ZL9BORDER_SQ+0x4f>
    8bc7:	48 89 c6             	mov    %rax,%rsi
    8bca:	48 8d 05 6a 8c 00 00 	lea    0x8c6a(%rip),%rax        # 1183b <_ZL9BORDER_SQ+0x5b>
    8bd1:	48 89 c7             	mov    %rax,%rdi
    8bd4:	b8 00 00 00 00       	mov    $0x0,%eax
    8bd9:	e8 72 a4 ff ff       	call   3050 <printf@plt>
    8bde:	48 8d 05 5d 8c 00 00 	lea    0x8c5d(%rip),%rax        # 11842 <_ZL9BORDER_SQ+0x62>
    8be5:	48 89 c6             	mov    %rax,%rsi
    8be8:	48 8d 05 5c 8c 00 00 	lea    0x8c5c(%rip),%rax        # 1184b <_ZL9BORDER_SQ+0x6b>
    8bef:	48 89 c7             	mov    %rax,%rdi
    8bf2:	b8 00 00 00 00       	mov    $0x0,%eax
    8bf7:	e8 54 a4 ff ff       	call   3050 <printf@plt>
    8bfc:	48 8d 05 4f 8c 00 00 	lea    0x8c4f(%rip),%rax        # 11852 <_ZL9BORDER_SQ+0x72>
    8c03:	48 89 c6             	mov    %rax,%rsi
    8c06:	48 8d 05 53 8c 00 00 	lea    0x8c53(%rip),%rax        # 11860 <_ZL9BORDER_SQ+0x80>
    8c0d:	48 89 c7             	mov    %rax,%rdi
    8c10:	b8 00 00 00 00       	mov    $0x0,%eax
    8c15:	e8 36 a4 ff ff       	call   3050 <printf@plt>
    8c1a:	be 80 02 00 00       	mov    $0x280,%esi
    8c1f:	48 8d 05 46 8c 00 00 	lea    0x8c46(%rip),%rax        # 1186c <_ZL9BORDER_SQ+0x8c>
    8c26:	48 89 c7             	mov    %rax,%rdi
    8c29:	b8 00 00 00 00       	mov    $0x0,%eax
    8c2e:	e8 1d a4 ff ff       	call   3050 <printf@plt>
    8c33:	bf 01 00 00 00       	mov    $0x1,%edi
    8c38:	e8 93 a6 ff ff       	call   32d0 <exit@plt>
    8c3d:	90                   	nop
    8c3e:	c9                   	leave
    8c3f:	c3                   	ret

0000000000008c40 <_Z9undo_moveP7board_t>:
    8c40:	55                   	push   %rbp
    8c41:	48 89 e5             	mov    %rsp,%rbp
    8c44:	48 83 ec 10          	sub    $0x10,%rsp
    8c48:	48 89 7d f8          	mov    %rdi,-0x8(%rbp)
    8c4c:	48 8b 45 f8          	mov    -0x8(%rbp),%rax
    8c50:	8b 80 90 01 00 00    	mov    0x190(%rax),%eax
    8c56:	85 c0                	test   %eax,%eax
    8c58:	7e 33                	jle    8c8d <_Z9undo_moveP7board_t+0x4d>
    8c5a:	48 8b 45 f8          	mov    -0x8(%rbp),%rax
    8c5e:	8b 80 90 01 00 00    	mov    0x190(%rax),%eax
    8c64:	ff c8                	dec    %eax
    8c66:	48 8b 55 f8          	mov    -0x8(%rbp),%rdx
    8c6a:	48 98                	cltq
    8c6c:	48 83 c0 0d          	add    $0xd,%rax
    8c70:	48 c1 e0 05          	shl    $0x5,%rax
    8c74:	48 01 d0             	add    %rdx,%rax
    8c77:	48 83 c0 10          	add    $0x10,%rax
    8c7b:	8b 10                	mov    (%rax),%edx
    8c7d:	48 8b 45 f8          	mov    -0x8(%rbp),%rax
    8c81:	89 d6                	mov    %edx,%esi
    8c83:	48 89 c7             	mov    %rax,%rdi
    8c86:	e8 fc f9 ff ff       	call   8687 <_Z9undo_moveP7board_tj>
    8c8b:	eb 01                	jmp    8c8e <_Z9undo_moveP7board_t+0x4e>
    8c8d:	90                   	nop
    8c8e:	c9                   	leave
    8c8f:	c3                   	ret

0000000000008c90 <_Z17check_against_refPK7board_t>:
    8c90:	55                   	push   %rbp
    8c91:	48 89 e5             	mov    %rsp,%rbp
    8c94:	53                   	push   %rbx
    8c95:	48 83 ec 58          	sub    $0x58,%rsp
    8c99:	48 89 7d a8          	mov    %rdi,-0x58(%rbp)
    8c9d:	64 48 8b 04 25 28 00 	mov    %fs:0x28,%rax
    8ca4:	00 00 
    8ca6:	48 89 45 e8          	mov    %rax,-0x18(%rbp)
    8caa:	31 c0                	xor    %eax,%eax
    8cac:	48 8d 05 9d 42 0e 00 	lea    0xe429d(%rip),%rax        # ecf50 <ref_boards>
    8cb3:	48 89 c7             	mov    %rax,%rdi
    8cb6:	e8 c1 1d 00 00       	call   aa7c <_ZNSt6vectorI7board_tSaIS0_EE4backEv>
    8cbb:	48 89 45 b8          	mov    %rax,-0x48(%rbp)
    8cbf:	48 8d 05 b8 8c 00 00 	lea    0x8cb8(%rip),%rax        # 1197e <_ZL9BORDER_SQ+0x19e>
    8cc6:	48 89 c6             	mov    %rax,%rsi
    8cc9:	48 8d 05 70 f9 00 00 	lea    0xf970(%rip),%rax        # 18640 <_ZSt4cout@GLIBCXX_3.4>
    8cd0:	48 89 c7             	mov    %rax,%rdi
    8cd3:	e8 48 a5 ff ff       	call   3220 <_ZStlsISt11char_traitsIcEERSt13basic_ostreamIcT_ES5_PKc@plt>
    8cd8:	48 8b 15 d1 f2 00 00 	mov    0xf2d1(%rip),%rdx        # 17fb0 <_ZSt4endlIcSt11char_traitsIcEERSt13basic_ostreamIT_T0_ES6_@GLIBCXX_3.4>
    8cdf:	48 89 d6             	mov    %rdx,%rsi
    8ce2:	48 89 c7             	mov    %rax,%rdi
    8ce5:	e8 66 a5 ff ff       	call   3250 <_ZNSolsEPFRSoS_E@plt>
    8cea:	48 8b 45 b8          	mov    -0x48(%rbp),%rax
    8cee:	be 01 00 00 00       	mov    $0x1,%esi
    8cf3:	48 89 c7             	mov    %rax,%rdi
    8cf6:	e8 5f e4 ff ff       	call   715a <_Z5printPK7board_tb>
    8cfb:	c7 45 b0 00 00 00 00 	movl   $0x0,-0x50(%rbp)
    8d02:	e9 6f 01 00 00       	jmp    8e76 <_Z17check_against_refPK7board_t+0x1e6>
    8d07:	48 8b 55 a8          	mov    -0x58(%rbp),%rdx
    8d0b:	8b 45 b0             	mov    -0x50(%rbp),%eax
    8d0e:	48 98                	cltq
    8d10:	48 8b 0c c2          	mov    (%rdx,%rax,8),%rcx
    8d14:	48 8b 55 b8          	mov    -0x48(%rbp),%rdx
    8d18:	8b 45 b0             	mov    -0x50(%rbp),%eax
    8d1b:	48 98                	cltq
    8d1d:	48 8b 04 c2          	mov    (%rdx,%rax,8),%rax
    8d21:	48 39 c1             	cmp    %rax,%rcx
    8d24:	0f 84 49 01 00 00    	je     8e73 <_Z17check_against_refPK7board_t+0x1e3>
    8d2a:	48 8d 05 5e 8c 00 00 	lea    0x8c5e(%rip),%rax        # 1198f <_ZL9BORDER_SQ+0x1af>
    8d31:	48 89 c6             	mov    %rax,%rsi
    8d34:	48 8d 05 05 f9 00 00 	lea    0xf905(%rip),%rax        # 18640 <_ZSt4cout@GLIBCXX_3.4>
    8d3b:	48 89 c7             	mov    %rax,%rdi
    8d3e:	e8 dd a4 ff ff       	call   3220 <_ZStlsISt11char_traitsIcEERSt13basic_ostreamIcT_ES5_PKc@plt>
    8d43:	48 89 c2             	mov    %rax,%rdx
    8d46:	8b 45 b0             	mov    -0x50(%rbp),%eax
    8d49:	48 98                	cltq
    8d4b:	48 8d 0d ce 88 00 00 	lea    0x88ce(%rip),%rcx        # 11620 <_ZL14piece_to_ascii>
    8d52:	0f b6 04 08          	movzbl (%rax,%rcx,1),%eax
    8d56:	0f be c0             	movsbl %al,%eax
    8d59:	89 c6                	mov    %eax,%esi
    8d5b:	48 89 d7             	mov    %rdx,%rdi
    8d5e:	e8 5d a5 ff ff       	call   32c0 <_ZStlsISt11char_traitsIcEERSt13basic_ostreamIcT_ES5_c@plt>
    8d63:	48 8b 15 46 f2 00 00 	mov    0xf246(%rip),%rdx        # 17fb0 <_ZSt4endlIcSt11char_traitsIcEERSt13basic_ostreamIT_T0_ES6_@GLIBCXX_3.4>
    8d6a:	48 89 d6             	mov    %rdx,%rsi
    8d6d:	48 89 c7             	mov    %rax,%rdi
    8d70:	e8 db a4 ff ff       	call   3250 <_ZNSolsEPFRSoS_E@plt>
    8d75:	8b 45 b0             	mov    -0x50(%rbp),%eax
    8d78:	48 98                	cltq
    8d7a:	48 8d 14 c5 00 00 00 	lea    0x0(,%rax,8),%rdx
    8d81:	00 
    8d82:	48 8b 45 a8          	mov    -0x58(%rbp),%rax
    8d86:	48 01 d0             	add    %rdx,%rax
    8d89:	48 89 c7             	mov    %rax,%rdi
    8d8c:	e8 c4 d3 ff ff       	call   6155 <_Z7printBBRKm>
    8d91:	48 8d 05 0a 8c 00 00 	lea    0x8c0a(%rip),%rax        # 119a2 <_ZL9BORDER_SQ+0x1c2>
    8d98:	48 89 c6             	mov    %rax,%rsi
    8d9b:	48 8d 05 9e f8 00 00 	lea    0xf89e(%rip),%rax        # 18640 <_ZSt4cout@GLIBCXX_3.4>
    8da2:	48 89 c7             	mov    %rax,%rdi
    8da5:	e8 76 a4 ff ff       	call   3220 <_ZStlsISt11char_traitsIcEERSt13basic_ostreamIcT_ES5_PKc@plt>
    8daa:	48 8b 15 ff f1 00 00 	mov    0xf1ff(%rip),%rdx        # 17fb0 <_ZSt4endlIcSt11char_traitsIcEERSt13basic_ostreamIT_T0_ES6_@GLIBCXX_3.4>
    8db1:	48 89 d6             	mov    %rdx,%rsi
    8db4:	48 89 c7             	mov    %rax,%rdi
    8db7:	e8 94 a4 ff ff       	call   3250 <_ZNSolsEPFRSoS_E@plt>
    8dbc:	8b 45 b0             	mov    -0x50(%rbp),%eax
    8dbf:	48 98                	cltq
    8dc1:	48 8d 14 c5 00 00 00 	lea    0x0(,%rax,8),%rdx
    8dc8:	00 
    8dc9:	48 8b 45 b8          	mov    -0x48(%rbp),%rax
    8dcd:	48 01 d0             	add    %rdx,%rax
    8dd0:	48 89 c7             	mov    %rax,%rdi
    8dd3:	e8 7d d3 ff ff       	call   6155 <_Z7printBBRKm>
    8dd8:	48 8d 05 c6 8b 00 00 	lea    0x8bc6(%rip),%rax        # 119a5 <_ZL9BORDER_SQ+0x1c5>
    8ddf:	48 89 c6             	mov    %rax,%rsi
    8de2:	48 8d 05 39 8a 00 00 	lea    0x8a39(%rip),%rax        # 11822 <_ZL9BORDER_SQ+0x42>
    8de9:	48 89 c7             	mov    %rax,%rdi
    8dec:	b8 00 00 00 00       	mov    $0x0,%eax
    8df1:	e8 5a a2 ff ff       	call   3050 <printf@plt>
    8df6:	48 8d 05 32 8a 00 00 	lea    0x8a32(%rip),%rax        # 1182f <_ZL9BORDER_SQ+0x4f>
    8dfd:	48 89 c6             	mov    %rax,%rsi
    8e00:	48 8d 05 34 8a 00 00 	lea    0x8a34(%rip),%rax        # 1183b <_ZL9BORDER_SQ+0x5b>
    8e07:	48 89 c7             	mov    %rax,%rdi
    8e0a:	b8 00 00 00 00       	mov    $0x0,%eax
    8e0f:	e8 3c a2 ff ff       	call   3050 <printf@plt>
    8e14:	48 8d 05 27 8a 00 00 	lea    0x8a27(%rip),%rax        # 11842 <_ZL9BORDER_SQ+0x62>
    8e1b:	48 89 c6             	mov    %rax,%rsi
    8e1e:	48 8d 05 26 8a 00 00 	lea    0x8a26(%rip),%rax        # 1184b <_ZL9BORDER_SQ+0x6b>
    8e25:	48 89 c7             	mov    %rax,%rdi
    8e28:	b8 00 00 00 00       	mov    $0x0,%eax
    8e2d:	e8 1e a2 ff ff       	call   3050 <printf@plt>
    8e32:	48 8d 05 19 8a 00 00 	lea    0x8a19(%rip),%rax        # 11852 <_ZL9BORDER_SQ+0x72>
    8e39:	48 89 c6             	mov    %rax,%rsi
    8e3c:	48 8d 05 1d 8a 00 00 	lea    0x8a1d(%rip),%rax        # 11860 <_ZL9BORDER_SQ+0x80>
    8e43:	48 89 c7             	mov    %rax,%rdi
    8e46:	b8 00 00 00 00       	mov    $0x0,%eax
    8e4b:	e8 00 a2 ff ff       	call   3050 <printf@plt>
    8e50:	be a1 02 00 00       	mov    $0x2a1,%esi
    8e55:	48 8d 05 10 8a 00 00 	lea    0x8a10(%rip),%rax        # 1186c <_ZL9BORDER_SQ+0x8c>
    8e5c:	48 89 c7             	mov    %rax,%rdi
    8e5f:	b8 00 00 00 00       	mov    $0x0,%eax
    8e64:	e8 e7 a1 ff ff       	call   3050 <printf@plt>
    8e69:	bf 01 00 00 00       	mov    $0x1,%edi
    8e6e:	e8 5d a4 ff ff       	call   32d0 <exit@plt>
    8e73:	ff 45 b0             	incl   -0x50(%rbp)
    8e76:	83 7d b0 0e          	cmpl   $0xe,-0x50(%rbp)
    8e7a:	0f 8e 87 fe ff ff    	jle    8d07 <_Z17check_against_refPK7board_t+0x77>
    8e80:	48 8d 05 24 8b 00 00 	lea    0x8b24(%rip),%rax        # 119ab <_ZL9BORDER_SQ+0x1cb>
    8e87:	48 89 c6             	mov    %rax,%rsi
    8e8a:	48 8d 05 af f7 00 00 	lea    0xf7af(%rip),%rax        # 18640 <_ZSt4cout@GLIBCXX_3.4>
    8e91:	48 89 c7             	mov    %rax,%rdi
    8e94:	e8 87 a3 ff ff       	call   3220 <_ZStlsISt11char_traitsIcEERSt13basic_ostreamIcT_ES5_PKc@plt>
    8e99:	c7 45 b4 00 00 00 00 	movl   $0x0,-0x4c(%rbp)
    8ea0:	e9 e4 01 00 00       	jmp    9089 <_Z17check_against_refPK7board_t+0x3f9>
    8ea5:	48 8b 45 a8          	mov    -0x58(%rbp),%rax
    8ea9:	8b 55 b4             	mov    -0x4c(%rbp),%edx
    8eac:	48 63 d2             	movslq %edx,%rdx
    8eaf:	48 83 c2 18          	add    $0x18,%rdx
    8eb3:	8b 4c 90 18          	mov    0x18(%rax,%rdx,4),%ecx
    8eb7:	48 8b 45 b8          	mov    -0x48(%rbp),%rax
    8ebb:	8b 55 b4             	mov    -0x4c(%rbp),%edx
    8ebe:	48 63 d2             	movslq %edx,%rdx
    8ec1:	48 83 c2 18          	add    $0x18,%rdx
    8ec5:	8b 44 90 18          	mov    0x18(%rax,%rdx,4),%eax
    8ec9:	39 c1                	cmp    %eax,%ecx
    8ecb:	0f 84 b5 01 00 00    	je     9086 <_Z17check_against_refPK7board_t+0x3f6>
    8ed1:	48 8d 05 d6 8a 00 00 	lea    0x8ad6(%rip),%rax        # 119ae <_ZL9BORDER_SQ+0x1ce>
    8ed8:	48 89 c6             	mov    %rax,%rsi
    8edb:	48 8d 05 5e f7 00 00 	lea    0xf75e(%rip),%rax        # 18640 <_ZSt4cout@GLIBCXX_3.4>
    8ee2:	48 89 c7             	mov    %rax,%rdi
    8ee5:	e8 36 a3 ff ff       	call   3220 <_ZStlsISt11char_traitsIcEERSt13basic_ostreamIcT_ES5_PKc@plt>
    8eea:	48 89 c3             	mov    %rax,%rbx
    8eed:	48 8d 45 c0          	lea    -0x40(%rbp),%rax
    8ef1:	8b 55 b4             	mov    -0x4c(%rbp),%edx
    8ef4:	89 d6                	mov    %edx,%esi
    8ef6:	48 89 c7             	mov    %rax,%rdi
    8ef9:	e8 03 14 00 00       	call   a301 <_Z13square_to_strB5cxx11i>
    8efe:	48 8d 45 c0          	lea    -0x40(%rbp),%rax
    8f02:	48 89 c6             	mov    %rax,%rsi
    8f05:	48 89 df             	mov    %rbx,%rdi
    8f08:	e8 03 a3 ff ff       	call   3210 <_ZStlsIcSt11char_traitsIcESaIcEERSt13basic_ostreamIT_T0_ES7_RKNSt7__cxx1112basic_stringIS4_S5_T1_EE@plt>
    8f0d:	48 8b 15 9c f0 00 00 	mov    0xf09c(%rip),%rdx        # 17fb0 <_ZSt4endlIcSt11char_traitsIcEERSt13basic_ostreamIT_T0_ES6_@GLIBCXX_3.4>
    8f14:	48 89 d6             	mov    %rdx,%rsi
    8f17:	48 89 c7             	mov    %rax,%rdi
    8f1a:	e8 31 a3 ff ff       	call   3250 <_ZNSolsEPFRSoS_E@plt>
    8f1f:	48 8d 45 c0          	lea    -0x40(%rbp),%rax
    8f23:	48 89 c7             	mov    %rax,%rdi
    8f26:	e8 05 a5 ff ff       	call   3430 <_ZNSt7__cxx1112basic_stringIcSt11char_traitsIcESaIcEED1Ev@plt>
    8f2b:	48 8d 05 90 8a 00 00 	lea    0x8a90(%rip),%rax        # 119c2 <_ZL9BORDER_SQ+0x1e2>
    8f32:	48 89 c6             	mov    %rax,%rsi
    8f35:	48 8d 05 04 f7 00 00 	lea    0xf704(%rip),%rax        # 18640 <_ZSt4cout@GLIBCXX_3.4>
    8f3c:	48 89 c7             	mov    %rax,%rdi
    8f3f:	e8 dc a2 ff ff       	call   3220 <_ZStlsISt11char_traitsIcEERSt13basic_ostreamIcT_ES5_PKc@plt>
    8f44:	48 89 c2             	mov    %rax,%rdx
    8f47:	48 8b 45 a8          	mov    -0x58(%rbp),%rax
    8f4b:	8b 4d b4             	mov    -0x4c(%rbp),%ecx
    8f4e:	48 63 c9             	movslq %ecx,%rcx
    8f51:	48 83 c1 18          	add    $0x18,%rcx
    8f55:	8b 44 88 18          	mov    0x18(%rax,%rcx,4),%eax
    8f59:	48 98                	cltq
    8f5b:	48 8d 0d be 86 00 00 	lea    0x86be(%rip),%rcx        # 11620 <_ZL14piece_to_ascii>
    8f62:	0f b6 04 08          	movzbl (%rax,%rcx,1),%eax
    8f66:	0f be c0             	movsbl %al,%eax
    8f69:	89 c6                	mov    %eax,%esi
    8f6b:	48 89 d7             	mov    %rdx,%rdi
    8f6e:	e8 4d a3 ff ff       	call   32c0 <_ZStlsISt11char_traitsIcEERSt13basic_ostreamIcT_ES5_c@plt>
    8f73:	48 89 c2             	mov    %rax,%rdx
    8f76:	48 8d 05 4a 8a 00 00 	lea    0x8a4a(%rip),%rax        # 119c7 <_ZL9BORDER_SQ+0x1e7>
    8f7d:	48 89 c6             	mov    %rax,%rsi
    8f80:	48 89 d7             	mov    %rdx,%rdi
    8f83:	e8 98 a2 ff ff       	call   3220 <_ZStlsISt11char_traitsIcEERSt13basic_ostreamIcT_ES5_PKc@plt>
    8f88:	48 89 c2             	mov    %rax,%rdx
    8f8b:	48 8b 45 b8          	mov    -0x48(%rbp),%rax
    8f8f:	8b 4d b4             	mov    -0x4c(%rbp),%ecx
    8f92:	48 63 c9             	movslq %ecx,%rcx
    8f95:	48 83 c1 18          	add    $0x18,%rcx
    8f99:	8b 44 88 18          	mov    0x18(%rax,%rcx,4),%eax
    8f9d:	48 98                	cltq
    8f9f:	48 8d 0d 7a 86 00 00 	lea    0x867a(%rip),%rcx        # 11620 <_ZL14piece_to_ascii>
    8fa6:	0f b6 04 08          	movzbl (%rax,%rcx,1),%eax
    8faa:	0f be c0             	movsbl %al,%eax
    8fad:	89 c6                	mov    %eax,%esi
    8faf:	48 89 d7             	mov    %rdx,%rdi
    8fb2:	e8 09 a3 ff ff       	call   32c0 <_ZStlsISt11char_traitsIcEERSt13basic_ostreamIcT_ES5_c@plt>
    8fb7:	48 8b 15 f2 ef 00 00 	mov    0xeff2(%rip),%rdx        # 17fb0 <_ZSt4endlIcSt11char_traitsIcEERSt13basic_ostreamIT_T0_ES6_@GLIBCXX_3.4>
    8fbe:	48 89 d6             	mov    %rdx,%rsi
    8fc1:	48 89 c7             	mov    %rax,%rdi
    8fc4:	e8 87 a2 ff ff       	call   3250 <_ZNSolsEPFRSoS_E@plt>
    8fc9:	48 8b 45 a8          	mov    -0x58(%rbp),%rax
    8fcd:	be 01 00 00 00       	mov    $0x1,%esi
    8fd2:	48 89 c7             	mov    %rax,%rdi
    8fd5:	e8 80 e1 ff ff       	call   715a <_Z5printPK7board_tb>
    8fda:	48 8b 45 b8          	mov    -0x48(%rbp),%rax
    8fde:	be 01 00 00 00       	mov    $0x1,%esi
    8fe3:	48 89 c7             	mov    %rax,%rdi
    8fe6:	e8 6f e1 ff ff       	call   715a <_Z5printPK7board_tb>
    8feb:	48 8d 05 b3 89 00 00 	lea    0x89b3(%rip),%rax        # 119a5 <_ZL9BORDER_SQ+0x1c5>
    8ff2:	48 89 c6             	mov    %rax,%rsi
    8ff5:	48 8d 05 26 88 00 00 	lea    0x8826(%rip),%rax        # 11822 <_ZL9BORDER_SQ+0x42>
    8ffc:	48 89 c7             	mov    %rax,%rdi
    8fff:	b8 00 00 00 00       	mov    $0x0,%eax
    9004:	e8 47 a0 ff ff       	call   3050 <printf@plt>
    9009:	48 8d 05 1f 88 00 00 	lea    0x881f(%rip),%rax        # 1182f <_ZL9BORDER_SQ+0x4f>
    9010:	48 89 c6             	mov    %rax,%rsi
    9013:	48 8d 05 21 88 00 00 	lea    0x8821(%rip),%rax        # 1183b <_ZL9BORDER_SQ+0x5b>
    901a:	48 89 c7             	mov    %rax,%rdi
    901d:	b8 00 00 00 00       	mov    $0x0,%eax
    9022:	e8 29 a0 ff ff       	call   3050 <printf@plt>
    9027:	48 8d 05 14 88 00 00 	lea    0x8814(%rip),%rax        # 11842 <_ZL9BORDER_SQ+0x62>
    902e:	48 89 c6             	mov    %rax,%rsi
    9031:	48 8d 05 13 88 00 00 	lea    0x8813(%rip),%rax        # 1184b <_ZL9BORDER_SQ+0x6b>
    9038:	48 89 c7             	mov    %rax,%rdi
    903b:	b8 00 00 00 00       	mov    $0x0,%eax
    9040:	e8 0b a0 ff ff       	call   3050 <printf@plt>
    9045:	48 8d 05 06 88 00 00 	lea    0x8806(%rip),%rax        # 11852 <_ZL9BORDER_SQ+0x72>
    904c:	48 89 c6             	mov    %rax,%rsi
    904f:	48 8d 05 0a 88 00 00 	lea    0x880a(%rip),%rax        # 11860 <_ZL9BORDER_SQ+0x80>
    9056:	48 89 c7             	mov    %rax,%rdi
    9059:	b8 00 00 00 00       	mov    $0x0,%eax
    905e:	e8 ed 9f ff ff       	call   3050 <printf@plt>
    9063:	be b2 02 00 00       	mov    $0x2b2,%esi
    9068:	48 8d 05 fd 87 00 00 	lea    0x87fd(%rip),%rax        # 1186c <_ZL9BORDER_SQ+0x8c>
    906f:	48 89 c7             	mov    %rax,%rdi
    9072:	b8 00 00 00 00       	mov    $0x0,%eax
    9077:	e8 d4 9f ff ff       	call   3050 <printf@plt>
    907c:	bf 01 00 00 00       	mov    $0x1,%edi
    9081:	e8 4a a2 ff ff       	call   32d0 <exit@plt>
    9086:	ff 45 b4             	incl   -0x4c(%rbp)
    9089:	83 7d b4 3f          	cmpl   $0x3f,-0x4c(%rbp)
    908d:	0f 8e 12 fe ff ff    	jle    8ea5 <_Z17check_against_refPK7board_t+0x215>
    9093:	48 8d 05 3c 89 00 00 	lea    0x893c(%rip),%rax        # 119d6 <_ZL9BORDER_SQ+0x1f6>
    909a:	48 89 c6             	mov    %rax,%rsi
    909d:	48 8d 05 9c f5 00 00 	lea    0xf59c(%rip),%rax        # 18640 <_ZSt4cout@GLIBCXX_3.4>
    90a4:	48 89 c7             	mov    %rax,%rdi
    90a7:	e8 74 a1 ff ff       	call   3220 <_ZStlsISt11char_traitsIcEERSt13basic_ostreamIcT_ES5_PKc@plt>
    90ac:	48 8b 45 a8          	mov    -0x58(%rbp),%rax
    90b0:	48 8b 90 80 01 00 00 	mov    0x180(%rax),%rdx
    90b7:	48 8b 45 b8          	mov    -0x48(%rbp),%rax
    90bb:	48 8b 80 80 01 00 00 	mov    0x180(%rax),%rax
    90c2:	48 39 c2             	cmp    %rax,%rdx
    90c5:	0f 84 9b 00 00 00    	je     9166 <_Z17check_against_refPK7board_t+0x4d6>
    90cb:	48 8d 05 0e 89 00 00 	lea    0x890e(%rip),%rax        # 119e0 <_ZL9BORDER_SQ+0x200>
    90d2:	48 89 c6             	mov    %rax,%rsi
    90d5:	48 8d 05 46 87 00 00 	lea    0x8746(%rip),%rax        # 11822 <_ZL9BORDER_SQ+0x42>
    90dc:	48 89 c7             	mov    %rax,%rdi
    90df:	b8 00 00 00 00       	mov    $0x0,%eax
    90e4:	e8 67 9f ff ff       	call   3050 <printf@plt>
    90e9:	48 8d 05 3f 87 00 00 	lea    0x873f(%rip),%rax        # 1182f <_ZL9BORDER_SQ+0x4f>
    90f0:	48 89 c6             	mov    %rax,%rsi
    90f3:	48 8d 05 41 87 00 00 	lea    0x8741(%rip),%rax        # 1183b <_ZL9BORDER_SQ+0x5b>
    90fa:	48 89 c7             	mov    %rax,%rdi
    90fd:	b8 00 00 00 00       	mov    $0x0,%eax
    9102:	e8 49 9f ff ff       	call   3050 <printf@plt>
    9107:	48 8d 05 34 87 00 00 	lea    0x8734(%rip),%rax        # 11842 <_ZL9BORDER_SQ+0x62>
    910e:	48 89 c6             	mov    %rax,%rsi
    9111:	48 8d 05 33 87 00 00 	lea    0x8733(%rip),%rax        # 1184b <_ZL9BORDER_SQ+0x6b>
    9118:	48 89 c7             	mov    %rax,%rdi
    911b:	b8 00 00 00 00       	mov    $0x0,%eax
    9120:	e8 2b 9f ff ff       	call   3050 <printf@plt>
    9125:	48 8d 05 26 87 00 00 	lea    0x8726(%rip),%rax        # 11852 <_ZL9BORDER_SQ+0x72>
    912c:	48 89 c6             	mov    %rax,%rsi
    912f:	48 8d 05 2a 87 00 00 	lea    0x872a(%rip),%rax        # 11860 <_ZL9BORDER_SQ+0x80>
    9136:	48 89 c7             	mov    %rax,%rdi
    9139:	b8 00 00 00 00       	mov    $0x0,%eax
    913e:	e8 0d 9f ff ff       	call   3050 <printf@plt>
    9143:	be b9 02 00 00       	mov    $0x2b9,%esi
    9148:	48 8d 05 1d 87 00 00 	lea    0x871d(%rip),%rax        # 1186c <_ZL9BORDER_SQ+0x8c>
    914f:	48 89 c7             	mov    %rax,%rdi
    9152:	b8 00 00 00 00       	mov    $0x0,%eax
    9157:	e8 f4 9e ff ff       	call   3050 <printf@plt>
    915c:	bf 01 00 00 00       	mov    $0x1,%edi
    9161:	e8 6a a1 ff ff       	call   32d0 <exit@plt>
    9166:	48 8b 45 a8          	mov    -0x58(%rbp),%rax
    916a:	48 8b 90 78 01 00 00 	mov    0x178(%rax),%rdx
    9171:	48 8b 45 b8          	mov    -0x48(%rbp),%rax
    9175:	48 8b 80 78 01 00 00 	mov    0x178(%rax),%rax
    917c:	48 39 c2             	cmp    %rax,%rdx
    917f:	0f 84 9b 00 00 00    	je     9220 <_Z17check_against_refPK7board_t+0x590>
    9185:	48 8d 05 8c 88 00 00 	lea    0x888c(%rip),%rax        # 11a18 <_ZL9BORDER_SQ+0x238>
    918c:	48 89 c6             	mov    %rax,%rsi
    918f:	48 8d 05 8c 86 00 00 	lea    0x868c(%rip),%rax        # 11822 <_ZL9BORDER_SQ+0x42>
    9196:	48 89 c7             	mov    %rax,%rdi
    9199:	b8 00 00 00 00       	mov    $0x0,%eax
    919e:	e8 ad 9e ff ff       	call   3050 <printf@plt>
    91a3:	48 8d 05 85 86 00 00 	lea    0x8685(%rip),%rax        # 1182f <_ZL9BORDER_SQ+0x4f>
    91aa:	48 89 c6             	mov    %rax,%rsi
    91ad:	48 8d 05 87 86 00 00 	lea    0x8687(%rip),%rax        # 1183b <_ZL9BORDER_SQ+0x5b>
    91b4:	48 89 c7             	mov    %rax,%rdi
    91b7:	b8 00 00 00 00       	mov    $0x0,%eax
    91bc:	e8 8f 9e ff ff       	call   3050 <printf@plt>
    91c1:	48 8d 05 7a 86 00 00 	lea    0x867a(%rip),%rax        # 11842 <_ZL9BORDER_SQ+0x62>
    91c8:	48 89 c6             	mov    %rax,%rsi
    91cb:	48 8d 05 79 86 00 00 	lea    0x8679(%rip),%rax        # 1184b <_ZL9BORDER_SQ+0x6b>
    91d2:	48 89 c7             	mov    %rax,%rdi
    91d5:	b8 00 00 00 00       	mov    $0x0,%eax
    91da:	e8 71 9e ff ff       	call   3050 <printf@plt>
    91df:	48 8d 05 6c 86 00 00 	lea    0x866c(%rip),%rax        # 11852 <_ZL9BORDER_SQ+0x72>
    91e6:	48 89 c6             	mov    %rax,%rsi
    91e9:	48 8d 05 70 86 00 00 	lea    0x8670(%rip),%rax        # 11860 <_ZL9BORDER_SQ+0x80>
    91f0:	48 89 c7             	mov    %rax,%rdi
    91f3:	b8 00 00 00 00       	mov    $0x0,%eax
    91f8:	e8 53 9e ff ff       	call   3050 <printf@plt>
    91fd:	be ba 02 00 00       	mov    $0x2ba,%esi
    9202:	48 8d 05 63 86 00 00 	lea    0x8663(%rip),%rax        # 1186c <_ZL9BORDER_SQ+0x8c>
    9209:	48 89 c7             	mov    %rax,%rdi
    920c:	b8 00 00 00 00       	mov    $0x0,%eax
    9211:	e8 3a 9e ff ff       	call   3050 <printf@plt>
    9216:	bf 01 00 00 00       	mov    $0x1,%edi
    921b:	e8 b0 a0 ff ff       	call   32d0 <exit@plt>
    9220:	48 8b 45 a8          	mov    -0x58(%rbp),%rax
    9224:	8b 90 88 01 00 00    	mov    0x188(%rax),%edx
    922a:	48 8b 45 b8          	mov    -0x48(%rbp),%rax
    922e:	8b 80 88 01 00 00    	mov    0x188(%rax),%eax
    9234:	39 c2                	cmp    %eax,%edx
    9236:	0f 84 9b 00 00 00    	je     92d7 <_Z17check_against_refPK7board_t+0x647>
    923c:	48 8d 05 0a 88 00 00 	lea    0x880a(%rip),%rax        # 11a4d <_ZL9BORDER_SQ+0x26d>
    9243:	48 89 c6             	mov    %rax,%rsi
    9246:	48 8d 05 d5 85 00 00 	lea    0x85d5(%rip),%rax        # 11822 <_ZL9BORDER_SQ+0x42>
    924d:	48 89 c7             	mov    %rax,%rdi
    9250:	b8 00 00 00 00       	mov    $0x0,%eax
    9255:	e8 f6 9d ff ff       	call   3050 <printf@plt>
    925a:	48 8d 05 ce 85 00 00 	lea    0x85ce(%rip),%rax        # 1182f <_ZL9BORDER_SQ+0x4f>
    9261:	48 89 c6             	mov    %rax,%rsi
    9264:	48 8d 05 d0 85 00 00 	lea    0x85d0(%rip),%rax        # 1183b <_ZL9BORDER_SQ+0x5b>
    926b:	48 89 c7             	mov    %rax,%rdi
    926e:	b8 00 00 00 00       	mov    $0x0,%eax
    9273:	e8 d8 9d ff ff       	call   3050 <printf@plt>
    9278:	48 8d 05 c3 85 00 00 	lea    0x85c3(%rip),%rax        # 11842 <_ZL9BORDER_SQ+0x62>
    927f:	48 89 c6             	mov    %rax,%rsi
    9282:	48 8d 05 c2 85 00 00 	lea    0x85c2(%rip),%rax        # 1184b <_ZL9BORDER_SQ+0x6b>
    9289:	48 89 c7             	mov    %rax,%rdi
    928c:	b8 00 00 00 00       	mov    $0x0,%eax
    9291:	e8 ba 9d ff ff       	call   3050 <printf@plt>
    9296:	48 8d 05 b5 85 00 00 	lea    0x85b5(%rip),%rax        # 11852 <_ZL9BORDER_SQ+0x72>
    929d:	48 89 c6             	mov    %rax,%rsi
    92a0:	48 8d 05 b9 85 00 00 	lea    0x85b9(%rip),%rax        # 11860 <_ZL9BORDER_SQ+0x80>
    92a7:	48 89 c7             	mov    %rax,%rdi
    92aa:	b8 00 00 00 00       	mov    $0x0,%eax
    92af:	e8 9c 9d ff ff       	call   3050 <printf@plt>
    92b4:	be bd 02 00 00       	mov    $0x2bd,%esi
    92b9:	48 8d 05 ac 85 00 00 	lea    0x85ac(%rip),%rax        # 1186c <_ZL9BORDER_SQ+0x8c>
    92c0:	48 89 c7             	mov    %rax,%rdi
    92c3:	b8 00 00 00 00       	mov    $0x0,%eax
    92c8:	e8 83 9d ff ff       	call   3050 <printf@plt>
    92cd:	bf 01 00 00 00       	mov    $0x1,%edi
    92d2:	e8 f9 9f ff ff       	call   32d0 <exit@plt>
    92d7:	48 8b 45 a8          	mov    -0x58(%rbp),%rax
    92db:	8b 90 8c 01 00 00    	mov    0x18c(%rax),%edx
    92e1:	48 8b 45 b8          	mov    -0x48(%rbp),%rax
    92e5:	8b 80 8c 01 00 00    	mov    0x18c(%rax),%eax
    92eb:	39 c2                	cmp    %eax,%edx
    92ed:	0f 84 9b 00 00 00    	je     938e <_Z17check_against_refPK7board_t+0x6fe>
    92f3:	48 8d 05 6a 87 00 00 	lea    0x876a(%rip),%rax        # 11a64 <_ZL9BORDER_SQ+0x284>
    92fa:	48 89 c6             	mov    %rax,%rsi
    92fd:	48 8d 05 1e 85 00 00 	lea    0x851e(%rip),%rax        # 11822 <_ZL9BORDER_SQ+0x42>
    9304:	48 89 c7             	mov    %rax,%rdi
    9307:	b8 00 00 00 00       	mov    $0x0,%eax
    930c:	e8 3f 9d ff ff       	call   3050 <printf@plt>
    9311:	48 8d 05 17 85 00 00 	lea    0x8517(%rip),%rax        # 1182f <_ZL9BORDER_SQ+0x4f>
    9318:	48 89 c6             	mov    %rax,%rsi
    931b:	48 8d 05 19 85 00 00 	lea    0x8519(%rip),%rax        # 1183b <_ZL9BORDER_SQ+0x5b>
    9322:	48 89 c7             	mov    %rax,%rdi
    9325:	b8 00 00 00 00       	mov    $0x0,%eax
    932a:	e8 21 9d ff ff       	call   3050 <printf@plt>
    932f:	48 8d 05 0c 85 00 00 	lea    0x850c(%rip),%rax        # 11842 <_ZL9BORDER_SQ+0x62>
    9336:	48 89 c6             	mov    %rax,%rsi
    9339:	48 8d 05 0b 85 00 00 	lea    0x850b(%rip),%rax        # 1184b <_ZL9BORDER_SQ+0x6b>
    9340:	48 89 c7             	mov    %rax,%rdi
    9343:	b8 00 00 00 00       	mov    $0x0,%eax
    9348:	e8 03 9d ff ff       	call   3050 <printf@plt>
    934d:	48 8d 05 fe 84 00 00 	lea    0x84fe(%rip),%rax        # 11852 <_ZL9BORDER_SQ+0x72>
    9354:	48 89 c6             	mov    %rax,%rsi
    9357:	48 8d 05 02 85 00 00 	lea    0x8502(%rip),%rax        # 11860 <_ZL9BORDER_SQ+0x80>
    935e:	48 89 c7             	mov    %rax,%rdi
    9361:	b8 00 00 00 00       	mov    $0x0,%eax
    9366:	e8 e5 9c ff ff       	call   3050 <printf@plt>
    936b:	be c0 02 00 00       	mov    $0x2c0,%esi
    9370:	48 8d 05 f5 84 00 00 	lea    0x84f5(%rip),%rax        # 1186c <_ZL9BORDER_SQ+0x8c>
    9377:	48 89 c7             	mov    %rax,%rdi
    937a:	b8 00 00 00 00       	mov    $0x0,%eax
    937f:	e8 cc 9c ff ff       	call   3050 <printf@plt>
    9384:	bf 01 00 00 00       	mov    $0x1,%edi
    9389:	e8 42 9f ff ff       	call   32d0 <exit@plt>
    938e:	48 8b 45 a8          	mov    -0x58(%rbp),%rax
    9392:	8b 90 90 01 00 00    	mov    0x190(%rax),%edx
    9398:	48 8b 45 b8          	mov    -0x48(%rbp),%rax
    939c:	8b 80 90 01 00 00    	mov    0x190(%rax),%eax
    93a2:	39 c2                	cmp    %eax,%edx
    93a4:	0f 84 9b 00 00 00    	je     9445 <_Z17check_against_refPK7board_t+0x7b5>
    93aa:	48 8d 05 cf 86 00 00 	lea    0x86cf(%rip),%rax        # 11a80 <_ZL9BORDER_SQ+0x2a0>
    93b1:	48 89 c6             	mov    %rax,%rsi
    93b4:	48 8d 05 67 84 00 00 	lea    0x8467(%rip),%rax        # 11822 <_ZL9BORDER_SQ+0x42>
    93bb:	48 89 c7             	mov    %rax,%rdi
    93be:	b8 00 00 00 00       	mov    $0x0,%eax
    93c3:	e8 88 9c ff ff       	call   3050 <printf@plt>
    93c8:	48 8d 05 60 84 00 00 	lea    0x8460(%rip),%rax        # 1182f <_ZL9BORDER_SQ+0x4f>
    93cf:	48 89 c6             	mov    %rax,%rsi
    93d2:	48 8d 05 62 84 00 00 	lea    0x8462(%rip),%rax        # 1183b <_ZL9BORDER_SQ+0x5b>
    93d9:	48 89 c7             	mov    %rax,%rdi
    93dc:	b8 00 00 00 00       	mov    $0x0,%eax
    93e1:	e8 6a 9c ff ff       	call   3050 <printf@plt>
    93e6:	48 8d 05 55 84 00 00 	lea    0x8455(%rip),%rax        # 11842 <_ZL9BORDER_SQ+0x62>
    93ed:	48 89 c6             	mov    %rax,%rsi
    93f0:	48 8d 05 54 84 00 00 	lea    0x8454(%rip),%rax        # 1184b <_ZL9BORDER_SQ+0x6b>
    93f7:	48 89 c7             	mov    %rax,%rdi
    93fa:	b8 00 00 00 00       	mov    $0x0,%eax
    93ff:	e8 4c 9c ff ff       	call   3050 <printf@plt>
    9404:	48 8d 05 47 84 00 00 	lea    0x8447(%rip),%rax        # 11852 <_ZL9BORDER_SQ+0x72>
    940b:	48 89 c6             	mov    %rax,%rsi
    940e:	48 8d 05 4b 84 00 00 	lea    0x844b(%rip),%rax        # 11860 <_ZL9BORDER_SQ+0x80>
    9415:	48 89 c7             	mov    %rax,%rdi
    9418:	b8 00 00 00 00       	mov    $0x0,%eax
    941d:	e8 2e 9c ff ff       	call   3050 <printf@plt>
    9422:	be c1 02 00 00       	mov    $0x2c1,%esi
    9427:	48 8d 05 3e 84 00 00 	lea    0x843e(%rip),%rax        # 1186c <_ZL9BORDER_SQ+0x8c>
    942e:	48 89 c7             	mov    %rax,%rdi
    9431:	b8 00 00 00 00       	mov    $0x0,%eax
    9436:	e8 15 9c ff ff       	call   3050 <printf@plt>
    943b:	bf 01 00 00 00       	mov    $0x1,%edi
    9440:	e8 8b 9e ff ff       	call   32d0 <exit@plt>
    9445:	48 8b 45 a8          	mov    -0x58(%rbp),%rax
    9449:	8b 90 98 01 00 00    	mov    0x198(%rax),%edx
    944f:	48 8b 45 b8          	mov    -0x48(%rbp),%rax
    9453:	8b 80 98 01 00 00    	mov    0x198(%rax),%eax
    9459:	39 c2                	cmp    %eax,%edx
    945b:	0f 84 9b 00 00 00    	je     94fc <_Z17check_against_refPK7board_t+0x86c>
    9461:	48 8d 05 40 86 00 00 	lea    0x8640(%rip),%rax        # 11aa8 <_ZL9BORDER_SQ+0x2c8>
    9468:	48 89 c6             	mov    %rax,%rsi
    946b:	48 8d 05 b0 83 00 00 	lea    0x83b0(%rip),%rax        # 11822 <_ZL9BORDER_SQ+0x42>
    9472:	48 89 c7             	mov    %rax,%rdi
    9475:	b8 00 00 00 00       	mov    $0x0,%eax
    947a:	e8 d1 9b ff ff       	call   3050 <printf@plt>
    947f:	48 8d 05 a9 83 00 00 	lea    0x83a9(%rip),%rax        # 1182f <_ZL9BORDER_SQ+0x4f>
    9486:	48 89 c6             	mov    %rax,%rsi
    9489:	48 8d 05 ab 83 00 00 	lea    0x83ab(%rip),%rax        # 1183b <_ZL9BORDER_SQ+0x5b>
    9490:	48 89 c7             	mov    %rax,%rdi
    9493:	b8 00 00 00 00       	mov    $0x0,%eax
    9498:	e8 b3 9b ff ff       	call   3050 <printf@plt>
    949d:	48 8d 05 9e 83 00 00 	lea    0x839e(%rip),%rax        # 11842 <_ZL9BORDER_SQ+0x62>
    94a4:	48 89 c6             	mov    %rax,%rsi
    94a7:	48 8d 05 9d 83 00 00 	lea    0x839d(%rip),%rax        # 1184b <_ZL9BORDER_SQ+0x6b>
    94ae:	48 89 c7             	mov    %rax,%rdi
    94b1:	b8 00 00 00 00       	mov    $0x0,%eax
    94b6:	e8 95 9b ff ff       	call   3050 <printf@plt>
    94bb:	48 8d 05 90 83 00 00 	lea    0x8390(%rip),%rax        # 11852 <_ZL9BORDER_SQ+0x72>
    94c2:	48 89 c6             	mov    %rax,%rsi
    94c5:	48 8d 05 94 83 00 00 	lea    0x8394(%rip),%rax        # 11860 <_ZL9BORDER_SQ+0x80>
    94cc:	48 89 c7             	mov    %rax,%rdi
    94cf:	b8 00 00 00 00       	mov    $0x0,%eax
    94d4:	e8 77 9b ff ff       	call   3050 <printf@plt>
    94d9:	be c2 02 00 00       	mov    $0x2c2,%esi
    94de:	48 8d 05 87 83 00 00 	lea    0x8387(%rip),%rax        # 1186c <_ZL9BORDER_SQ+0x8c>
    94e5:	48 89 c7             	mov    %rax,%rdi
    94e8:	b8 00 00 00 00       	mov    $0x0,%eax
    94ed:	e8 5e 9b ff ff       	call   3050 <printf@plt>
    94f2:	bf 01 00 00 00       	mov    $0x1,%edi
    94f7:	e8 d4 9d ff ff       	call   32d0 <exit@plt>
    94fc:	48 8b 45 a8          	mov    -0x58(%rbp),%rax
    9500:	8b 90 94 01 00 00    	mov    0x194(%rax),%edx
    9506:	48 8b 45 b8          	mov    -0x48(%rbp),%rax
    950a:	8b 80 94 01 00 00    	mov    0x194(%rax),%eax
    9510:	39 c2                	cmp    %eax,%edx
    9512:	0f 84 9b 00 00 00    	je     95b3 <_Z17check_against_refPK7board_t+0x923>
    9518:	48 8d 05 b1 85 00 00 	lea    0x85b1(%rip),%rax        # 11ad0 <_ZL9BORDER_SQ+0x2f0>
    951f:	48 89 c6             	mov    %rax,%rsi
    9522:	48 8d 05 f9 82 00 00 	lea    0x82f9(%rip),%rax        # 11822 <_ZL9BORDER_SQ+0x42>
    9529:	48 89 c7             	mov    %rax,%rdi
    952c:	b8 00 00 00 00       	mov    $0x0,%eax
    9531:	e8 1a 9b ff ff       	call   3050 <printf@plt>
    9536:	48 8d 05 f2 82 00 00 	lea    0x82f2(%rip),%rax        # 1182f <_ZL9BORDER_SQ+0x4f>
    953d:	48 89 c6             	mov    %rax,%rsi
    9540:	48 8d 05 f4 82 00 00 	lea    0x82f4(%rip),%rax        # 1183b <_ZL9BORDER_SQ+0x5b>
    9547:	48 89 c7             	mov    %rax,%rdi
    954a:	b8 00 00 00 00       	mov    $0x0,%eax
    954f:	e8 fc 9a ff ff       	call   3050 <printf@plt>
    9554:	48 8d 05 e7 82 00 00 	lea    0x82e7(%rip),%rax        # 11842 <_ZL9BORDER_SQ+0x62>
    955b:	48 89 c6             	mov    %rax,%rsi
    955e:	48 8d 05 e6 82 00 00 	lea    0x82e6(%rip),%rax        # 1184b <_ZL9BORDER_SQ+0x6b>
    9565:	48 89 c7             	mov    %rax,%rdi
    9568:	b8 00 00 00 00       	mov    $0x0,%eax
    956d:	e8 de 9a ff ff       	call   3050 <printf@plt>
    9572:	48 8d 05 d9 82 00 00 	lea    0x82d9(%rip),%rax        # 11852 <_ZL9BORDER_SQ+0x72>
    9579:	48 89 c6             	mov    %rax,%rsi
    957c:	48 8d 05 dd 82 00 00 	lea    0x82dd(%rip),%rax        # 11860 <_ZL9BORDER_SQ+0x80>
    9583:	48 89 c7             	mov    %rax,%rdi
    9586:	b8 00 00 00 00       	mov    $0x0,%eax
    958b:	e8 c0 9a ff ff       	call   3050 <printf@plt>
    9590:	be c5 02 00 00       	mov    $0x2c5,%esi
    9595:	48 8d 05 d0 82 00 00 	lea    0x82d0(%rip),%rax        # 1186c <_ZL9BORDER_SQ+0x8c>
    959c:	48 89 c7             	mov    %rax,%rdi
    959f:	b8 00 00 00 00       	mov    $0x0,%eax
    95a4:	e8 a7 9a ff ff       	call   3050 <printf@plt>
    95a9:	bf 01 00 00 00       	mov    $0x1,%edi
    95ae:	e8 1d 9d ff ff       	call   32d0 <exit@plt>
    95b3:	48 8d 05 3f 85 00 00 	lea    0x853f(%rip),%rax        # 11af9 <_ZL9BORDER_SQ+0x319>
    95ba:	48 89 c6             	mov    %rax,%rsi
    95bd:	48 8d 05 7c f0 00 00 	lea    0xf07c(%rip),%rax        # 18640 <_ZSt4cout@GLIBCXX_3.4>
    95c4:	48 89 c7             	mov    %rax,%rdi
    95c7:	e8 54 9c ff ff       	call   3220 <_ZStlsISt11char_traitsIcEERSt13basic_ostreamIcT_ES5_PKc@plt>
    95cc:	48 8b 45 a8          	mov    -0x58(%rbp),%rax
    95d0:	8b 90 9c 01 00 00    	mov    0x19c(%rax),%edx
    95d6:	48 8b 45 b8          	mov    -0x48(%rbp),%rax
    95da:	8b 80 9c 01 00 00    	mov    0x19c(%rax),%eax
    95e0:	39 c2                	cmp    %eax,%edx
    95e2:	0f 84 9b 00 00 00    	je     9683 <_Z17check_against_refPK7board_t+0x9f3>
    95e8:	48 8d 05 11 85 00 00 	lea    0x8511(%rip),%rax        # 11b00 <_ZL9BORDER_SQ+0x320>
    95ef:	48 89 c6             	mov    %rax,%rsi
    95f2:	48 8d 05 29 82 00 00 	lea    0x8229(%rip),%rax        # 11822 <_ZL9BORDER_SQ+0x42>
    95f9:	48 89 c7             	mov    %rax,%rdi
    95fc:	b8 00 00 00 00       	mov    $0x0,%eax
    9601:	e8 4a 9a ff ff       	call   3050 <printf@plt>
    9606:	48 8d 05 22 82 00 00 	lea    0x8222(%rip),%rax        # 1182f <_ZL9BORDER_SQ+0x4f>
    960d:	48 89 c6             	mov    %rax,%rsi
    9610:	48 8d 05 24 82 00 00 	lea    0x8224(%rip),%rax        # 1183b <_ZL9BORDER_SQ+0x5b>
    9617:	48 89 c7             	mov    %rax,%rdi
    961a:	b8 00 00 00 00       	mov    $0x0,%eax
    961f:	e8 2c 9a ff ff       	call   3050 <printf@plt>
    9624:	48 8d 05 17 82 00 00 	lea    0x8217(%rip),%rax        # 11842 <_ZL9BORDER_SQ+0x62>
    962b:	48 89 c6             	mov    %rax,%rsi
    962e:	48 8d 05 16 82 00 00 	lea    0x8216(%rip),%rax        # 1184b <_ZL9BORDER_SQ+0x6b>
    9635:	48 89 c7             	mov    %rax,%rdi
    9638:	b8 00 00 00 00       	mov    $0x0,%eax
    963d:	e8 0e 9a ff ff       	call   3050 <printf@plt>
    9642:	48 8d 05 09 82 00 00 	lea    0x8209(%rip),%rax        # 11852 <_ZL9BORDER_SQ+0x72>
    9649:	48 89 c6             	mov    %rax,%rsi
    964c:	48 8d 05 0d 82 00 00 	lea    0x820d(%rip),%rax        # 11860 <_ZL9BORDER_SQ+0x80>
    9653:	48 89 c7             	mov    %rax,%rdi
    9656:	b8 00 00 00 00       	mov    $0x0,%eax
    965b:	e8 f0 99 ff ff       	call   3050 <printf@plt>
    9660:	be ca 02 00 00       	mov    $0x2ca,%esi
    9665:	48 8d 05 00 82 00 00 	lea    0x8200(%rip),%rax        # 1186c <_ZL9BORDER_SQ+0x8c>
    966c:	48 89 c7             	mov    %rax,%rdi
    966f:	b8 00 00 00 00       	mov    $0x0,%eax
    9674:	e8 d7 99 ff ff       	call   3050 <printf@plt>
    9679:	bf 01 00 00 00       	mov    $0x1,%edi
    967e:	e8 4d 9c ff ff       	call   32d0 <exit@plt>
    9683:	48 8b 45 a8          	mov    -0x58(%rbp),%rax
    9687:	8b 90 a4 01 00 00    	mov    0x1a4(%rax),%edx
    968d:	48 8b 45 b8          	mov    -0x48(%rbp),%rax
    9691:	8b 80 a4 01 00 00    	mov    0x1a4(%rax),%eax
    9697:	39 c2                	cmp    %eax,%edx
    9699:	0f 84 9b 00 00 00    	je     973a <_Z17check_against_refPK7board_t+0xaaa>
    969f:	48 8d 05 82 84 00 00 	lea    0x8482(%rip),%rax        # 11b28 <_ZL9BORDER_SQ+0x348>
    96a6:	48 89 c6             	mov    %rax,%rsi
    96a9:	48 8d 05 72 81 00 00 	lea    0x8172(%rip),%rax        # 11822 <_ZL9BORDER_SQ+0x42>
    96b0:	48 89 c7             	mov    %rax,%rdi
    96b3:	b8 00 00 00 00       	mov    $0x0,%eax
    96b8:	e8 93 99 ff ff       	call   3050 <printf@plt>
    96bd:	48 8d 05 6b 81 00 00 	lea    0x816b(%rip),%rax        # 1182f <_ZL9BORDER_SQ+0x4f>
    96c4:	48 89 c6             	mov    %rax,%rsi
    96c7:	48 8d 05 6d 81 00 00 	lea    0x816d(%rip),%rax        # 1183b <_ZL9BORDER_SQ+0x5b>
    96ce:	48 89 c7             	mov    %rax,%rdi
    96d1:	b8 00 00 00 00       	mov    $0x0,%eax
    96d6:	e8 75 99 ff ff       	call   3050 <printf@plt>
    96db:	48 8d 05 60 81 00 00 	lea    0x8160(%rip),%rax        # 11842 <_ZL9BORDER_SQ+0x62>
    96e2:	48 89 c6             	mov    %rax,%rsi
    96e5:	48 8d 05 5f 81 00 00 	lea    0x815f(%rip),%rax        # 1184b <_ZL9BORDER_SQ+0x6b>
    96ec:	48 89 c7             	mov    %rax,%rdi
    96ef:	b8 00 00 00 00       	mov    $0x0,%eax
    96f4:	e8 57 99 ff ff       	call   3050 <printf@plt>
    96f9:	48 8d 05 52 81 00 00 	lea    0x8152(%rip),%rax        # 11852 <_ZL9BORDER_SQ+0x72>
    9700:	48 89 c6             	mov    %rax,%rsi
    9703:	48 8d 05 56 81 00 00 	lea    0x8156(%rip),%rax        # 11860 <_ZL9BORDER_SQ+0x80>
    970a:	48 89 c7             	mov    %rax,%rdi
    970d:	b8 00 00 00 00       	mov    $0x0,%eax
    9712:	e8 39 99 ff ff       	call   3050 <printf@plt>
    9717:	be cb 02 00 00       	mov    $0x2cb,%esi
    971c:	48 8d 05 49 81 00 00 	lea    0x8149(%rip),%rax        # 1186c <_ZL9BORDER_SQ+0x8c>
    9723:	48 89 c7             	mov    %rax,%rdi
    9726:	b8 00 00 00 00       	mov    $0x0,%eax
    972b:	e8 20 99 ff ff       	call   3050 <printf@plt>
    9730:	bf 01 00 00 00       	mov    $0x1,%edi
    9735:	e8 96 9b ff ff       	call   32d0 <exit@plt>
    973a:	48 8b 45 a8          	mov    -0x58(%rbp),%rax
    973e:	8b 90 a0 01 00 00    	mov    0x1a0(%rax),%edx
    9744:	48 8b 45 b8          	mov    -0x48(%rbp),%rax
    9748:	8b 80 a0 01 00 00    	mov    0x1a0(%rax),%eax
    974e:	39 c2                	cmp    %eax,%edx
    9750:	0f 84 9b 00 00 00    	je     97f1 <_Z17check_against_refPK7board_t+0xb61>
    9756:	48 8d 05 03 84 00 00 	lea    0x8403(%rip),%rax        # 11b60 <_ZL9BORDER_SQ+0x380>
    975d:	48 89 c6             	mov    %rax,%rsi
    9760:	48 8d 05 bb 80 00 00 	lea    0x80bb(%rip),%rax        # 11822 <_ZL9BORDER_SQ+0x42>
    9767:	48 89 c7             	mov    %rax,%rdi
    976a:	b8 00 00 00 00       	mov    $0x0,%eax
    976f:	e8 dc 98 ff ff       	call   3050 <printf@plt>
    9774:	48 8d 05 b4 80 00 00 	lea    0x80b4(%rip),%rax        # 1182f <_ZL9BORDER_SQ+0x4f>
    977b:	48 89 c6             	mov    %rax,%rsi
    977e:	48 8d 05 b6 80 00 00 	lea    0x80b6(%rip),%rax        # 1183b <_ZL9BORDER_SQ+0x5b>
    9785:	48 89 c7             	mov    %rax,%rdi
    9788:	b8 00 00 00 00       	mov    $0x0,%eax
    978d:	e8 be 98 ff ff       	call   3050 <printf@plt>
    9792:	48 8d 05 a9 80 00 00 	lea    0x80a9(%rip),%rax        # 11842 <_ZL9BORDER_SQ+0x62>
    9799:	48 89 c6             	mov    %rax,%rsi
    979c:	48 8d 05 a8 80 00 00 	lea    0x80a8(%rip),%rax        # 1184b <_ZL9BORDER_SQ+0x6b>
    97a3:	48 89 c7             	mov    %rax,%rdi
    97a6:	b8 00 00 00 00       	mov    $0x0,%eax
    97ab:	e8 a0 98 ff ff       	call   3050 <printf@plt>
    97b0:	48 8d 05 9b 80 00 00 	lea    0x809b(%rip),%rax        # 11852 <_ZL9BORDER_SQ+0x72>
    97b7:	48 89 c6             	mov    %rax,%rsi
    97ba:	48 8d 05 9f 80 00 00 	lea    0x809f(%rip),%rax        # 11860 <_ZL9BORDER_SQ+0x80>
    97c1:	48 89 c7             	mov    %rax,%rdi
    97c4:	b8 00 00 00 00       	mov    $0x0,%eax
    97c9:	e8 82 98 ff ff       	call   3050 <printf@plt>
    97ce:	be cc 02 00 00       	mov    $0x2cc,%esi
    97d3:	48 8d 05 92 80 00 00 	lea    0x8092(%rip),%rax        # 1186c <_ZL9BORDER_SQ+0x8c>
    97da:	48 89 c7             	mov    %rax,%rdi
    97dd:	b8 00 00 00 00       	mov    $0x0,%eax
    97e2:	e8 69 98 ff ff       	call   3050 <printf@plt>
    97e7:	bf 01 00 00 00       	mov    $0x1,%edi
    97ec:	e8 df 9a ff ff       	call   32d0 <exit@plt>
    97f1:	48 8d 05 9b 83 00 00 	lea    0x839b(%rip),%rax        # 11b93 <_ZL9BORDER_SQ+0x3b3>
    97f8:	48 89 c6             	mov    %rax,%rsi
    97fb:	48 8d 05 3e ee 00 00 	lea    0xee3e(%rip),%rax        # 18640 <_ZSt4cout@GLIBCXX_3.4>
    9802:	48 89 c7             	mov    %rax,%rdi
    9805:	e8 16 9a ff ff       	call   3220 <_ZStlsISt11char_traitsIcEERSt13basic_ostreamIcT_ES5_PKc@plt>
    980a:	48 8b 45 a8          	mov    -0x58(%rbp),%rax
    980e:	48 8b 90 a8 01 00 00 	mov    0x1a8(%rax),%rdx
    9815:	48 8b 45 b8          	mov    -0x48(%rbp),%rax
    9819:	48 8b 80 a8 01 00 00 	mov    0x1a8(%rax),%rax
    9820:	48 39 c2             	cmp    %rax,%rdx
    9823:	0f 84 b3 01 00 00    	je     99dc <_Z17check_against_refPK7board_t+0xd4c>
    9829:	48 8d 05 66 83 00 00 	lea    0x8366(%rip),%rax        # 11b96 <_ZL9BORDER_SQ+0x3b6>
    9830:	48 89 c6             	mov    %rax,%rsi
    9833:	48 8d 05 06 ee 00 00 	lea    0xee06(%rip),%rax        # 18640 <_ZSt4cout@GLIBCXX_3.4>
    983a:	48 89 c7             	mov    %rax,%rdi
    983d:	e8 de 99 ff ff       	call   3220 <_ZStlsISt11char_traitsIcEERSt13basic_ostreamIcT_ES5_PKc@plt>
    9842:	48 89 c2             	mov    %rax,%rdx
    9845:	48 8b 45 a8          	mov    -0x58(%rbp),%rax
    9849:	48 8b 80 a8 01 00 00 	mov    0x1a8(%rax),%rax
    9850:	48 89 c6             	mov    %rax,%rsi
    9853:	48 89 d7             	mov    %rdx,%rdi
    9856:	e8 15 98 ff ff       	call   3070 <_ZNSolsEm@plt>
    985b:	48 8d 05 40 83 00 00 	lea    0x8340(%rip),%rax        # 11ba2 <_ZL9BORDER_SQ+0x3c2>
    9862:	48 89 c6             	mov    %rax,%rsi
    9865:	48 8d 05 d4 ed 00 00 	lea    0xedd4(%rip),%rax        # 18640 <_ZSt4cout@GLIBCXX_3.4>
    986c:	48 89 c7             	mov    %rax,%rdi
    986f:	e8 ac 99 ff ff       	call   3220 <_ZStlsISt11char_traitsIcEERSt13basic_ostreamIcT_ES5_PKc@plt>
    9874:	48 89 c3             	mov    %rax,%rbx
    9877:	48 8b 45 a8          	mov    -0x58(%rbp),%rax
    987b:	48 89 c7             	mov    %rax,%rdi
    987e:	e8 9e df ff ff       	call   7821 <_Z16generate_pos_keyPK7board_t>
    9883:	48 89 c6             	mov    %rax,%rsi
    9886:	48 89 df             	mov    %rbx,%rdi
    9889:	e8 e2 97 ff ff       	call   3070 <_ZNSolsEm@plt>
    988e:	48 89 c2             	mov    %rax,%rdx
    9891:	48 8d 05 16 83 00 00 	lea    0x8316(%rip),%rax        # 11bae <_ZL9BORDER_SQ+0x3ce>
    9898:	48 89 c6             	mov    %rax,%rsi
    989b:	48 89 d7             	mov    %rdx,%rdi
    989e:	e8 7d 99 ff ff       	call   3220 <_ZStlsISt11char_traitsIcEERSt13basic_ostreamIcT_ES5_PKc@plt>
    98a3:	48 8b 15 06 e7 00 00 	mov    0xe706(%rip),%rdx        # 17fb0 <_ZSt4endlIcSt11char_traitsIcEERSt13basic_ostreamIT_T0_ES6_@GLIBCXX_3.4>
    98aa:	48 89 d6             	mov    %rdx,%rsi
    98ad:	48 89 c7             	mov    %rax,%rdi
    98b0:	e8 9b 99 ff ff       	call   3250 <_ZNSolsEPFRSoS_E@plt>
    98b5:	48 8d 05 f4 82 00 00 	lea    0x82f4(%rip),%rax        # 11bb0 <_ZL9BORDER_SQ+0x3d0>
    98bc:	48 89 c6             	mov    %rax,%rsi
    98bf:	48 8d 05 7a ed 00 00 	lea    0xed7a(%rip),%rax        # 18640 <_ZSt4cout@GLIBCXX_3.4>
    98c6:	48 89 c7             	mov    %rax,%rdi
    98c9:	e8 52 99 ff ff       	call   3220 <_ZStlsISt11char_traitsIcEERSt13basic_ostreamIcT_ES5_PKc@plt>
    98ce:	48 89 c2             	mov    %rax,%rdx
    98d1:	48 8b 45 b8          	mov    -0x48(%rbp),%rax
    98d5:	48 8b 80 a8 01 00 00 	mov    0x1a8(%rax),%rax
    98dc:	48 89 c6             	mov    %rax,%rsi
    98df:	48 89 d7             	mov    %rdx,%rdi
    98e2:	e8 89 97 ff ff       	call   3070 <_ZNSolsEm@plt>
    98e7:	48 8d 05 b4 82 00 00 	lea    0x82b4(%rip),%rax        # 11ba2 <_ZL9BORDER_SQ+0x3c2>
    98ee:	48 89 c6             	mov    %rax,%rsi
    98f1:	48 8d 05 48 ed 00 00 	lea    0xed48(%rip),%rax        # 18640 <_ZSt4cout@GLIBCXX_3.4>
    98f8:	48 89 c7             	mov    %rax,%rdi
    98fb:	e8 20 99 ff ff       	call   3220 <_ZStlsISt11char_traitsIcEERSt13basic_ostreamIcT_ES5_PKc@plt>
    9900:	48 89 c3             	mov    %rax,%rbx
    9903:	48 8b 45 b8          	mov    -0x48(%rbp),%rax
    9907:	48 89 c7             	mov    %rax,%rdi
    990a:	e8 12 df ff ff       	call   7821 <_Z16generate_pos_keyPK7board_t>
    990f:	48 89 c6             	mov    %rax,%rsi
    9912:	48 89 df             	mov    %rbx,%rdi
    9915:	e8 56 97 ff ff       	call   3070 <_ZNSolsEm@plt>
    991a:	48 89 c2             	mov    %rax,%rdx
    991d:	48 8d 05 8a 82 00 00 	lea    0x828a(%rip),%rax        # 11bae <_ZL9BORDER_SQ+0x3ce>
    9924:	48 89 c6             	mov    %rax,%rsi
    9927:	48 89 d7             	mov    %rdx,%rdi
    992a:	e8 f1 98 ff ff       	call   3220 <_ZStlsISt11char_traitsIcEERSt13basic_ostreamIcT_ES5_PKc@plt>
    992f:	48 8b 15 7a e6 00 00 	mov    0xe67a(%rip),%rdx        # 17fb0 <_ZSt4endlIcSt11char_traitsIcEERSt13basic_ostreamIT_T0_ES6_@GLIBCXX_3.4>
    9936:	48 89 d6             	mov    %rdx,%rsi
    9939:	48 89 c7             	mov    %rax,%rdi
    993c:	e8 0f 99 ff ff       	call   3250 <_ZNSolsEPFRSoS_E@plt>
    9941:	48 8d 05 5d 80 00 00 	lea    0x805d(%rip),%rax        # 119a5 <_ZL9BORDER_SQ+0x1c5>
    9948:	48 89 c6             	mov    %rax,%rsi
    994b:	48 8d 05 d0 7e 00 00 	lea    0x7ed0(%rip),%rax        # 11822 <_ZL9BORDER_SQ+0x42>
    9952:	48 89 c7             	mov    %rax,%rdi
    9955:	b8 00 00 00 00       	mov    $0x0,%eax
    995a:	e8 f1 96 ff ff       	call   3050 <printf@plt>
    995f:	48 8d 05 c9 7e 00 00 	lea    0x7ec9(%rip),%rax        # 1182f <_ZL9BORDER_SQ+0x4f>
    9966:	48 89 c6             	mov    %rax,%rsi
    9969:	48 8d 05 cb 7e 00 00 	lea    0x7ecb(%rip),%rax        # 1183b <_ZL9BORDER_SQ+0x5b>
    9970:	48 89 c7             	mov    %rax,%rdi
    9973:	b8 00 00 00 00       	mov    $0x0,%eax
    9978:	e8 d3 96 ff ff       	call   3050 <printf@plt>
    997d:	48 8d 05 be 7e 00 00 	lea    0x7ebe(%rip),%rax        # 11842 <_ZL9BORDER_SQ+0x62>
    9984:	48 89 c6             	mov    %rax,%rsi
    9987:	48 8d 05 bd 7e 00 00 	lea    0x7ebd(%rip),%rax        # 1184b <_ZL9BORDER_SQ+0x6b>
    998e:	48 89 c7             	mov    %rax,%rdi
    9991:	b8 00 00 00 00       	mov    $0x0,%eax
    9996:	e8 b5 96 ff ff       	call   3050 <printf@plt>
    999b:	48 8d 05 b0 7e 00 00 	lea    0x7eb0(%rip),%rax        # 11852 <_ZL9BORDER_SQ+0x72>
    99a2:	48 89 c6             	mov    %rax,%rsi
    99a5:	48 8d 05 b4 7e 00 00 	lea    0x7eb4(%rip),%rax        # 11860 <_ZL9BORDER_SQ+0x80>
    99ac:	48 89 c7             	mov    %rax,%rdi
    99af:	b8 00 00 00 00       	mov    $0x0,%eax
    99b4:	e8 97 96 ff ff       	call   3050 <printf@plt>
    99b9:	be d7 02 00 00       	mov    $0x2d7,%esi
    99be:	48 8d 05 a7 7e 00 00 	lea    0x7ea7(%rip),%rax        # 1186c <_ZL9BORDER_SQ+0x8c>
    99c5:	48 89 c7             	mov    %rax,%rdi
    99c8:	b8 00 00 00 00       	mov    $0x0,%eax
    99cd:	e8 7e 96 ff ff       	call   3050 <printf@plt>
    99d2:	bf 01 00 00 00       	mov    $0x1,%edi
    99d7:	e8 f4 98 ff ff       	call   32d0 <exit@plt>
    99dc:	48 8d 05 d9 81 00 00 	lea    0x81d9(%rip),%rax        # 11bbc <_ZL9BORDER_SQ+0x3dc>
    99e3:	48 89 c6             	mov    %rax,%rsi
    99e6:	48 8d 05 53 ec 00 00 	lea    0xec53(%rip),%rax        # 18640 <_ZSt4cout@GLIBCXX_3.4>
    99ed:	48 89 c7             	mov    %rax,%rdi
    99f0:	e8 2b 98 ff ff       	call   3220 <_ZStlsISt11char_traitsIcEERSt13basic_ostreamIcT_ES5_PKc@plt>
    99f5:	48 8d 05 54 35 0e 00 	lea    0xe3554(%rip),%rax        # ecf50 <ref_boards>
    99fc:	48 89 c7             	mov    %rax,%rdi
    99ff:	e8 da 10 00 00       	call   aade <_ZNSt6vectorI7board_tSaIS0_EE8pop_backEv>
    9a04:	0f 0b                	ud2
    9a06:	48 89 c3             	mov    %rax,%rbx
    9a09:	48 8d 45 c0          	lea    -0x40(%rbp),%rax
    9a0d:	48 89 c7             	mov    %rax,%rdi
    9a10:	e8 1b 9a ff ff       	call   3430 <_ZNSt7__cxx1112basic_stringIcSt11char_traitsIcESaIcEED1Ev@plt>
    9a15:	48 89 d8             	mov    %rbx,%rax
    9a18:	48 8b 55 e8          	mov    -0x18(%rbp),%rdx
    9a1c:	64 48 2b 14 25 28 00 	sub    %fs:0x28,%rdx
    9a23:	00 00 
    9a25:	74 05                	je     9a2c <_Z17check_against_refPK7board_t+0xd9c>
    9a27:	e8 74 98 ff ff       	call   32a0 <__stack_chk_fail@plt>
    9a2c:	48 89 c7             	mov    %rax,%rdi
    9a2f:	e8 9c 99 ff ff       	call   33d0 <_Unwind_Resume@plt>

0000000000009a34 <_Z5checkPK7board_t>:
    9a34:	55                   	push   %rbp
    9a35:	48 89 e5             	mov    %rsp,%rbp
    9a38:	48 83 ec 20          	sub    $0x20,%rsp
    9a3c:	48 89 7d e8          	mov    %rdi,-0x18(%rbp)
    9a40:	48 8b 45 e8          	mov    -0x18(%rbp),%rax
    9a44:	8b 80 88 01 00 00    	mov    0x188(%rax),%eax
    9a4a:	83 f8 01             	cmp    $0x1,%eax
    9a4d:	0f 84 ad 00 00 00    	je     9b00 <_Z5checkPK7board_t+0xcc>
    9a53:	48 8b 45 e8          	mov    -0x18(%rbp),%rax
    9a57:	8b 80 88 01 00 00    	mov    0x188(%rax),%eax
    9a5d:	85 c0                	test   %eax,%eax
    9a5f:	0f 84 9b 00 00 00    	je     9b00 <_Z5checkPK7board_t+0xcc>
    9a65:	48 8d 05 54 81 00 00 	lea    0x8154(%rip),%rax        # 11bc0 <_ZL9BORDER_SQ+0x3e0>
    9a6c:	48 89 c6             	mov    %rax,%rsi
    9a6f:	48 8d 05 ac 7d 00 00 	lea    0x7dac(%rip),%rax        # 11822 <_ZL9BORDER_SQ+0x42>
    9a76:	48 89 c7             	mov    %rax,%rdi
    9a79:	b8 00 00 00 00       	mov    $0x0,%eax
    9a7e:	e8 cd 95 ff ff       	call   3050 <printf@plt>
    9a83:	48 8d 05 a5 7d 00 00 	lea    0x7da5(%rip),%rax        # 1182f <_ZL9BORDER_SQ+0x4f>
    9a8a:	48 89 c6             	mov    %rax,%rsi
    9a8d:	48 8d 05 a7 7d 00 00 	lea    0x7da7(%rip),%rax        # 1183b <_ZL9BORDER_SQ+0x5b>
    9a94:	48 89 c7             	mov    %rax,%rdi
    9a97:	b8 00 00 00 00       	mov    $0x0,%eax
    9a9c:	e8 af 95 ff ff       	call   3050 <printf@plt>
    9aa1:	48 8d 05 9a 7d 00 00 	lea    0x7d9a(%rip),%rax        # 11842 <_ZL9BORDER_SQ+0x62>
    9aa8:	48 89 c6             	mov    %rax,%rsi
    9aab:	48 8d 05 99 7d 00 00 	lea    0x7d99(%rip),%rax        # 1184b <_ZL9BORDER_SQ+0x6b>
    9ab2:	48 89 c7             	mov    %rax,%rdi
    9ab5:	b8 00 00 00 00       	mov    $0x0,%eax
    9aba:	e8 91 95 ff ff       	call   3050 <printf@plt>
    9abf:	48 8d 05 8c 7d 00 00 	lea    0x7d8c(%rip),%rax        # 11852 <_ZL9BORDER_SQ+0x72>
    9ac6:	48 89 c6             	mov    %rax,%rsi
    9ac9:	48 8d 05 90 7d 00 00 	lea    0x7d90(%rip),%rax        # 11860 <_ZL9BORDER_SQ+0x80>
    9ad0:	48 89 c7             	mov    %rax,%rdi
    9ad3:	b8 00 00 00 00       	mov    $0x0,%eax
    9ad8:	e8 73 95 ff ff       	call   3050 <printf@plt>
    9add:	be e2 02 00 00       	mov    $0x2e2,%esi
    9ae2:	48 8d 05 83 7d 00 00 	lea    0x7d83(%rip),%rax        # 1186c <_ZL9BORDER_SQ+0x8c>
    9ae9:	48 89 c7             	mov    %rax,%rdi
    9aec:	b8 00 00 00 00       	mov    $0x0,%eax
    9af1:	e8 5a 95 ff ff       	call   3050 <printf@plt>
    9af6:	bf 01 00 00 00       	mov    $0x1,%edi
    9afb:	e8 d0 97 ff ff       	call   32d0 <exit@plt>
    9b00:	48 8b 45 e8          	mov    -0x18(%rbp),%rax
    9b04:	48 89 c7             	mov    %rax,%rdi
    9b07:	e8 15 dd ff ff       	call   7821 <_Z16generate_pos_keyPK7board_t>
    9b0c:	48 89 45 f8          	mov    %rax,-0x8(%rbp)
    9b10:	48 8b 45 e8          	mov    -0x18(%rbp),%rax
    9b14:	48 8b 80 a8 01 00 00 	mov    0x1a8(%rax),%rax
    9b1b:	48 39 45 f8          	cmp    %rax,-0x8(%rbp)
    9b1f:	0f 84 9f 00 00 00    	je     9bc4 <_Z5checkPK7board_t+0x190>
    9b25:	48 8d 05 f2 09 00 00 	lea    0x9f2(%rip),%rax        # a51e <_ZSt3hexRSt8ios_base>
    9b2c:	48 89 c6             	mov    %rax,%rsi
    9b2f:	48 8d 05 0a eb 00 00 	lea    0xeb0a(%rip),%rax        # 18640 <_ZSt4cout@GLIBCXX_3.4>
    9b36:	48 89 c7             	mov    %rax,%rdi
    9b39:	e8 42 95 ff ff       	call   3080 <_ZNSolsEPFRSt8ios_baseS0_E@plt>
    9b3e:	48 89 c2             	mov    %rax,%rdx
    9b41:	48 8d 05 a5 80 00 00 	lea    0x80a5(%rip),%rax        # 11bed <_ZL9BORDER_SQ+0x40d>
    9b48:	48 89 c6             	mov    %rax,%rsi
    9b4b:	48 89 d7             	mov    %rdx,%rdi
    9b4e:	e8 cd 96 ff ff       	call   3220 <_ZStlsISt11char_traitsIcEERSt13basic_ostreamIcT_ES5_PKc@plt>
    9b53:	48 89 c2             	mov    %rax,%rdx
    9b56:	48 8b 45 f8          	mov    -0x8(%rbp),%rax
    9b5a:	48 89 c6             	mov    %rax,%rsi
    9b5d:	48 89 d7             	mov    %rdx,%rdi
    9b60:	e8 0b 95 ff ff       	call   3070 <_ZNSolsEm@plt>
    9b65:	48 89 c2             	mov    %rax,%rdx
    9b68:	48 8d 05 89 80 00 00 	lea    0x8089(%rip),%rax        # 11bf8 <_ZL9BORDER_SQ+0x418>
    9b6f:	48 89 c6             	mov    %rax,%rsi
    9b72:	48 89 d7             	mov    %rdx,%rdi
    9b75:	e8 a6 96 ff ff       	call   3220 <_ZStlsISt11char_traitsIcEERSt13basic_ostreamIcT_ES5_PKc@plt>
    9b7a:	48 89 c2             	mov    %rax,%rdx
    9b7d:	48 8b 45 e8          	mov    -0x18(%rbp),%rax
    9b81:	48 8b 80 a8 01 00 00 	mov    0x1a8(%rax),%rax
    9b88:	48 89 c6             	mov    %rax,%rsi
    9b8b:	48 89 d7             	mov    %rdx,%rdi
    9b8e:	e8 dd 94 ff ff       	call   3070 <_ZNSolsEm@plt>
    9b93:	48 89 c2             	mov    %rax,%rdx
    9b96:	48 8d 05 59 09 00 00 	lea    0x959(%rip),%rax        # a4f6 <_ZSt3decRSt8ios_base>
    9b9d:	48 89 c6             	mov    %rax,%rsi
    9ba0:	48 89 d7             	mov    %rdx,%rdi
    9ba3:	e8 d8 94 ff ff       	call   3080 <_ZNSolsEPFRSt8ios_baseS0_E@plt>
    9ba8:	48 8b 15 01 e4 00 00 	mov    0xe401(%rip),%rdx        # 17fb0 <_ZSt4endlIcSt11char_traitsIcEERSt13basic_ostreamIT_T0_ES6_@GLIBCXX_3.4>
    9baf:	48 89 d6             	mov    %rdx,%rsi
    9bb2:	48 89 c7             	mov    %rax,%rdi
    9bb5:	e8 96 96 ff ff       	call   3250 <_ZNSolsEPFRSoS_E@plt>
    9bba:	b8 00 00 00 00       	mov    $0x0,%eax
    9bbf:	e9 38 03 00 00       	jmp    9efc <_Z5checkPK7board_t+0x4c8>
    9bc4:	48 8b 45 e8          	mov    -0x18(%rbp),%rax
    9bc8:	8b 80 9c 01 00 00    	mov    0x19c(%rax),%eax
    9bce:	83 f8 40             	cmp    $0x40,%eax
    9bd1:	0f 84 e4 00 00 00    	je     9cbb <_Z5checkPK7board_t+0x287>
    9bd7:	48 8b 45 e8          	mov    -0x18(%rbp),%rax
    9bdb:	8b 80 9c 01 00 00    	mov    0x19c(%rax),%eax
    9be1:	c1 f8 03             	sar    $0x3,%eax
    9be4:	83 f8 02             	cmp    $0x2,%eax
    9be7:	75 12                	jne    9bfb <_Z5checkPK7board_t+0x1c7>
    9be9:	48 8b 45 e8          	mov    -0x18(%rbp),%rax
    9bed:	8b 80 88 01 00 00    	mov    0x188(%rax),%eax
    9bf3:	85 c0                	test   %eax,%eax
    9bf5:	0f 84 c0 00 00 00    	je     9cbb <_Z5checkPK7board_t+0x287>
    9bfb:	48 8b 45 e8          	mov    -0x18(%rbp),%rax
    9bff:	8b 80 9c 01 00 00    	mov    0x19c(%rax),%eax
    9c05:	c1 f8 03             	sar    $0x3,%eax
    9c08:	83 f8 05             	cmp    $0x5,%eax
    9c0b:	75 13                	jne    9c20 <_Z5checkPK7board_t+0x1ec>
    9c0d:	48 8b 45 e8          	mov    -0x18(%rbp),%rax
    9c11:	8b 80 88 01 00 00    	mov    0x188(%rax),%eax
    9c17:	83 f8 01             	cmp    $0x1,%eax
    9c1a:	0f 84 9b 00 00 00    	je     9cbb <_Z5checkPK7board_t+0x287>
    9c20:	48 8d 05 d9 7f 00 00 	lea    0x7fd9(%rip),%rax        # 11c00 <_ZL9BORDER_SQ+0x420>
    9c27:	48 89 c6             	mov    %rax,%rsi
    9c2a:	48 8d 05 f1 7b 00 00 	lea    0x7bf1(%rip),%rax        # 11822 <_ZL9BORDER_SQ+0x42>
    9c31:	48 89 c7             	mov    %rax,%rdi
    9c34:	b8 00 00 00 00       	mov    $0x0,%eax
    9c39:	e8 12 94 ff ff       	call   3050 <printf@plt>
    9c3e:	48 8d 05 ea 7b 00 00 	lea    0x7bea(%rip),%rax        # 1182f <_ZL9BORDER_SQ+0x4f>
    9c45:	48 89 c6             	mov    %rax,%rsi
    9c48:	48 8d 05 ec 7b 00 00 	lea    0x7bec(%rip),%rax        # 1183b <_ZL9BORDER_SQ+0x5b>
    9c4f:	48 89 c7             	mov    %rax,%rdi
    9c52:	b8 00 00 00 00       	mov    $0x0,%eax
    9c57:	e8 f4 93 ff ff       	call   3050 <printf@plt>
    9c5c:	48 8d 05 df 7b 00 00 	lea    0x7bdf(%rip),%rax        # 11842 <_ZL9BORDER_SQ+0x62>
    9c63:	48 89 c6             	mov    %rax,%rsi
    9c66:	48 8d 05 de 7b 00 00 	lea    0x7bde(%rip),%rax        # 1184b <_ZL9BORDER_SQ+0x6b>
    9c6d:	48 89 c7             	mov    %rax,%rdi
    9c70:	b8 00 00 00 00       	mov    $0x0,%eax
    9c75:	e8 d6 93 ff ff       	call   3050 <printf@plt>
    9c7a:	48 8d 05 d1 7b 00 00 	lea    0x7bd1(%rip),%rax        # 11852 <_ZL9BORDER_SQ+0x72>
    9c81:	48 89 c6             	mov    %rax,%rsi
    9c84:	48 8d 05 d5 7b 00 00 	lea    0x7bd5(%rip),%rax        # 11860 <_ZL9BORDER_SQ+0x80>
    9c8b:	48 89 c7             	mov    %rax,%rdi
    9c8e:	b8 00 00 00 00       	mov    $0x0,%eax
    9c93:	e8 b8 93 ff ff       	call   3050 <printf@plt>
    9c98:	be ed 02 00 00       	mov    $0x2ed,%esi
    9c9d:	48 8d 05 c8 7b 00 00 	lea    0x7bc8(%rip),%rax        # 1186c <_ZL9BORDER_SQ+0x8c>
    9ca4:	48 89 c7             	mov    %rax,%rdi
    9ca7:	b8 00 00 00 00       	mov    $0x0,%eax
    9cac:	e8 9f 93 ff ff       	call   3050 <printf@plt>
    9cb1:	bf 01 00 00 00       	mov    $0x1,%edi
    9cb6:	e8 15 96 ff ff       	call   32d0 <exit@plt>
    9cbb:	48 8b 45 e8          	mov    -0x18(%rbp),%rax
    9cbf:	8b 80 a4 01 00 00    	mov    0x1a4(%rax),%eax
    9cc5:	ba 01 00 00 00       	mov    $0x1,%edx
    9cca:	c4 e2 f9 f7 d2       	shlx   %rax,%rdx,%rdx
    9ccf:	48 8b 45 e8          	mov    -0x18(%rbp),%rax
    9cd3:	48 8b 40 30          	mov    0x30(%rax),%rax
    9cd7:	48 39 c2             	cmp    %rax,%rdx
    9cda:	0f 84 9b 00 00 00    	je     9d7b <_Z5checkPK7board_t+0x347>
    9ce0:	48 8d 05 c1 7f 00 00 	lea    0x7fc1(%rip),%rax        # 11ca8 <_ZL9BORDER_SQ+0x4c8>
    9ce7:	48 89 c6             	mov    %rax,%rsi
    9cea:	48 8d 05 31 7b 00 00 	lea    0x7b31(%rip),%rax        # 11822 <_ZL9BORDER_SQ+0x42>
    9cf1:	48 89 c7             	mov    %rax,%rdi
    9cf4:	b8 00 00 00 00       	mov    $0x0,%eax
    9cf9:	e8 52 93 ff ff       	call   3050 <printf@plt>
    9cfe:	48 8d 05 2a 7b 00 00 	lea    0x7b2a(%rip),%rax        # 1182f <_ZL9BORDER_SQ+0x4f>
    9d05:	48 89 c6             	mov    %rax,%rsi
    9d08:	48 8d 05 2c 7b 00 00 	lea    0x7b2c(%rip),%rax        # 1183b <_ZL9BORDER_SQ+0x5b>
    9d0f:	48 89 c7             	mov    %rax,%rdi
    9d12:	b8 00 00 00 00       	mov    $0x0,%eax
    9d17:	e8 34 93 ff ff       	call   3050 <printf@plt>
    9d1c:	48 8d 05 1f 7b 00 00 	lea    0x7b1f(%rip),%rax        # 11842 <_ZL9BORDER_SQ+0x62>
    9d23:	48 89 c6             	mov    %rax,%rsi
    9d26:	48 8d 05 1e 7b 00 00 	lea    0x7b1e(%rip),%rax        # 1184b <_ZL9BORDER_SQ+0x6b>
    9d2d:	48 89 c7             	mov    %rax,%rdi
    9d30:	b8 00 00 00 00       	mov    $0x0,%eax
    9d35:	e8 16 93 ff ff       	call   3050 <printf@plt>
    9d3a:	48 8d 05 11 7b 00 00 	lea    0x7b11(%rip),%rax        # 11852 <_ZL9BORDER_SQ+0x72>
    9d41:	48 89 c6             	mov    %rax,%rsi
    9d44:	48 8d 05 15 7b 00 00 	lea    0x7b15(%rip),%rax        # 11860 <_ZL9BORDER_SQ+0x80>
    9d4b:	48 89 c7             	mov    %rax,%rdi
    9d4e:	b8 00 00 00 00       	mov    $0x0,%eax
    9d53:	e8 f8 92 ff ff       	call   3050 <printf@plt>
    9d58:	be f1 02 00 00       	mov    $0x2f1,%esi
    9d5d:	48 8d 05 08 7b 00 00 	lea    0x7b08(%rip),%rax        # 1186c <_ZL9BORDER_SQ+0x8c>
    9d64:	48 89 c7             	mov    %rax,%rdi
    9d67:	b8 00 00 00 00       	mov    $0x0,%eax
    9d6c:	e8 df 92 ff ff       	call   3050 <printf@plt>
    9d71:	bf 01 00 00 00       	mov    $0x1,%edi
    9d76:	e8 55 95 ff ff       	call   32d0 <exit@plt>
    9d7b:	48 8b 45 e8          	mov    -0x18(%rbp),%rax
    9d7f:	8b 80 a0 01 00 00    	mov    0x1a0(%rax),%eax
    9d85:	ba 01 00 00 00       	mov    $0x1,%edx
    9d8a:	c4 e2 f9 f7 d2       	shlx   %rax,%rdx,%rdx
    9d8f:	48 8b 45 e8          	mov    -0x18(%rbp),%rax
    9d93:	48 8b 40 70          	mov    0x70(%rax),%rax
    9d97:	48 39 c2             	cmp    %rax,%rdx
    9d9a:	0f 84 9b 00 00 00    	je     9e3b <_Z5checkPK7board_t+0x407>
    9da0:	48 8d 05 41 7f 00 00 	lea    0x7f41(%rip),%rax        # 11ce8 <_ZL9BORDER_SQ+0x508>
    9da7:	48 89 c6             	mov    %rax,%rsi
    9daa:	48 8d 05 71 7a 00 00 	lea    0x7a71(%rip),%rax        # 11822 <_ZL9BORDER_SQ+0x42>
    9db1:	48 89 c7             	mov    %rax,%rdi
    9db4:	b8 00 00 00 00       	mov    $0x0,%eax
    9db9:	e8 92 92 ff ff       	call   3050 <printf@plt>
    9dbe:	48 8d 05 6a 7a 00 00 	lea    0x7a6a(%rip),%rax        # 1182f <_ZL9BORDER_SQ+0x4f>
    9dc5:	48 89 c6             	mov    %rax,%rsi
    9dc8:	48 8d 05 6c 7a 00 00 	lea    0x7a6c(%rip),%rax        # 1183b <_ZL9BORDER_SQ+0x5b>
    9dcf:	48 89 c7             	mov    %rax,%rdi
    9dd2:	b8 00 00 00 00       	mov    $0x0,%eax
    9dd7:	e8 74 92 ff ff       	call   3050 <printf@plt>
    9ddc:	48 8d 05 5f 7a 00 00 	lea    0x7a5f(%rip),%rax        # 11842 <_ZL9BORDER_SQ+0x62>
    9de3:	48 89 c6             	mov    %rax,%rsi
    9de6:	48 8d 05 5e 7a 00 00 	lea    0x7a5e(%rip),%rax        # 1184b <_ZL9BORDER_SQ+0x6b>
    9ded:	48 89 c7             	mov    %rax,%rdi
    9df0:	b8 00 00 00 00       	mov    $0x0,%eax
    9df5:	e8 56 92 ff ff       	call   3050 <printf@plt>
    9dfa:	48 8d 05 51 7a 00 00 	lea    0x7a51(%rip),%rax        # 11852 <_ZL9BORDER_SQ+0x72>
    9e01:	48 89 c6             	mov    %rax,%rsi
    9e04:	48 8d 05 55 7a 00 00 	lea    0x7a55(%rip),%rax        # 11860 <_ZL9BORDER_SQ+0x80>
    9e0b:	48 89 c7             	mov    %rax,%rdi
    9e0e:	b8 00 00 00 00       	mov    $0x0,%eax
    9e13:	e8 38 92 ff ff       	call   3050 <printf@plt>
    9e18:	be f2 02 00 00       	mov    $0x2f2,%esi
    9e1d:	48 8d 05 48 7a 00 00 	lea    0x7a48(%rip),%rax        # 1186c <_ZL9BORDER_SQ+0x8c>
    9e24:	48 89 c7             	mov    %rax,%rdi
    9e27:	b8 00 00 00 00       	mov    $0x0,%eax
    9e2c:	e8 1f 92 ff ff       	call   3050 <printf@plt>
    9e31:	bf 01 00 00 00       	mov    $0x1,%edi
    9e36:	e8 95 94 ff ff       	call   32d0 <exit@plt>
    9e3b:	48 8b 45 e8          	mov    -0x18(%rbp),%rax
    9e3f:	8b 80 94 01 00 00    	mov    0x194(%rax),%eax
    9e45:	85 c0                	test   %eax,%eax
    9e47:	78 13                	js     9e5c <_Z5checkPK7board_t+0x428>
    9e49:	48 8b 45 e8          	mov    -0x18(%rbp),%rax
    9e4d:	8b 80 94 01 00 00    	mov    0x194(%rax),%eax
    9e53:	83 f8 0f             	cmp    $0xf,%eax
    9e56:	0f 8e 9b 00 00 00    	jle    9ef7 <_Z5checkPK7board_t+0x4c3>
    9e5c:	48 8d 05 c5 7e 00 00 	lea    0x7ec5(%rip),%rax        # 11d28 <_ZL9BORDER_SQ+0x548>
    9e63:	48 89 c6             	mov    %rax,%rsi
    9e66:	48 8d 05 b5 79 00 00 	lea    0x79b5(%rip),%rax        # 11822 <_ZL9BORDER_SQ+0x42>
    9e6d:	48 89 c7             	mov    %rax,%rdi
    9e70:	b8 00 00 00 00       	mov    $0x0,%eax
    9e75:	e8 d6 91 ff ff       	call   3050 <printf@plt>
    9e7a:	48 8d 05 ae 79 00 00 	lea    0x79ae(%rip),%rax        # 1182f <_ZL9BORDER_SQ+0x4f>
    9e81:	48 89 c6             	mov    %rax,%rsi
    9e84:	48 8d 05 b0 79 00 00 	lea    0x79b0(%rip),%rax        # 1183b <_ZL9BORDER_SQ+0x5b>
    9e8b:	48 89 c7             	mov    %rax,%rdi
    9e8e:	b8 00 00 00 00       	mov    $0x0,%eax
    9e93:	e8 b8 91 ff ff       	call   3050 <printf@plt>
    9e98:	48 8d 05 a3 79 00 00 	lea    0x79a3(%rip),%rax        # 11842 <_ZL9BORDER_SQ+0x62>
    9e9f:	48 89 c6             	mov    %rax,%rsi
    9ea2:	48 8d 05 a2 79 00 00 	lea    0x79a2(%rip),%rax        # 1184b <_ZL9BORDER_SQ+0x6b>
    9ea9:	48 89 c7             	mov    %rax,%rdi
    9eac:	b8 00 00 00 00       	mov    $0x0,%eax
    9eb1:	e8 9a 91 ff ff       	call   3050 <printf@plt>
    9eb6:	48 8d 05 95 79 00 00 	lea    0x7995(%rip),%rax        # 11852 <_ZL9BORDER_SQ+0x72>
    9ebd:	48 89 c6             	mov    %rax,%rsi
    9ec0:	48 8d 05 99 79 00 00 	lea    0x7999(%rip),%rax        # 11860 <_ZL9BORDER_SQ+0x80>
    9ec7:	48 89 c7             	mov    %rax,%rdi
    9eca:	b8 00 00 00 00       	mov    $0x0,%eax
    9ecf:	e8 7c 91 ff ff       	call   3050 <printf@plt>
    9ed4:	be f4 02 00 00       	mov    $0x2f4,%esi
    9ed9:	48 8d 05 8c 79 00 00 	lea    0x798c(%rip),%rax        # 1186c <_ZL9BORDER_SQ+0x8c>
    9ee0:	48 89 c7             	mov    %rax,%rdi
    9ee3:	b8 00 00 00 00       	mov    $0x0,%eax
    9ee8:	e8 63 91 ff ff       	call   3050 <printf@plt>
    9eed:	bf 01 00 00 00       	mov    $0x1,%edi
    9ef2:	e8 d9 93 ff ff       	call   32d0 <exit@plt>
    9ef7:	b8 01 00 00 00       	mov    $0x1,%eax
    9efc:	c9                   	leave
    9efd:	c3                   	ret

0000000000009efe <_Z41__static_initialization_and_destruction_0v>:
    9efe:	55                   	push   %rbp
    9eff:	48 89 e5             	mov    %rsp,%rbp
    9f02:	41 52                	push   %r10
    9f04:	53                   	push   %rbx
    9f05:	48 81 ec 90 00 00 00 	sub    $0x90,%rsp
    9f0c:	4c 8d 55 10          	lea    0x10(%rbp),%r10
    9f10:	64 48 8b 0c 25 28 00 	mov    %fs:0x28,%rcx
    9f17:	00 00 
    9f19:	48 89 4d e8          	mov    %rcx,-0x18(%rbp)
    9f1d:	31 c9                	xor    %ecx,%ecx
    9f1f:	48 8d 0d 92 29 0e 00 	lea    0xe2992(%rip),%rcx        # ec8b8 <_ZGV13char_to_piece>
    9f26:	0f b6 09             	movzbl (%rcx),%ecx
    9f29:	84 c9                	test   %cl,%cl
    9f2b:	0f 85 3d 01 00 00    	jne    a06e <_Z41__static_initialization_and_destruction_0v+0x170>
    9f31:	48 8d 0d 80 29 0e 00 	lea    0xe2980(%rip),%rcx        # ec8b8 <_ZGV13char_to_piece>
    9f38:	c6 01 01             	movb   $0x1,(%rcx)
    9f3b:	c5 f9 ef c0          	vpxor  %xmm0,%xmm0,%xmm0
    9f3f:	c5 fe 7f 45 80       	vmovdqu %ymm0,-0x80(%rbp)
    9f44:	c5 fe 7f 45 a0       	vmovdqu %ymm0,-0x60(%rbp)
    9f49:	c5 fe 7f 45 c0       	vmovdqu %ymm0,-0x40(%rbp)
    9f4e:	c5 f9 d6 45 e0       	vmovq  %xmm0,-0x20(%rbp)
    9f53:	c6 45 80 30          	movb   $0x30,-0x80(%rbp)
    9f57:	c6 45 88 50          	movb   $0x50,-0x78(%rbp)
    9f5b:	c7 45 8c 01 00 00 00 	movl   $0x1,-0x74(%rbp)
    9f62:	c6 45 90 52          	movb   $0x52,-0x70(%rbp)
    9f66:	c7 45 94 04 00 00 00 	movl   $0x4,-0x6c(%rbp)
    9f6d:	c6 45 98 4e          	movb   $0x4e,-0x68(%rbp)
    9f71:	c7 45 9c 02 00 00 00 	movl   $0x2,-0x64(%rbp)
    9f78:	c6 45 a0 42          	movb   $0x42,-0x60(%rbp)
    9f7c:	c7 45 a4 03 00 00 00 	movl   $0x3,-0x5c(%rbp)
    9f83:	c6 45 a8 51          	movb   $0x51,-0x58(%rbp)
    9f87:	c7 45 ac 05 00 00 00 	movl   $0x5,-0x54(%rbp)
    9f8e:	c6 45 b0 4b          	movb   $0x4b,-0x50(%rbp)
    9f92:	c7 45 b4 06 00 00 00 	movl   $0x6,-0x4c(%rbp)
    9f99:	c6 45 b8 70          	movb   $0x70,-0x48(%rbp)
    9f9d:	c7 45 bc 09 00 00 00 	movl   $0x9,-0x44(%rbp)
    9fa4:	c6 45 c0 6e          	movb   $0x6e,-0x40(%rbp)
    9fa8:	c7 45 c4 0a 00 00 00 	movl   $0xa,-0x3c(%rbp)
    9faf:	c6 45 c8 72          	movb   $0x72,-0x38(%rbp)
    9fb3:	c7 45 cc 0c 00 00 00 	movl   $0xc,-0x34(%rbp)
    9fba:	c6 45 d0 62          	movb   $0x62,-0x30(%rbp)
    9fbe:	c7 45 d4 0b 00 00 00 	movl   $0xb,-0x2c(%rbp)
    9fc5:	c6 45 d8 71          	movb   $0x71,-0x28(%rbp)
    9fc9:	c7 45 dc 0d 00 00 00 	movl   $0xd,-0x24(%rbp)
    9fd0:	c6 45 e0 6b          	movb   $0x6b,-0x20(%rbp)
    9fd4:	c7 45 e4 0e 00 00 00 	movl   $0xe,-0x1c(%rbp)
    9fdb:	48 8d 4d 80          	lea    -0x80(%rbp),%rcx
    9fdf:	48 89 c8             	mov    %rcx,%rax
    9fe2:	ba 0d 00 00 00       	mov    $0xd,%edx
    9fe7:	48 8d 8d 6f ff ff ff 	lea    -0x91(%rbp),%rcx
    9fee:	48 89 8d 70 ff ff ff 	mov    %rcx,-0x90(%rbp)
    9ff5:	90                   	nop
    9ff6:	90                   	nop
    9ff7:	48 8d b5 6e ff ff ff 	lea    -0x92(%rbp),%rsi
    9ffe:	48 8d 8d 6d ff ff ff 	lea    -0x93(%rbp),%rcx
    a005:	49 89 c0             	mov    %rax,%r8
    a008:	49 89 d1             	mov    %rdx,%r9
    a00b:	4c 89 c7             	mov    %r8,%rdi
    a00e:	48 83 ec 08          	sub    $0x8,%rsp
    a012:	48 8d 85 6f ff ff ff 	lea    -0x91(%rbp),%rax
    a019:	50                   	push   %rax
    a01a:	49 89 f1             	mov    %rsi,%r9
    a01d:	49 89 c8             	mov    %rcx,%r8
    a020:	b9 00 00 00 00       	mov    $0x0,%ecx
    a025:	48 89 fe             	mov    %rdi,%rsi
    a028:	48 8d 05 51 28 0e 00 	lea    0xe2851(%rip),%rax        # ec880 <char_to_piece>
    a02f:	48 89 c7             	mov    %rax,%rdi
    a032:	e8 85 a2 ff ff       	call   42bc <_ZNSt13unordered_mapIciSt4hashIcESt8equal_toIcESaISt4pairIKciEEEC1ESt16initializer_listIS6_EmRKS1_RKS3_RKS7_>
    a037:	48 83 c4 10          	add    $0x10,%rsp
    a03b:	48 8d 85 6f ff ff ff 	lea    -0x91(%rbp),%rax
    a042:	48 89 c7             	mov    %rax,%rdi
    a045:	e8 de a2 ff ff       	call   4328 <_ZNSt15__new_allocatorISt4pairIKciEED1Ev>
    a04a:	90                   	nop
    a04b:	48 8d 05 b6 e1 00 00 	lea    0xe1b6(%rip),%rax        # 18208 <__dso_handle>
    a052:	48 89 c2             	mov    %rax,%rdx
    a055:	48 8d 05 24 28 0e 00 	lea    0xe2824(%rip),%rax        # ec880 <char_to_piece>
    a05c:	48 89 c6             	mov    %rax,%rsi
    a05f:	48 8d 05 4e c0 ff ff 	lea    -0x3fb2(%rip),%rax        # 60b4 <_ZNSt13unordered_mapIciSt4hashIcESt8equal_toIcESaISt4pairIKciEEED1Ev>
    a066:	48 89 c7             	mov    %rax,%rdi
    a069:	e8 92 91 ff ff       	call   3200 <__cxa_atexit@plt>
    a06e:	48 8d 85 6f ff ff ff 	lea    -0x91(%rbp),%rax
    a075:	48 89 85 78 ff ff ff 	mov    %rax,-0x88(%rbp)
    a07c:	90                   	nop
    a07d:	90                   	nop
    a07e:	48 8d 85 6f ff ff ff 	lea    -0x91(%rbp),%rax
    a085:	48 89 c2             	mov    %rax,%rdx
    a088:	be 40 00 00 00       	mov    $0x40,%esi
    a08d:	48 8d 05 bc 2e 0e 00 	lea    0xe2ebc(%rip),%rax        # ecf50 <ref_boards>
    a094:	48 89 c7             	mov    %rax,%rdi
    a097:	e8 c8 07 00 00       	call   a864 <_ZNSt6vectorI7board_tSaIS0_EEC1EmRKS1_>
    a09c:	48 8d 85 6f ff ff ff 	lea    -0x91(%rbp),%rax
    a0a3:	48 89 c7             	mov    %rax,%rdi
    a0a6:	e8 0f 0c 00 00       	call   acba <_ZNSt15__new_allocatorI7board_tED1Ev>
    a0ab:	90                   	nop
    a0ac:	48 8d 05 55 e1 00 00 	lea    0xe155(%rip),%rax        # 18208 <__dso_handle>
    a0b3:	48 89 c2             	mov    %rax,%rdx
    a0b6:	48 8d 05 93 2e 0e 00 	lea    0xe2e93(%rip),%rax        # ecf50 <ref_boards>
    a0bd:	48 89 c6             	mov    %rax,%rsi
    a0c0:	48 8d 05 f3 21 00 00 	lea    0x21f3(%rip),%rax        # c2ba <_ZNSt6vectorI7board_tSaIS0_EED1Ev>
    a0c7:	48 89 c7             	mov    %rax,%rdi
    a0ca:	e8 31 91 ff ff       	call   3200 <__cxa_atexit@plt>
    a0cf:	90                   	nop
    a0d0:	48 8b 45 e8          	mov    -0x18(%rbp),%rax
    a0d4:	64 48 2b 04 25 28 00 	sub    %fs:0x28,%rax
    a0db:	00 00 
    a0dd:	74 6b                	je     a14a <_Z41__static_initialization_and_destruction_0v+0x24c>
    a0df:	eb 64                	jmp    a145 <_Z41__static_initialization_and_destruction_0v+0x247>
    a0e1:	48 89 c3             	mov    %rax,%rbx
    a0e4:	48 8d 85 6f ff ff ff 	lea    -0x91(%rbp),%rax
    a0eb:	48 89 c7             	mov    %rax,%rdi
    a0ee:	e8 35 a2 ff ff       	call   4328 <_ZNSt15__new_allocatorISt4pairIKciEED1Ev>
    a0f3:	90                   	nop
    a0f4:	48 89 d8             	mov    %rbx,%rax
    a0f7:	48 8b 55 e8          	mov    -0x18(%rbp),%rdx
    a0fb:	64 48 2b 14 25 28 00 	sub    %fs:0x28,%rdx
    a102:	00 00 
    a104:	74 05                	je     a10b <_Z41__static_initialization_and_destruction_0v+0x20d>
    a106:	e8 95 91 ff ff       	call   32a0 <__stack_chk_fail@plt>
    a10b:	48 89 c7             	mov    %rax,%rdi
    a10e:	e8 bd 92 ff ff       	call   33d0 <_Unwind_Resume@plt>
    a113:	48 89 c3             	mov    %rax,%rbx
    a116:	48 8d 85 6f ff ff ff 	lea    -0x91(%rbp),%rax
    a11d:	48 89 c7             	mov    %rax,%rdi
    a120:	e8 95 0b 00 00       	call   acba <_ZNSt15__new_allocatorI7board_tED1Ev>
    a125:	90                   	nop
    a126:	48 89 d8             	mov    %rbx,%rax
    a129:	48 8b 55 e8          	mov    -0x18(%rbp),%rdx
    a12d:	64 48 2b 14 25 28 00 	sub    %fs:0x28,%rdx
    a134:	00 00 
    a136:	74 05                	je     a13d <_Z41__static_initialization_and_destruction_0v+0x23f>
    a138:	e8 63 91 ff ff       	call   32a0 <__stack_chk_fail@plt>
    a13d:	48 89 c7             	mov    %rax,%rdi
    a140:	e8 8b 92 ff ff       	call   33d0 <_Unwind_Resume@plt>
    a145:	e8 56 91 ff ff       	call   32a0 <__stack_chk_fail@plt>
    a14a:	48 8d 65 f0          	lea    -0x10(%rbp),%rsp
    a14e:	5b                   	pop    %rbx
    a14f:	41 5a                	pop    %r10
    a151:	5d                   	pop    %rbp
    a152:	c3                   	ret

000000000000a153 <_GLOBAL__sub_I_boards>:
    a153:	55                   	push   %rbp
    a154:	48 89 e5             	mov    %rsp,%rbp
    a157:	e8 a2 fd ff ff       	call   9efe <_Z41__static_initialization_and_destruction_0v>
    a15c:	5d                   	pop    %rbp
    a15d:	c3                   	ret

000000000000a15e <_ZSt23__is_constant_evaluatedv>:
    a15e:	55                   	push   %rbp
    a15f:	48 89 e5             	mov    %rsp,%rbp
    a162:	b8 00 00 00 00       	mov    $0x0,%eax
    a167:	5d                   	pop    %rbp
    a168:	c3                   	ret

000000000000a169 <_ZNSt11char_traitsIcE2ltERKcS2_>:
    a169:	55                   	push   %rbp
    a16a:	48 89 e5             	mov    %rsp,%rbp
    a16d:	48 89 7d f8          	mov    %rdi,-0x8(%rbp)
    a171:	48 89 75 f0          	mov    %rsi,-0x10(%rbp)
    a175:	48 8b 45 f8          	mov    -0x8(%rbp),%rax
    a179:	0f b6 00             	movzbl (%rax),%eax
    a17c:	89 c2                	mov    %eax,%edx
    a17e:	48 8b 45 f0          	mov    -0x10(%rbp),%rax
    a182:	0f b6 00             	movzbl (%rax),%eax
    a185:	38 c2                	cmp    %al,%dl
    a187:	0f 92 c0             	setb   %al
    a18a:	5d                   	pop    %rbp
    a18b:	c3                   	ret

000000000000a18c <_ZNSt11char_traitsIcE7compareEPKcS2_m>:
    a18c:	55                   	push   %rbp
    a18d:	48 89 e5             	mov    %rsp,%rbp
    a190:	48 83 ec 30          	sub    $0x30,%rsp
    a194:	48 89 7d e8          	mov    %rdi,-0x18(%rbp)
    a198:	48 89 75 e0          	mov    %rsi,-0x20(%rbp)
    a19c:	48 89 55 d8          	mov    %rdx,-0x28(%rbp)
    a1a0:	48 83 7d d8 00       	cmpq   $0x0,-0x28(%rbp)
    a1a5:	75 0a                	jne    a1b1 <_ZNSt11char_traitsIcE7compareEPKcS2_m+0x25>
    a1a7:	b8 00 00 00 00       	mov    $0x0,%eax
    a1ac:	e9 98 00 00 00       	jmp    a249 <_ZNSt11char_traitsIcE7compareEPKcS2_m+0xbd>
    a1b1:	e8 a8 ff ff ff       	call   a15e <_ZSt23__is_constant_evaluatedv>
    a1b6:	84 c0                	test   %al,%al
    a1b8:	74 77                	je     a231 <_ZNSt11char_traitsIcE7compareEPKcS2_m+0xa5>
    a1ba:	48 c7 45 f8 00 00 00 	movq   $0x0,-0x8(%rbp)
    a1c1:	00 
    a1c2:	eb 5c                	jmp    a220 <_ZNSt11char_traitsIcE7compareEPKcS2_m+0x94>
    a1c4:	48 8b 55 e0          	mov    -0x20(%rbp),%rdx
    a1c8:	48 8b 45 f8          	mov    -0x8(%rbp),%rax
    a1cc:	48 01 c2             	add    %rax,%rdx
    a1cf:	48 8b 4d e8          	mov    -0x18(%rbp),%rcx
    a1d3:	48 8b 45 f8          	mov    -0x8(%rbp),%rax
    a1d7:	48 01 c8             	add    %rcx,%rax
    a1da:	48 89 d6             	mov    %rdx,%rsi
    a1dd:	48 89 c7             	mov    %rax,%rdi
    a1e0:	e8 84 ff ff ff       	call   a169 <_ZNSt11char_traitsIcE2ltERKcS2_>
    a1e5:	84 c0                	test   %al,%al
    a1e7:	74 07                	je     a1f0 <_ZNSt11char_traitsIcE7compareEPKcS2_m+0x64>
    a1e9:	b8 ff ff ff ff       	mov    $0xffffffff,%eax
    a1ee:	eb 59                	jmp    a249 <_ZNSt11char_traitsIcE7compareEPKcS2_m+0xbd>
    a1f0:	48 8b 55 e8          	mov    -0x18(%rbp),%rdx
    a1f4:	48 8b 45 f8          	mov    -0x8(%rbp),%rax
    a1f8:	48 01 c2             	add    %rax,%rdx
    a1fb:	48 8b 4d e0          	mov    -0x20(%rbp),%rcx
    a1ff:	48 8b 45 f8          	mov    -0x8(%rbp),%rax
    a203:	48 01 c8             	add    %rcx,%rax
    a206:	48 89 d6             	mov    %rdx,%rsi
    a209:	48 89 c7             	mov    %rax,%rdi
    a20c:	e8 58 ff ff ff       	call   a169 <_ZNSt11char_traitsIcE2ltERKcS2_>
    a211:	84 c0                	test   %al,%al
    a213:	74 07                	je     a21c <_ZNSt11char_traitsIcE7compareEPKcS2_m+0x90>
    a215:	b8 01 00 00 00       	mov    $0x1,%eax
    a21a:	eb 2d                	jmp    a249 <_ZNSt11char_traitsIcE7compareEPKcS2_m+0xbd>
    a21c:	48 ff 45 f8          	incq   -0x8(%rbp)
    a220:	48 8b 45 f8          	mov    -0x8(%rbp),%rax
    a224:	48 3b 45 d8          	cmp    -0x28(%rbp),%rax
    a228:	72 9a                	jb     a1c4 <_ZNSt11char_traitsIcE7compareEPKcS2_m+0x38>
    a22a:	b8 00 00 00 00       	mov    $0x0,%eax
    a22f:	eb 18                	jmp    a249 <_ZNSt11char_traitsIcE7compareEPKcS2_m+0xbd>
    a231:	48 8b 55 d8          	mov    -0x28(%rbp),%rdx
    a235:	48 8b 4d e0          	mov    -0x20(%rbp),%rcx
    a239:	48 8b 45 e8          	mov    -0x18(%rbp),%rax
    a23d:	48 89 ce             	mov    %rcx,%rsi
    a240:	48 89 c7             	mov    %rax,%rdi
    a243:	e8 88 8e ff ff       	call   30d0 <memcmp@plt>
    a248:	90                   	nop
    a249:	c9                   	leave
    a24a:	c3                   	ret

000000000000a24b <_ZNSt11char_traitsIcE6lengthEPKc>:
    a24b:	55                   	push   %rbp
    a24c:	48 89 e5             	mov    %rsp,%rbp
    a24f:	48 83 ec 10          	sub    $0x10,%rsp
    a253:	48 89 7d f8          	mov    %rdi,-0x8(%rbp)
    a257:	e8 02 ff ff ff       	call   a15e <_ZSt23__is_constant_evaluatedv>
    a25c:	84 c0                	test   %al,%al
    a25e:	74 0e                	je     a26e <_ZNSt11char_traitsIcE6lengthEPKc+0x23>
    a260:	48 8b 45 f8          	mov    -0x8(%rbp),%rax
    a264:	48 89 c7             	mov    %rax,%rdi
    a267:	e8 da 02 00 00       	call   a546 <_ZN9__gnu_cxx11char_traitsIcE6lengthEPKc>
    a26c:	eb 0d                	jmp    a27b <_ZNSt11char_traitsIcE6lengthEPKc+0x30>
    a26e:	48 8b 45 f8          	mov    -0x8(%rbp),%rax
    a272:	48 89 c7             	mov    %rax,%rdi
    a275:	e8 46 8e ff ff       	call   30c0 <strlen@plt>
    a27a:	90                   	nop
    a27b:	c9                   	leave
    a27c:	c3                   	ret

000000000000a27d <_ZdlPvS_>:
    a27d:	55                   	push   %rbp
    a27e:	48 89 e5             	mov    %rsp,%rbp
    a281:	48 89 7d f8          	mov    %rdi,-0x8(%rbp)
    a285:	48 89 75 f0          	mov    %rsi,-0x10(%rbp)
    a289:	90                   	nop
    a28a:	5d                   	pop    %rbp
    a28b:	c3                   	ret

000000000000a28c <_ZNSt7__cxx114stoiERKNS_12basic_stringIcSt11char_traitsIcESaIcEEEPmi>:
    a28c:	55                   	push   %rbp
    a28d:	48 89 e5             	mov    %rsp,%rbp
    a290:	48 83 ec 20          	sub    $0x20,%rsp
    a294:	48 89 7d f8          	mov    %rdi,-0x8(%rbp)
    a298:	48 89 75 f0          	mov    %rsi,-0x10(%rbp)
    a29c:	89 55 ec             	mov    %edx,-0x14(%rbp)
    a29f:	48 8b 45 f8          	mov    -0x8(%rbp),%rax
    a2a3:	48 89 c7             	mov    %rax,%rdi
    a2a6:	e8 05 8e ff ff       	call   30b0 <_ZNKSt7__cxx1112basic_stringIcSt11char_traitsIcESaIcEE5c_strEv@plt>
    a2ab:	48 89 c2             	mov    %rax,%rdx
    a2ae:	8b 4d ec             	mov    -0x14(%rbp),%ecx
    a2b1:	48 8b 45 f0          	mov    -0x10(%rbp),%rax
    a2b5:	41 89 c8             	mov    %ecx,%r8d
    a2b8:	48 89 c1             	mov    %rax,%rcx
    a2bb:	48 8d 05 fe 72 00 00 	lea    0x72fe(%rip),%rax        # 115c0 <_ZSt19piecewise_construct+0x10>
    a2c2:	48 89 c6             	mov    %rax,%rsi
    a2c5:	48 8b 05 fc dc 00 00 	mov    0xdcfc(%rip),%rax        # 17fc8 <strtol@GLIBC_2.2.5>
    a2cc:	48 89 c7             	mov    %rax,%rdi
    a2cf:	e8 5a 03 00 00       	call   a62e <_ZN9__gnu_cxx6__stoaIlicJiEEET0_PFT_PKT1_PPS3_DpT2_EPKcS5_PmS9_>
    a2d4:	c9                   	leave
    a2d5:	c3                   	ret

000000000000a2d6 <_ZSt3minImERKT_S2_S2_>:
    a2d6:	55                   	push   %rbp
    a2d7:	48 89 e5             	mov    %rsp,%rbp
    a2da:	48 89 7d f8          	mov    %rdi,-0x8(%rbp)
    a2de:	48 89 75 f0          	mov    %rsi,-0x10(%rbp)
    a2e2:	48 8b 45 f0          	mov    -0x10(%rbp),%rax
    a2e6:	48 8b 10             	mov    (%rax),%rdx
    a2e9:	48 8b 45 f8          	mov    -0x8(%rbp),%rax
    a2ed:	48 8b 00             	mov    (%rax),%rax
    a2f0:	48 39 c2             	cmp    %rax,%rdx
    a2f3:	73 06                	jae    a2fb <_ZSt3minImERKT_S2_S2_+0x25>
    a2f5:	48 8b 45 f0          	mov    -0x10(%rbp),%rax
    a2f9:	eb 04                	jmp    a2ff <_ZSt3minImERKT_S2_S2_+0x29>
    a2fb:	48 8b 45 f8          	mov    -0x8(%rbp),%rax
    a2ff:	5d                   	pop    %rbp
    a300:	c3                   	ret

000000000000a301 <_Z13square_to_strB5cxx11i>:
    a301:	55                   	push   %rbp
    a302:	48 89 e5             	mov    %rsp,%rbp
    a305:	53                   	push   %rbx
    a306:	48 83 ec 38          	sub    $0x38,%rsp
    a30a:	48 89 7d c8          	mov    %rdi,-0x38(%rbp)
    a30e:	89 75 c4             	mov    %esi,-0x3c(%rbp)
    a311:	64 48 8b 0c 25 28 00 	mov    %fs:0x28,%rcx
    a318:	00 00 
    a31a:	48 89 4d e8          	mov    %rcx,-0x18(%rbp)
    a31e:	31 c9                	xor    %ecx,%ecx
    a320:	8b 4d c4             	mov    -0x3c(%rbp),%ecx
    a323:	83 e1 07             	and    $0x7,%ecx
    a326:	83 c1 61             	add    $0x61,%ecx
    a329:	88 4d e6             	mov    %cl,-0x1a(%rbp)
    a32c:	8b 4d c4             	mov    -0x3c(%rbp),%ecx
    a32f:	c1 f9 03             	sar    $0x3,%ecx
    a332:	83 c1 31             	add    $0x31,%ecx
    a335:	88 4d e7             	mov    %cl,-0x19(%rbp)
    a338:	48 8d 4d e6          	lea    -0x1a(%rbp),%rcx
    a33c:	48 89 c8             	mov    %rcx,%rax
    a33f:	ba 02 00 00 00       	mov    $0x2,%edx
    a344:	48 8d 4d d7          	lea    -0x29(%rbp),%rcx
    a348:	48 89 4d d8          	mov    %rcx,-0x28(%rbp)
    a34c:	90                   	nop
    a34d:	90                   	nop
    a34e:	48 8d 4d d7          	lea    -0x29(%rbp),%rcx
    a352:	48 89 c6             	mov    %rax,%rsi
    a355:	48 89 d7             	mov    %rdx,%rdi
    a358:	48 8b 45 c8          	mov    -0x38(%rbp),%rax
    a35c:	48 89 c7             	mov    %rax,%rdi
    a35f:	e8 4c 8f ff ff       	call   32b0 <_ZNSt7__cxx1112basic_stringIcSt11char_traitsIcESaIcEEC1ESt16initializer_listIcERKS3_@plt>
    a364:	48 8d 45 d7          	lea    -0x29(%rbp),%rax
    a368:	48 89 c7             	mov    %rax,%rdi
    a36b:	e8 d8 07 00 00       	call   ab48 <_ZNSt15__new_allocatorIcED1Ev>
    a370:	90                   	nop
    a371:	90                   	nop
    a372:	48 8b 45 e8          	mov    -0x18(%rbp),%rax
    a376:	64 48 2b 04 25 28 00 	sub    %fs:0x28,%rax
    a37d:	00 00 
    a37f:	74 36                	je     a3b7 <_Z13square_to_strB5cxx11i+0xb6>
    a381:	eb 2f                	jmp    a3b2 <_Z13square_to_strB5cxx11i+0xb1>
    a383:	48 89 c3             	mov    %rax,%rbx
    a386:	48 8d 45 d7          	lea    -0x29(%rbp),%rax
    a38a:	48 89 c7             	mov    %rax,%rdi
    a38d:	e8 b6 07 00 00       	call   ab48 <_ZNSt15__new_allocatorIcED1Ev>
    a392:	90                   	nop
    a393:	48 89 d8             	mov    %rbx,%rax
    a396:	48 8b 55 e8          	mov    -0x18(%rbp),%rdx
    a39a:	64 48 2b 14 25 28 00 	sub    %fs:0x28,%rdx
    a3a1:	00 00 
    a3a3:	74 05                	je     a3aa <_Z13square_to_strB5cxx11i+0xa9>
    a3a5:	e8 f6 8e ff ff       	call   32a0 <__stack_chk_fail@plt>
    a3aa:	48 89 c7             	mov    %rax,%rdi
    a3ad:	e8 1e 90 ff ff       	call   33d0 <_Unwind_Resume@plt>
    a3b2:	e8 e9 8e ff ff       	call   32a0 <__stack_chk_fail@plt>
    a3b7:	48 8b 45 c8          	mov    -0x38(%rbp),%rax
    a3bb:	48 8b 5d f8          	mov    -0x8(%rbp),%rbx
    a3bf:	c9                   	leave
    a3c0:	c3                   	ret

000000000000a3c1 <_Z11piece_colori>:
    a3c1:	55                   	push   %rbp
    a3c2:	48 89 e5             	mov    %rsp,%rbp
    a3c5:	89 7d fc             	mov    %edi,-0x4(%rbp)
    a3c8:	8b 45 fc             	mov    -0x4(%rbp),%eax
    a3cb:	83 e0 08             	and    $0x8,%eax
    a3ce:	85 c0                	test   %eax,%eax
    a3d0:	0f 94 c0             	sete   %al
    a3d3:	0f b6 c0             	movzbl %al,%eax
    a3d6:	5d                   	pop    %rbp
    a3d7:	c3                   	ret

000000000000a3d8 <_Z10piece_typei>:
    a3d8:	55                   	push   %rbp
    a3d9:	48 89 e5             	mov    %rsp,%rbp
    a3dc:	89 7d fc             	mov    %edi,-0x4(%rbp)
    a3df:	8b 45 fc             	mov    -0x4(%rbp),%eax
    a3e2:	83 e0 f7             	and    $0xfffffff7,%eax
    a3e5:	5d                   	pop    %rbp
    a3e6:	c3                   	ret

000000000000a3e7 <_Z10set_colourii>:
    a3e7:	55                   	push   %rbp
    a3e8:	48 89 e5             	mov    %rsp,%rbp
    a3eb:	89 7d fc             	mov    %edi,-0x4(%rbp)
    a3ee:	89 75 f8             	mov    %esi,-0x8(%rbp)
    a3f1:	83 7d f8 00          	cmpl   $0x0,-0x8(%rbp)
    a3f5:	74 08                	je     a3ff <_Z10set_colourii+0x18>
    a3f7:	8b 45 fc             	mov    -0x4(%rbp),%eax
    a3fa:	83 e0 f7             	and    $0xfffffff7,%eax
    a3fd:	eb 06                	jmp    a405 <_Z10set_colourii+0x1e>
    a3ff:	8b 45 fc             	mov    -0x4(%rbp),%eax
    a402:	83 c8 08             	or     $0x8,%eax
    a405:	5d                   	pop    %rbp
    a406:	c3                   	ret

000000000000a407 <_ZStanSt13_Ios_FmtflagsS_>:
    a407:	55                   	push   %rbp
    a408:	48 89 e5             	mov    %rsp,%rbp
    a40b:	89 7d fc             	mov    %edi,-0x4(%rbp)
    a40e:	89 75 f8             	mov    %esi,-0x8(%rbp)
    a411:	8b 45 fc             	mov    -0x4(%rbp),%eax
    a414:	23 45 f8             	and    -0x8(%rbp),%eax
    a417:	5d                   	pop    %rbp
    a418:	c3                   	ret

000000000000a419 <_ZStorSt13_Ios_FmtflagsS_>:
    a419:	55                   	push   %rbp
    a41a:	48 89 e5             	mov    %rsp,%rbp
    a41d:	89 7d fc             	mov    %edi,-0x4(%rbp)
    a420:	89 75 f8             	mov    %esi,-0x8(%rbp)
    a423:	8b 45 fc             	mov    -0x4(%rbp),%eax
    a426:	0b 45 f8             	or     -0x8(%rbp),%eax
    a429:	5d                   	pop    %rbp
    a42a:	c3                   	ret

000000000000a42b <_ZStcoSt13_Ios_Fmtflags>:
    a42b:	55                   	push   %rbp
    a42c:	48 89 e5             	mov    %rsp,%rbp
    a42f:	89 7d fc             	mov    %edi,-0x4(%rbp)
    a432:	8b 45 fc             	mov    -0x4(%rbp),%eax
    a435:	f7 d0                	not    %eax
    a437:	5d                   	pop    %rbp
    a438:	c3                   	ret

000000000000a439 <_ZStoRRSt13_Ios_FmtflagsS_>:
    a439:	55                   	push   %rbp
    a43a:	48 89 e5             	mov    %rsp,%rbp
    a43d:	48 83 ec 10          	sub    $0x10,%rsp
    a441:	48 89 7d f8          	mov    %rdi,-0x8(%rbp)
    a445:	89 75 f4             	mov    %esi,-0xc(%rbp)
    a448:	48 8b 45 f8          	mov    -0x8(%rbp),%rax
    a44c:	8b 00                	mov    (%rax),%eax
    a44e:	8b 55 f4             	mov    -0xc(%rbp),%edx
    a451:	89 d6                	mov    %edx,%esi
    a453:	89 c7                	mov    %eax,%edi
    a455:	e8 bf ff ff ff       	call   a419 <_ZStorSt13_Ios_FmtflagsS_>
    a45a:	48 8b 55 f8          	mov    -0x8(%rbp),%rdx
    a45e:	89 02                	mov    %eax,(%rdx)
    a460:	48 8b 45 f8          	mov    -0x8(%rbp),%rax
    a464:	c9                   	leave
    a465:	c3                   	ret

000000000000a466 <_ZStaNRSt13_Ios_FmtflagsS_>:
    a466:	55                   	push   %rbp
    a467:	48 89 e5             	mov    %rsp,%rbp
    a46a:	48 83 ec 10          	sub    $0x10,%rsp
    a46e:	48 89 7d f8          	mov    %rdi,-0x8(%rbp)
    a472:	89 75 f4             	mov    %esi,-0xc(%rbp)
    a475:	48 8b 45 f8          	mov    -0x8(%rbp),%rax
    a479:	8b 00                	mov    (%rax),%eax
    a47b:	8b 55 f4             	mov    -0xc(%rbp),%edx
    a47e:	89 d6                	mov    %edx,%esi
    a480:	89 c7                	mov    %eax,%edi
    a482:	e8 80 ff ff ff       	call   a407 <_ZStanSt13_Ios_FmtflagsS_>
    a487:	48 8b 55 f8          	mov    -0x8(%rbp),%rdx
    a48b:	89 02                	mov    %eax,(%rdx)
    a48d:	48 8b 45 f8          	mov    -0x8(%rbp),%rax
    a491:	c9                   	leave
    a492:	c3                   	ret
    a493:	90                   	nop

000000000000a494 <_ZNSt8ios_base4setfESt13_Ios_FmtflagsS0_>:
    a494:	55                   	push   %rbp
    a495:	48 89 e5             	mov    %rsp,%rbp
    a498:	48 83 ec 20          	sub    $0x20,%rsp
    a49c:	48 89 7d e8          	mov    %rdi,-0x18(%rbp)
    a4a0:	89 75 e4             	mov    %esi,-0x1c(%rbp)
    a4a3:	89 55 e0             	mov    %edx,-0x20(%rbp)
    a4a6:	48 8b 45 e8          	mov    -0x18(%rbp),%rax
    a4aa:	8b 40 18             	mov    0x18(%rax),%eax
    a4ad:	89 45 fc             	mov    %eax,-0x4(%rbp)
    a4b0:	8b 45 e0             	mov    -0x20(%rbp),%eax
    a4b3:	89 c7                	mov    %eax,%edi
    a4b5:	e8 71 ff ff ff       	call   a42b <_ZStcoSt13_Ios_Fmtflags>
    a4ba:	89 c2                	mov    %eax,%edx
    a4bc:	48 8b 45 e8          	mov    -0x18(%rbp),%rax
    a4c0:	48 83 c0 18          	add    $0x18,%rax
    a4c4:	89 d6                	mov    %edx,%esi
    a4c6:	48 89 c7             	mov    %rax,%rdi
    a4c9:	e8 98 ff ff ff       	call   a466 <_ZStaNRSt13_Ios_FmtflagsS_>
    a4ce:	8b 55 e0             	mov    -0x20(%rbp),%edx
    a4d1:	8b 45 e4             	mov    -0x1c(%rbp),%eax
    a4d4:	89 d6                	mov    %edx,%esi
    a4d6:	89 c7                	mov    %eax,%edi
    a4d8:	e8 2a ff ff ff       	call   a407 <_ZStanSt13_Ios_FmtflagsS_>
    a4dd:	89 c2                	mov    %eax,%edx
    a4df:	48 8b 45 e8          	mov    -0x18(%rbp),%rax
    a4e3:	48 83 c0 18          	add    $0x18,%rax
    a4e7:	89 d6                	mov    %edx,%esi
    a4e9:	48 89 c7             	mov    %rax,%rdi
    a4ec:	e8 48 ff ff ff       	call   a439 <_ZStoRRSt13_Ios_FmtflagsS_>
    a4f1:	8b 45 fc             	mov    -0x4(%rbp),%eax
    a4f4:	c9                   	leave
    a4f5:	c3                   	ret

000000000000a4f6 <_ZSt3decRSt8ios_base>:
    a4f6:	55                   	push   %rbp
    a4f7:	48 89 e5             	mov    %rsp,%rbp
    a4fa:	48 83 ec 10          	sub    $0x10,%rsp
    a4fe:	48 89 7d f8          	mov    %rdi,-0x8(%rbp)
    a502:	48 8b 45 f8          	mov    -0x8(%rbp),%rax
    a506:	ba 4a 00 00 00       	mov    $0x4a,%edx
    a50b:	be 02 00 00 00       	mov    $0x2,%esi
    a510:	48 89 c7             	mov    %rax,%rdi
    a513:	e8 7c ff ff ff       	call   a494 <_ZNSt8ios_base4setfESt13_Ios_FmtflagsS0_>
    a518:	48 8b 45 f8          	mov    -0x8(%rbp),%rax
    a51c:	c9                   	leave
    a51d:	c3                   	ret

000000000000a51e <_ZSt3hexRSt8ios_base>:
    a51e:	55                   	push   %rbp
    a51f:	48 89 e5             	mov    %rsp,%rbp
    a522:	48 83 ec 10          	sub    $0x10,%rsp
    a526:	48 89 7d f8          	mov    %rdi,-0x8(%rbp)
    a52a:	48 8b 45 f8          	mov    -0x8(%rbp),%rax
    a52e:	ba 4a 00 00 00       	mov    $0x4a,%edx
    a533:	be 08 00 00 00       	mov    $0x8,%esi
    a538:	48 89 c7             	mov    %rax,%rdi
    a53b:	e8 54 ff ff ff       	call   a494 <_ZNSt8ios_base4setfESt13_Ios_FmtflagsS0_>
    a540:	48 8b 45 f8          	mov    -0x8(%rbp),%rax
    a544:	c9                   	leave
    a545:	c3                   	ret

000000000000a546 <_ZN9__gnu_cxx11char_traitsIcE6lengthEPKc>:
    a546:	55                   	push   %rbp
    a547:	48 89 e5             	mov    %rsp,%rbp
    a54a:	48 83 ec 30          	sub    $0x30,%rsp
    a54e:	48 89 7d d8          	mov    %rdi,-0x28(%rbp)
    a552:	64 48 8b 04 25 28 00 	mov    %fs:0x28,%rax
    a559:	00 00 
    a55b:	48 89 45 f8          	mov    %rax,-0x8(%rbp)
    a55f:	31 c0                	xor    %eax,%eax
    a561:	48 c7 45 f0 00 00 00 	movq   $0x0,-0x10(%rbp)
    a568:	00 
    a569:	eb 04                	jmp    a56f <_ZN9__gnu_cxx11char_traitsIcE6lengthEPKc+0x29>
    a56b:	48 ff 45 f0          	incq   -0x10(%rbp)
    a56f:	c6 45 ef 00          	movb   $0x0,-0x11(%rbp)
    a573:	48 8b 55 d8          	mov    -0x28(%rbp),%rdx
    a577:	48 8b 45 f0          	mov    -0x10(%rbp),%rax
    a57b:	48 01 c2             	add    %rax,%rdx
    a57e:	48 8d 45 ef          	lea    -0x11(%rbp),%rax
    a582:	48 89 c6             	mov    %rax,%rsi
    a585:	48 89 d7             	mov    %rdx,%rdi
    a588:	e8 99 05 00 00       	call   ab26 <_ZN9__gnu_cxx11char_traitsIcE2eqERKcS3_>
    a58d:	83 f0 01             	xor    $0x1,%eax
    a590:	84 c0                	test   %al,%al
    a592:	75 d7                	jne    a56b <_ZN9__gnu_cxx11char_traitsIcE6lengthEPKc+0x25>
    a594:	48 8b 45 f0          	mov    -0x10(%rbp),%rax
    a598:	48 8b 55 f8          	mov    -0x8(%rbp),%rdx
    a59c:	64 48 2b 14 25 28 00 	sub    %fs:0x28,%rdx
    a5a3:	00 00 
    a5a5:	74 05                	je     a5ac <_ZN9__gnu_cxx11char_traitsIcE6lengthEPKc+0x66>
    a5a7:	e8 f4 8c ff ff       	call   32a0 <__stack_chk_fail@plt>
    a5ac:	c9                   	leave
    a5ad:	c3                   	ret

000000000000a5ae <_ZZN9__gnu_cxx6__stoaIlicJiEEET0_PFT_PKT1_PPS3_DpT2_EPKcS5_PmS9_EN11_Save_errnoC1Ev>:
    a5ae:	55                   	push   %rbp
    a5af:	48 89 e5             	mov    %rsp,%rbp
    a5b2:	48 83 ec 10          	sub    $0x10,%rsp
    a5b6:	48 89 7d f8          	mov    %rdi,-0x8(%rbp)
    a5ba:	e8 81 8a ff ff       	call   3040 <__errno_location@plt>
    a5bf:	8b 10                	mov    (%rax),%edx
    a5c1:	48 8b 45 f8          	mov    -0x8(%rbp),%rax
    a5c5:	89 10                	mov    %edx,(%rax)
    a5c7:	e8 74 8a ff ff       	call   3040 <__errno_location@plt>
    a5cc:	c7 00 00 00 00 00    	movl   $0x0,(%rax)
    a5d2:	90                   	nop
    a5d3:	c9                   	leave
    a5d4:	c3                   	ret
    a5d5:	90                   	nop

000000000000a5d6 <_ZZN9__gnu_cxx6__stoaIlicJiEEET0_PFT_PKT1_PPS3_DpT2_EPKcS5_PmS9_EN11_Save_errnoD1Ev>:
    a5d6:	55                   	push   %rbp
    a5d7:	48 89 e5             	mov    %rsp,%rbp
    a5da:	48 83 ec 10          	sub    $0x10,%rsp
    a5de:	48 89 7d f8          	mov    %rdi,-0x8(%rbp)
    a5e2:	e8 59 8a ff ff       	call   3040 <__errno_location@plt>
    a5e7:	8b 00                	mov    (%rax),%eax
    a5e9:	85 c0                	test   %eax,%eax
    a5eb:	75 0d                	jne    a5fa <_ZZN9__gnu_cxx6__stoaIlicJiEEET0_PFT_PKT1_PPS3_DpT2_EPKcS5_PmS9_EN11_Save_errnoD1Ev+0x24>
    a5ed:	e8 4e 8a ff ff       	call   3040 <__errno_location@plt>
    a5f2:	48 8b 55 f8          	mov    -0x8(%rbp),%rdx
    a5f6:	8b 12                	mov    (%rdx),%edx
    a5f8:	89 10                	mov    %edx,(%rax)
    a5fa:	90                   	nop
    a5fb:	c9                   	leave
    a5fc:	c3                   	ret

000000000000a5fd <_ZZN9__gnu_cxx6__stoaIlicJiEEET0_PFT_PKT1_PPS3_DpT2_EPKcS5_PmS9_EN10_Range_chk6_S_chkElSt17integral_constantIbLb1EE>:
    a5fd:	55                   	push   %rbp
    a5fe:	48 89 e5             	mov    %rsp,%rbp
    a601:	48 89 7d f8          	mov    %rdi,-0x8(%rbp)
    a605:	48 b8 ff ff ff 7f ff 	movabs $0xffffffff7fffffff,%rax
    a60c:	ff ff ff 
    a60f:	48 39 45 f8          	cmp    %rax,-0x8(%rbp)
    a613:	7e 0b                	jle    a620 <_ZZN9__gnu_cxx6__stoaIlicJiEEET0_PFT_PKT1_PPS3_DpT2_EPKcS5_PmS9_EN10_Range_chk6_S_chkElSt17integral_constantIbLb1EE+0x23>
    a615:	b8 00 00 00 80       	mov    $0x80000000,%eax
    a61a:	48 39 45 f8          	cmp    %rax,-0x8(%rbp)
    a61e:	7c 07                	jl     a627 <_ZZN9__gnu_cxx6__stoaIlicJiEEET0_PFT_PKT1_PPS3_DpT2_EPKcS5_PmS9_EN10_Range_chk6_S_chkElSt17integral_constantIbLb1EE+0x2a>
    a620:	b8 01 00 00 00       	mov    $0x1,%eax
    a625:	eb 05                	jmp    a62c <_ZZN9__gnu_cxx6__stoaIlicJiEEET0_PFT_PKT1_PPS3_DpT2_EPKcS5_PmS9_EN10_Range_chk6_S_chkElSt17integral_constantIbLb1EE+0x2f>
    a627:	b8 00 00 00 00       	mov    $0x0,%eax
    a62c:	5d                   	pop    %rbp
    a62d:	c3                   	ret

000000000000a62e <_ZN9__gnu_cxx6__stoaIlicJiEEET0_PFT_PKT1_PPS3_DpT2_EPKcS5_PmS9_>:
    a62e:	55                   	push   %rbp
    a62f:	48 89 e5             	mov    %rsp,%rbp
    a632:	53                   	push   %rbx
    a633:	48 83 ec 68          	sub    $0x68,%rsp
    a637:	48 89 7d b8          	mov    %rdi,-0x48(%rbp)
    a63b:	48 89 75 b0          	mov    %rsi,-0x50(%rbp)
    a63f:	48 89 55 a8          	mov    %rdx,-0x58(%rbp)
    a643:	48 89 4d a0          	mov    %rcx,-0x60(%rbp)
    a647:	44 89 45 9c          	mov    %r8d,-0x64(%rbp)
    a64b:	64 48 8b 04 25 28 00 	mov    %fs:0x28,%rax
    a652:	00 00 
    a654:	48 89 45 e8          	mov    %rax,-0x18(%rbp)
    a658:	31 c0                	xor    %eax,%eax
    a65a:	48 8d 45 d0          	lea    -0x30(%rbp),%rax
    a65e:	48 89 c7             	mov    %rax,%rdi
    a661:	e8 48 ff ff ff       	call   a5ae <_ZZN9__gnu_cxx6__stoaIlicJiEEET0_PFT_PKT1_PPS3_DpT2_EPKcS5_PmS9_EN11_Save_errnoC1Ev>
    a666:	4c 8b 45 b8          	mov    -0x48(%rbp),%r8
    a66a:	8b 55 9c             	mov    -0x64(%rbp),%edx
    a66d:	48 8d 45 d8          	lea    -0x28(%rbp),%rax
    a671:	48 8b 4d a8          	mov    -0x58(%rbp),%rcx
    a675:	48 89 c6             	mov    %rax,%rsi
    a678:	48 89 cf             	mov    %rcx,%rdi
    a67b:	41 ff d0             	call   *%r8
    a67e:	48 89 45 e0          	mov    %rax,-0x20(%rbp)
    a682:	48 8b 45 d8          	mov    -0x28(%rbp),%rax
    a686:	48 39 45 a8          	cmp    %rax,-0x58(%rbp)
    a68a:	75 20                	jne    a6ac <_ZN9__gnu_cxx6__stoaIlicJiEEET0_PFT_PKT1_PPS3_DpT2_EPKcS5_PmS9_+0x7e>
    a68c:	48 8b 45 e8          	mov    -0x18(%rbp),%rax
    a690:	64 48 2b 04 25 28 00 	sub    %fs:0x28,%rax
    a697:	00 00 
    a699:	74 05                	je     a6a0 <_ZN9__gnu_cxx6__stoaIlicJiEEET0_PFT_PKT1_PPS3_DpT2_EPKcS5_PmS9_+0x72>
    a69b:	e8 00 8c ff ff       	call   32a0 <__stack_chk_fail@plt>
    a6a0:	48 8b 45 b0          	mov    -0x50(%rbp),%rax
    a6a4:	48 89 c7             	mov    %rax,%rdi
    a6a7:	e8 84 8a ff ff       	call   3130 <_ZSt24__throw_invalid_argumentPKc@plt>
    a6ac:	e8 8f 89 ff ff       	call   3040 <__errno_location@plt>
    a6b1:	8b 00                	mov    (%rax),%eax
    a6b3:	83 f8 22             	cmp    $0x22,%eax
    a6b6:	74 10                	je     a6c8 <_ZN9__gnu_cxx6__stoaIlicJiEEET0_PFT_PKT1_PPS3_DpT2_EPKcS5_PmS9_+0x9a>
    a6b8:	48 8b 45 e0          	mov    -0x20(%rbp),%rax
    a6bc:	48 89 c7             	mov    %rax,%rdi
    a6bf:	e8 39 ff ff ff       	call   a5fd <_ZZN9__gnu_cxx6__stoaIlicJiEEET0_PFT_PKT1_PPS3_DpT2_EPKcS5_PmS9_EN10_Range_chk6_S_chkElSt17integral_constantIbLb1EE>
    a6c4:	84 c0                	test   %al,%al
    a6c6:	74 07                	je     a6cf <_ZN9__gnu_cxx6__stoaIlicJiEEET0_PFT_PKT1_PPS3_DpT2_EPKcS5_PmS9_+0xa1>
    a6c8:	b8 01 00 00 00       	mov    $0x1,%eax
    a6cd:	eb 05                	jmp    a6d4 <_ZN9__gnu_cxx6__stoaIlicJiEEET0_PFT_PKT1_PPS3_DpT2_EPKcS5_PmS9_+0xa6>
    a6cf:	b8 00 00 00 00       	mov    $0x0,%eax
    a6d4:	84 c0                	test   %al,%al
    a6d6:	74 20                	je     a6f8 <_ZN9__gnu_cxx6__stoaIlicJiEEET0_PFT_PKT1_PPS3_DpT2_EPKcS5_PmS9_+0xca>
    a6d8:	48 8b 45 e8          	mov    -0x18(%rbp),%rax
    a6dc:	64 48 2b 04 25 28 00 	sub    %fs:0x28,%rax
    a6e3:	00 00 
    a6e5:	74 05                	je     a6ec <_ZN9__gnu_cxx6__stoaIlicJiEEET0_PFT_PKT1_PPS3_DpT2_EPKcS5_PmS9_+0xbe>
    a6e7:	e8 b4 8b ff ff       	call   32a0 <__stack_chk_fail@plt>
    a6ec:	48 8b 45 b0          	mov    -0x50(%rbp),%rax
    a6f0:	48 89 c7             	mov    %rax,%rdi
    a6f3:	e8 58 8c ff ff       	call   3350 <_ZSt20__throw_out_of_rangePKc@plt>
    a6f8:	48 8b 45 e0          	mov    -0x20(%rbp),%rax
    a6fc:	89 45 d4             	mov    %eax,-0x2c(%rbp)
    a6ff:	48 83 7d a0 00       	cmpq   $0x0,-0x60(%rbp)
    a704:	74 12                	je     a718 <_ZN9__gnu_cxx6__stoaIlicJiEEET0_PFT_PKT1_PPS3_DpT2_EPKcS5_PmS9_+0xea>
    a706:	48 8b 45 d8          	mov    -0x28(%rbp),%rax
    a70a:	48 2b 45 a8          	sub    -0x58(%rbp),%rax
    a70e:	48 89 c2             	mov    %rax,%rdx
    a711:	48 8b 45 a0          	mov    -0x60(%rbp),%rax
    a715:	48 89 10             	mov    %rdx,(%rax)
    a718:	8b 5d d4             	mov    -0x2c(%rbp),%ebx
    a71b:	48 8d 45 d0          	lea    -0x30(%rbp),%rax
    a71f:	48 89 c7             	mov    %rax,%rdi
    a722:	e8 af fe ff ff       	call   a5d6 <_ZZN9__gnu_cxx6__stoaIlicJiEEET0_PFT_PKT1_PPS3_DpT2_EPKcS5_PmS9_EN11_Save_errnoD1Ev>
    a727:	89 d8                	mov    %ebx,%eax
    a729:	48 8b 55 e8          	mov    -0x18(%rbp),%rdx
    a72d:	64 48 2b 14 25 28 00 	sub    %fs:0x28,%rdx
    a734:	00 00 
    a736:	74 35                	je     a76d <_ZN9__gnu_cxx6__stoaIlicJiEEET0_PFT_PKT1_PPS3_DpT2_EPKcS5_PmS9_+0x13f>
    a738:	eb 2e                	jmp    a768 <_ZN9__gnu_cxx6__stoaIlicJiEEET0_PFT_PKT1_PPS3_DpT2_EPKcS5_PmS9_+0x13a>
    a73a:	48 89 c3             	mov    %rax,%rbx
    a73d:	48 8d 45 d0          	lea    -0x30(%rbp),%rax
    a741:	48 89 c7             	mov    %rax,%rdi
    a744:	e8 8d fe ff ff       	call   a5d6 <_ZZN9__gnu_cxx6__stoaIlicJiEEET0_PFT_PKT1_PPS3_DpT2_EPKcS5_PmS9_EN11_Save_errnoD1Ev>
    a749:	48 89 d8             	mov    %rbx,%rax
    a74c:	48 8b 55 e8          	mov    -0x18(%rbp),%rdx
    a750:	64 48 2b 14 25 28 00 	sub    %fs:0x28,%rdx
    a757:	00 00 
    a759:	74 05                	je     a760 <_ZN9__gnu_cxx6__stoaIlicJiEEET0_PFT_PKT1_PPS3_DpT2_EPKcS5_PmS9_+0x132>
    a75b:	e8 40 8b ff ff       	call   32a0 <__stack_chk_fail@plt>
    a760:	48 89 c7             	mov    %rax,%rdi
    a763:	e8 68 8c ff ff       	call   33d0 <_Unwind_Resume@plt>
    a768:	e8 33 8b ff ff       	call   32a0 <__stack_chk_fail@plt>
    a76d:	48 8b 5d f8          	mov    -0x8(%rbp),%rbx
    a771:	c9                   	leave
    a772:	c3                   	ret
    a773:	90                   	nop

000000000000a774 <_ZNSt7__cxx1112basic_stringIcSt11char_traitsIcESaIcEE12_Alloc_hiderD1Ev>:
    a774:	55                   	push   %rbp
    a775:	48 89 e5             	mov    %rsp,%rbp
    a778:	48 83 ec 20          	sub    $0x20,%rsp
    a77c:	48 89 7d e8          	mov    %rdi,-0x18(%rbp)
    a780:	48 8b 45 e8          	mov    -0x18(%rbp),%rax
    a784:	48 89 45 f8          	mov    %rax,-0x8(%rbp)
    a788:	48 8b 45 f8          	mov    -0x8(%rbp),%rax
    a78c:	48 89 c7             	mov    %rax,%rdi
    a78f:	e8 b4 03 00 00       	call   ab48 <_ZNSt15__new_allocatorIcED1Ev>
    a794:	90                   	nop
    a795:	90                   	nop
    a796:	c9                   	leave
    a797:	c3                   	ret

000000000000a798 <_ZSt3maxImERKT_S2_S2_>:
    a798:	55                   	push   %rbp
    a799:	48 89 e5             	mov    %rsp,%rbp
    a79c:	48 89 7d f8          	mov    %rdi,-0x8(%rbp)
    a7a0:	48 89 75 f0          	mov    %rsi,-0x10(%rbp)
    a7a4:	48 8b 45 f8          	mov    -0x8(%rbp),%rax
    a7a8:	48 8b 10             	mov    (%rax),%rdx
    a7ab:	48 8b 45 f0          	mov    -0x10(%rbp),%rax
    a7af:	48 8b 00             	mov    (%rax),%rax
    a7b2:	48 39 c2             	cmp    %rax,%rdx
    a7b5:	73 06                	jae    a7bd <_ZSt3maxImERKT_S2_S2_+0x25>
    a7b7:	48 8b 45 f0          	mov    -0x10(%rbp),%rax
    a7bb:	eb 04                	jmp    a7c1 <_ZSt3maxImERKT_S2_S2_+0x29>
    a7bd:	48 8b 45 f8          	mov    -0x8(%rbp),%rax
    a7c1:	5d                   	pop    %rbp
    a7c2:	c3                   	ret
    a7c3:	90                   	nop

000000000000a7c4 <_ZNSt7__cxx1112basic_stringIcSt11char_traitsIcESaIcEEC1IS3_EEPKcRKS3_>:
    a7c4:	55                   	push   %rbp
    a7c5:	48 89 e5             	mov    %rsp,%rbp
    a7c8:	53                   	push   %rbx
    a7c9:	48 83 ec 38          	sub    $0x38,%rsp
    a7cd:	48 89 7d d8          	mov    %rdi,-0x28(%rbp)
    a7d1:	48 89 75 d0          	mov    %rsi,-0x30(%rbp)
    a7d5:	48 89 55 c8          	mov    %rdx,-0x38(%rbp)
    a7d9:	48 8b 5d d8          	mov    -0x28(%rbp),%rbx
    a7dd:	48 8b 45 d8          	mov    -0x28(%rbp),%rax
    a7e1:	48 89 c7             	mov    %rax,%rdi
    a7e4:	e8 d7 89 ff ff       	call   31c0 <_ZNSt7__cxx1112basic_stringIcSt11char_traitsIcESaIcEE13_M_local_dataEv@plt>
    a7e9:	48 89 c1             	mov    %rax,%rcx
    a7ec:	48 8b 45 c8          	mov    -0x38(%rbp),%rax
    a7f0:	48 89 c2             	mov    %rax,%rdx
    a7f3:	48 89 ce             	mov    %rcx,%rsi
    a7f6:	48 89 df             	mov    %rbx,%rdi
    a7f9:	e8 62 8a ff ff       	call   3260 <_ZNSt7__cxx1112basic_stringIcSt11char_traitsIcESaIcEE12_Alloc_hiderC1EPcRKS3_@plt>
    a7fe:	48 83 7d d0 00       	cmpq   $0x0,-0x30(%rbp)
    a803:	75 0f                	jne    a814 <_ZNSt7__cxx1112basic_stringIcSt11char_traitsIcESaIcEEC1IS3_EEPKcRKS3_+0x50>
    a805:	48 8d 05 54 75 00 00 	lea    0x7554(%rip),%rax        # 11d60 <_ZL9BORDER_SQ+0x580>
    a80c:	48 89 c7             	mov    %rax,%rdi
    a80f:	e8 8c 89 ff ff       	call   31a0 <_ZSt19__throw_logic_errorPKc@plt>
    a814:	48 8b 45 d0          	mov    -0x30(%rbp),%rax
    a818:	48 89 c7             	mov    %rax,%rdi
    a81b:	e8 2b fa ff ff       	call   a24b <_ZNSt11char_traitsIcE6lengthEPKc>
    a820:	48 8b 55 d0          	mov    -0x30(%rbp),%rdx
    a824:	48 01 d0             	add    %rdx,%rax
    a827:	48 89 45 e8          	mov    %rax,-0x18(%rbp)
    a82b:	48 8b 55 e8          	mov    -0x18(%rbp),%rdx
    a82f:	48 8b 4d d0          	mov    -0x30(%rbp),%rcx
    a833:	48 8b 45 d8          	mov    -0x28(%rbp),%rax
    a837:	48 89 ce             	mov    %rcx,%rsi
    a83a:	48 89 c7             	mov    %rax,%rdi
    a83d:	e8 56 03 00 00       	call   ab98 <_ZNSt7__cxx1112basic_stringIcSt11char_traitsIcESaIcEE12_M_constructIPKcEEvT_S8_St20forward_iterator_tag>
    a842:	eb 1a                	jmp    a85e <_ZNSt7__cxx1112basic_stringIcSt11char_traitsIcESaIcEEC1IS3_EEPKcRKS3_+0x9a>
    a844:	48 89 c3             	mov    %rax,%rbx
    a847:	48 8b 45 d8          	mov    -0x28(%rbp),%rax
    a84b:	48 89 c7             	mov    %rax,%rdi
    a84e:	e8 21 ff ff ff       	call   a774 <_ZNSt7__cxx1112basic_stringIcSt11char_traitsIcESaIcEE12_Alloc_hiderD1Ev>
    a853:	48 89 d8             	mov    %rbx,%rax
    a856:	48 89 c7             	mov    %rax,%rdi
    a859:	e8 72 8b ff ff       	call   33d0 <_Unwind_Resume@plt>
    a85e:	48 8b 5d f8          	mov    -0x8(%rbp),%rbx
    a862:	c9                   	leave
    a863:	c3                   	ret

000000000000a864 <_ZNSt6vectorI7board_tSaIS0_EEC1EmRKS1_>:
    a864:	55                   	push   %rbp
    a865:	48 89 e5             	mov    %rsp,%rbp
    a868:	53                   	push   %rbx
    a869:	48 83 ec 28          	sub    $0x28,%rsp
    a86d:	48 89 7d e8          	mov    %rdi,-0x18(%rbp)
    a871:	48 89 75 e0          	mov    %rsi,-0x20(%rbp)
    a875:	48 89 55 d8          	mov    %rdx,-0x28(%rbp)
    a879:	48 8b 5d e8          	mov    -0x18(%rbp),%rbx
    a87d:	48 8b 55 d8          	mov    -0x28(%rbp),%rdx
    a881:	48 8b 45 e0          	mov    -0x20(%rbp),%rax
    a885:	48 89 d6             	mov    %rdx,%rsi
    a888:	48 89 c7             	mov    %rax,%rdi
    a88b:	e8 35 04 00 00       	call   acc5 <_ZNSt6vectorI7board_tSaIS0_EE17_S_check_init_lenEmRKS1_>
    a890:	48 89 c1             	mov    %rax,%rcx
    a893:	48 8b 45 d8          	mov    -0x28(%rbp),%rax
    a897:	48 89 c2             	mov    %rax,%rdx
    a89a:	48 89 ce             	mov    %rcx,%rsi
    a89d:	48 89 df             	mov    %rbx,%rdi
    a8a0:	e8 e3 04 00 00       	call   ad88 <_ZNSt12_Vector_baseI7board_tSaIS0_EEC1EmRKS1_>
    a8a5:	48 8b 55 e0          	mov    -0x20(%rbp),%rdx
    a8a9:	48 8b 45 e8          	mov    -0x18(%rbp),%rax
    a8ad:	48 89 d6             	mov    %rdx,%rsi
    a8b0:	48 89 c7             	mov    %rax,%rdi
    a8b3:	e8 86 05 00 00       	call   ae3e <_ZNSt6vectorI7board_tSaIS0_EE21_M_default_initializeEm>
    a8b8:	eb 1a                	jmp    a8d4 <_ZNSt6vectorI7board_tSaIS0_EEC1EmRKS1_+0x70>
    a8ba:	48 89 c3             	mov    %rax,%rbx
    a8bd:	48 8b 45 e8          	mov    -0x18(%rbp),%rax
    a8c1:	48 89 c7             	mov    %rax,%rdi
    a8c4:	e8 1d 05 00 00       	call   ade6 <_ZNSt12_Vector_baseI7board_tSaIS0_EED1Ev>
    a8c9:	48 89 d8             	mov    %rbx,%rax
    a8cc:	48 89 c7             	mov    %rax,%rdi
    a8cf:	e8 fc 8a ff ff       	call   33d0 <_Unwind_Resume@plt>
    a8d4:	48 8b 5d f8          	mov    -0x8(%rbp),%rbx
    a8d8:	c9                   	leave
    a8d9:	c3                   	ret

000000000000a8da <_ZNSt13unordered_mapIciSt4hashIcESt8equal_toIcESaISt4pairIKciEEEixERS5_>:
    a8da:	55                   	push   %rbp
    a8db:	48 89 e5             	mov    %rsp,%rbp
    a8de:	48 83 ec 10          	sub    $0x10,%rsp
    a8e2:	48 89 7d f8          	mov    %rdi,-0x8(%rbp)
    a8e6:	48 89 75 f0          	mov    %rsi,-0x10(%rbp)
    a8ea:	48 8b 45 f8          	mov    -0x8(%rbp),%rax
    a8ee:	48 8b 55 f0          	mov    -0x10(%rbp),%rdx
    a8f2:	48 89 d6             	mov    %rdx,%rsi
    a8f5:	48 89 c7             	mov    %rax,%rdi
    a8f8:	e8 81 05 00 00       	call   ae7e <_ZNSt8__detail9_Map_baseIcSt4pairIKciESaIS3_ENS_10_Select1stESt8equal_toIcESt4hashIcENS_18_Mod_range_hashingENS_20_Default_ranged_hashENS_20_Prime_rehash_policyENS_17_Hashtable_traitsILb0ELb0ELb1EEELb1EEixERS2_>
    a8fd:	c9                   	leave
    a8fe:	c3                   	ret

000000000000a8ff <_ZSteqIcSt11char_traitsIcESaIcEEbRKNSt7__cxx1112basic_stringIT_T0_T1_EEPKS5_>:
    a8ff:	55                   	push   %rbp
    a900:	48 89 e5             	mov    %rsp,%rbp
    a903:	53                   	push   %rbx
    a904:	48 83 ec 18          	sub    $0x18,%rsp
    a908:	48 89 7d e8          	mov    %rdi,-0x18(%rbp)
    a90c:	48 89 75 e0          	mov    %rsi,-0x20(%rbp)
    a910:	48 8b 45 e8          	mov    -0x18(%rbp),%rax
    a914:	48 89 c7             	mov    %rax,%rdi
    a917:	e8 64 88 ff ff       	call   3180 <_ZNKSt7__cxx1112basic_stringIcSt11char_traitsIcESaIcEE4sizeEv@plt>
    a91c:	48 89 c3             	mov    %rax,%rbx
    a91f:	48 8b 45 e0          	mov    -0x20(%rbp),%rax
    a923:	48 89 c7             	mov    %rax,%rdi
    a926:	e8 20 f9 ff ff       	call   a24b <_ZNSt11char_traitsIcE6lengthEPKc>
    a92b:	48 39 c3             	cmp    %rax,%rbx
    a92e:	75 3b                	jne    a96b <_ZSteqIcSt11char_traitsIcESaIcEEbRKNSt7__cxx1112basic_stringIT_T0_T1_EEPKS5_+0x6c>
    a930:	48 8b 45 e8          	mov    -0x18(%rbp),%rax
    a934:	48 89 c7             	mov    %rax,%rdi
    a937:	e8 44 88 ff ff       	call   3180 <_ZNKSt7__cxx1112basic_stringIcSt11char_traitsIcESaIcEE4sizeEv@plt>
    a93c:	48 89 c3             	mov    %rax,%rbx
    a93f:	48 8b 45 e8          	mov    -0x18(%rbp),%rax
    a943:	48 89 c7             	mov    %rax,%rdi
    a946:	e8 b5 89 ff ff       	call   3300 <_ZNKSt7__cxx1112basic_stringIcSt11char_traitsIcESaIcEE4dataEv@plt>
    a94b:	48 89 c1             	mov    %rax,%rcx
    a94e:	48 8b 45 e0          	mov    -0x20(%rbp),%rax
    a952:	48 89 da             	mov    %rbx,%rdx
    a955:	48 89 c6             	mov    %rax,%rsi
    a958:	48 89 cf             	mov    %rcx,%rdi
    a95b:	e8 2c f8 ff ff       	call   a18c <_ZNSt11char_traitsIcE7compareEPKcS2_m>
    a960:	85 c0                	test   %eax,%eax
    a962:	75 07                	jne    a96b <_ZSteqIcSt11char_traitsIcESaIcEEbRKNSt7__cxx1112basic_stringIT_T0_T1_EEPKS5_+0x6c>
    a964:	b8 01 00 00 00       	mov    $0x1,%eax
    a969:	eb 05                	jmp    a970 <_ZSteqIcSt11char_traitsIcESaIcEEbRKNSt7__cxx1112basic_stringIT_T0_T1_EEPKS5_+0x71>
    a96b:	b8 00 00 00 00       	mov    $0x0,%eax
    a970:	48 8b 5d f8          	mov    -0x8(%rbp),%rbx
    a974:	c9                   	leave
    a975:	c3                   	ret

000000000000a976 <_ZStneIcSt11char_traitsIcESaIcEEbRKNSt7__cxx1112basic_stringIT_T0_T1_EEPKS5_>:
    a976:	55                   	push   %rbp
    a977:	48 89 e5             	mov    %rsp,%rbp
    a97a:	48 83 ec 10          	sub    $0x10,%rsp
    a97e:	48 89 7d f8          	mov    %rdi,-0x8(%rbp)
    a982:	48 89 75 f0          	mov    %rsi,-0x10(%rbp)
    a986:	48 8b 55 f0          	mov    -0x10(%rbp),%rdx
    a98a:	48 8b 45 f8          	mov    -0x8(%rbp),%rax
    a98e:	48 89 d6             	mov    %rdx,%rsi
    a991:	48 89 c7             	mov    %rax,%rdi
    a994:	e8 66 ff ff ff       	call   a8ff <_ZSteqIcSt11char_traitsIcESaIcEEbRKNSt7__cxx1112basic_stringIT_T0_T1_EEPKS5_>
    a999:	83 f0 01             	xor    $0x1,%eax
    a99c:	c9                   	leave
    a99d:	c3                   	ret

000000000000a99e <_ZNSt6vectorI7board_tSaIS0_EE9push_backERKS0_>:
    a99e:	55                   	push   %rbp
    a99f:	48 89 e5             	mov    %rsp,%rbp
    a9a2:	53                   	push   %rbx
    a9a3:	48 83 ec 48          	sub    $0x48,%rsp
    a9a7:	48 89 7d b8          	mov    %rdi,-0x48(%rbp)
    a9ab:	48 89 75 b0          	mov    %rsi,-0x50(%rbp)
    a9af:	48 8b 45 b8          	mov    -0x48(%rbp),%rax
    a9b3:	48 8b 50 08          	mov    0x8(%rax),%rdx
    a9b7:	48 8b 45 b8          	mov    -0x48(%rbp),%rax
    a9bb:	48 8b 40 10          	mov    0x10(%rax),%rax
    a9bf:	48 39 c2             	cmp    %rax,%rdx
    a9c2:	0f 84 8a 00 00 00    	je     aa52 <_ZNSt6vectorI7board_tSaIS0_EE9push_backERKS0_+0xb4>
    a9c8:	48 8b 45 b8          	mov    -0x48(%rbp),%rax
    a9cc:	48 8b 40 08          	mov    0x8(%rax),%rax
    a9d0:	48 8b 55 b8          	mov    -0x48(%rbp),%rdx
    a9d4:	48 89 55 c0          	mov    %rdx,-0x40(%rbp)
    a9d8:	48 89 45 c8          	mov    %rax,-0x38(%rbp)
    a9dc:	48 8b 45 b0          	mov    -0x50(%rbp),%rax
    a9e0:	48 89 45 d0          	mov    %rax,-0x30(%rbp)
    a9e4:	48 8b 45 d0          	mov    -0x30(%rbp),%rax
    a9e8:	48 89 c7             	mov    %rax,%rdi
    a9eb:	e8 d9 0b 00 00       	call   b5c9 <_ZSt7forwardIRK7board_tEOT_RNSt16remove_referenceIS3_E4typeE>
    a9f0:	48 8b 55 c0          	mov    -0x40(%rbp),%rdx
    a9f4:	48 89 55 d8          	mov    %rdx,-0x28(%rbp)
    a9f8:	48 8b 55 c8          	mov    -0x38(%rbp),%rdx
    a9fc:	48 89 55 e0          	mov    %rdx,-0x20(%rbp)
    aa00:	48 89 45 e8          	mov    %rax,-0x18(%rbp)
    aa04:	48 8b 45 e0          	mov    -0x20(%rbp),%rax
    aa08:	48 89 c6             	mov    %rax,%rsi
    aa0b:	bf b0 01 01 00       	mov    $0x101b0,%edi
    aa10:	e8 05 97 ff ff       	call   411a <_ZnwmPv>
    aa15:	48 89 c3             	mov    %rax,%rbx
    aa18:	48 8b 45 e8          	mov    -0x18(%rbp),%rax
    aa1c:	48 89 c7             	mov    %rax,%rdi
    aa1f:	e8 a5 0b 00 00       	call   b5c9 <_ZSt7forwardIRK7board_tEOT_RNSt16remove_referenceIS3_E4typeE>
    aa24:	48 89 d9             	mov    %rbx,%rcx
    aa27:	ba b0 01 01 00       	mov    $0x101b0,%edx
    aa2c:	48 89 c6             	mov    %rax,%rsi
    aa2f:	48 89 cf             	mov    %rcx,%rdi
    aa32:	e8 99 87 ff ff       	call   31d0 <memcpy@plt>
    aa37:	90                   	nop
    aa38:	90                   	nop
    aa39:	48 8b 45 b8          	mov    -0x48(%rbp),%rax
    aa3d:	48 8b 40 08          	mov    0x8(%rax),%rax
    aa41:	48 8d 90 b0 01 01 00 	lea    0x101b0(%rax),%rdx
    aa48:	48 8b 45 b8          	mov    -0x48(%rbp),%rax
    aa4c:	48 89 50 08          	mov    %rdx,0x8(%rax)
    aa50:	eb 22                	jmp    aa74 <_ZNSt6vectorI7board_tSaIS0_EE9push_backERKS0_+0xd6>
    aa52:	48 8b 45 b8          	mov    -0x48(%rbp),%rax
    aa56:	48 89 c7             	mov    %rax,%rdi
    aa59:	e8 80 05 00 00       	call   afde <_ZNSt6vectorI7board_tSaIS0_EE3endEv>
    aa5e:	48 89 c1             	mov    %rax,%rcx
    aa61:	48 8b 55 b0          	mov    -0x50(%rbp),%rdx
    aa65:	48 8b 45 b8          	mov    -0x48(%rbp),%rax
    aa69:	48 89 ce             	mov    %rcx,%rsi
    aa6c:	48 89 c7             	mov    %rax,%rdi
    aa6f:	e8 b6 05 00 00       	call   b02a <_ZNSt6vectorI7board_tSaIS0_EE17_M_realloc_insertIJRKS0_EEEvN9__gnu_cxx17__normal_iteratorIPS0_S2_EEDpOT_>
    aa74:	90                   	nop
    aa75:	48 8b 5d f8          	mov    -0x8(%rbp),%rbx
    aa79:	c9                   	leave
    aa7a:	c3                   	ret
    aa7b:	90                   	nop

000000000000aa7c <_ZNSt6vectorI7board_tSaIS0_EE4backEv>:
    aa7c:	55                   	push   %rbp
    aa7d:	48 89 e5             	mov    %rsp,%rbp
    aa80:	48 83 ec 30          	sub    $0x30,%rsp
    aa84:	48 89 7d d8          	mov    %rdi,-0x28(%rbp)
    aa88:	64 48 8b 04 25 28 00 	mov    %fs:0x28,%rax
    aa8f:	00 00 
    aa91:	48 89 45 f8          	mov    %rax,-0x8(%rbp)
    aa95:	31 c0                	xor    %eax,%eax
    aa97:	48 8b 45 d8          	mov    -0x28(%rbp),%rax
    aa9b:	48 89 c7             	mov    %rax,%rdi
    aa9e:	e8 3b 05 00 00       	call   afde <_ZNSt6vectorI7board_tSaIS0_EE3endEv>
    aaa3:	48 89 45 e8          	mov    %rax,-0x18(%rbp)
    aaa7:	48 8d 45 e8          	lea    -0x18(%rbp),%rax
    aaab:	be 01 00 00 00       	mov    $0x1,%esi
    aab0:	48 89 c7             	mov    %rax,%rdi
    aab3:	e8 cc 07 00 00       	call   b284 <_ZNK9__gnu_cxx17__normal_iteratorIP7board_tSt6vectorIS1_SaIS1_EEEmiEl>
    aab8:	48 89 45 f0          	mov    %rax,-0x10(%rbp)
    aabc:	48 8d 45 f0          	lea    -0x10(%rbp),%rax
    aac0:	48 89 c7             	mov    %rax,%rdi
    aac3:	e8 24 08 00 00       	call   b2ec <_ZNK9__gnu_cxx17__normal_iteratorIP7board_tSt6vectorIS1_SaIS1_EEEdeEv>
    aac8:	48 8b 55 f8          	mov    -0x8(%rbp),%rdx
    aacc:	64 48 2b 14 25 28 00 	sub    %fs:0x28,%rdx
    aad3:	00 00 
    aad5:	74 05                	je     aadc <_ZNSt6vectorI7board_tSaIS0_EE4backEv+0x60>
    aad7:	e8 c4 87 ff ff       	call   32a0 <__stack_chk_fail@plt>
    aadc:	c9                   	leave
    aadd:	c3                   	ret

000000000000aade <_ZNSt6vectorI7board_tSaIS0_EE8pop_backEv>:
    aade:	55                   	push   %rbp
    aadf:	48 89 e5             	mov    %rsp,%rbp
    aae2:	48 89 7d d8          	mov    %rdi,-0x28(%rbp)
    aae6:	48 8b 45 d8          	mov    -0x28(%rbp),%rax
    aaea:	48 8b 40 08          	mov    0x8(%rax),%rax
    aaee:	48 8d 90 50 fe fe ff 	lea    -0x101b0(%rax),%rdx
    aaf5:	48 8b 45 d8          	mov    -0x28(%rbp),%rax
    aaf9:	48 89 50 08          	mov    %rdx,0x8(%rax)
    aafd:	48 8b 45 d8          	mov    -0x28(%rbp),%rax
    ab01:	48 8b 40 08          	mov    0x8(%rax),%rax
    ab05:	48 8b 55 d8          	mov    -0x28(%rbp),%rdx
    ab09:	48 89 55 e0          	mov    %rdx,-0x20(%rbp)
    ab0d:	48 89 45 e8          	mov    %rax,-0x18(%rbp)
    ab11:	48 8b 45 e0          	mov    -0x20(%rbp),%rax
    ab15:	48 89 45 f0          	mov    %rax,-0x10(%rbp)
    ab19:	48 8b 45 e8          	mov    -0x18(%rbp),%rax
    ab1d:	48 89 45 f8          	mov    %rax,-0x8(%rbp)
    ab21:	90                   	nop
    ab22:	90                   	nop
    ab23:	90                   	nop
    ab24:	5d                   	pop    %rbp
    ab25:	c3                   	ret

000000000000ab26 <_ZN9__gnu_cxx11char_traitsIcE2eqERKcS3_>:
    ab26:	55                   	push   %rbp
    ab27:	48 89 e5             	mov    %rsp,%rbp
    ab2a:	48 89 7d f8          	mov    %rdi,-0x8(%rbp)
    ab2e:	48 89 75 f0          	mov    %rsi,-0x10(%rbp)
    ab32:	48 8b 45 f8          	mov    -0x8(%rbp),%rax
    ab36:	0f b6 10             	movzbl (%rax),%edx
    ab39:	48 8b 45 f0          	mov    -0x10(%rbp),%rax
    ab3d:	0f b6 00             	movzbl (%rax),%eax
    ab40:	38 c2                	cmp    %al,%dl
    ab42:	0f 94 c0             	sete   %al
    ab45:	5d                   	pop    %rbp
    ab46:	c3                   	ret
    ab47:	90                   	nop

000000000000ab48 <_ZNSt15__new_allocatorIcED1Ev>:
    ab48:	55                   	push   %rbp
    ab49:	48 89 e5             	mov    %rsp,%rbp
    ab4c:	48 89 7d f8          	mov    %rdi,-0x8(%rbp)
    ab50:	90                   	nop
    ab51:	5d                   	pop    %rbp
    ab52:	c3                   	ret
    ab53:	90                   	nop

000000000000ab54 <_ZZNSt7__cxx1112basic_stringIcSt11char_traitsIcESaIcEE12_M_constructIPKcEEvT_S8_St20forward_iterator_tagEN6_GuardC1EPS4_>:
    ab54:	55                   	push   %rbp
    ab55:	48 89 e5             	mov    %rsp,%rbp
    ab58:	48 89 7d f8          	mov    %rdi,-0x8(%rbp)
    ab5c:	48 89 75 f0          	mov    %rsi,-0x10(%rbp)
    ab60:	48 8b 45 f8          	mov    -0x8(%rbp),%rax
    ab64:	48 8b 55 f0          	mov    -0x10(%rbp),%rdx
    ab68:	48 89 10             	mov    %rdx,(%rax)
    ab6b:	90                   	nop
    ab6c:	5d                   	pop    %rbp
    ab6d:	c3                   	ret

000000000000ab6e <_ZZNSt7__cxx1112basic_stringIcSt11char_traitsIcESaIcEE12_M_constructIPKcEEvT_S8_St20forward_iterator_tagEN6_GuardD1Ev>:
    ab6e:	55                   	push   %rbp
    ab6f:	48 89 e5             	mov    %rsp,%rbp
    ab72:	48 83 ec 10          	sub    $0x10,%rsp
    ab76:	48 89 7d f8          	mov    %rdi,-0x8(%rbp)
    ab7a:	48 8b 45 f8          	mov    -0x8(%rbp),%rax
    ab7e:	48 8b 00             	mov    (%rax),%rax
    ab81:	48 85 c0             	test   %rax,%rax
    ab84:	74 0f                	je     ab95 <_ZZNSt7__cxx1112basic_stringIcSt11char_traitsIcESaIcEE12_M_constructIPKcEEvT_S8_St20forward_iterator_tagEN6_GuardD1Ev+0x27>
    ab86:	48 8b 45 f8          	mov    -0x8(%rbp),%rax
    ab8a:	48 8b 00             	mov    (%rax),%rax
    ab8d:	48 89 c7             	mov    %rax,%rdi
    ab90:	e8 4b 87 ff ff       	call   32e0 <_ZNSt7__cxx1112basic_stringIcSt11char_traitsIcESaIcEE10_M_disposeEv@plt>
    ab95:	90                   	nop
    ab96:	c9                   	leave
    ab97:	c3                   	ret

000000000000ab98 <_ZNSt7__cxx1112basic_stringIcSt11char_traitsIcESaIcEE12_M_constructIPKcEEvT_S8_St20forward_iterator_tag>:
    ab98:	55                   	push   %rbp
    ab99:	48 89 e5             	mov    %rsp,%rbp
    ab9c:	48 83 ec 60          	sub    $0x60,%rsp
    aba0:	48 89 7d b8          	mov    %rdi,-0x48(%rbp)
    aba4:	48 89 75 b0          	mov    %rsi,-0x50(%rbp)
    aba8:	48 89 55 a8          	mov    %rdx,-0x58(%rbp)
    abac:	64 48 8b 04 25 28 00 	mov    %fs:0x28,%rax
    abb3:	00 00 
    abb5:	48 89 45 f8          	mov    %rax,-0x8(%rbp)
    abb9:	31 c0                	xor    %eax,%eax
    abbb:	48 8b 45 b0          	mov    -0x50(%rbp),%rax
    abbf:	48 89 45 d0          	mov    %rax,-0x30(%rbp)
    abc3:	48 8b 45 a8          	mov    -0x58(%rbp),%rax
    abc7:	48 89 45 d8          	mov    %rax,-0x28(%rbp)
    abcb:	90                   	nop
    abcc:	48 8b 45 d0          	mov    -0x30(%rbp),%rax
    abd0:	48 89 45 e0          	mov    %rax,-0x20(%rbp)
    abd4:	48 8b 45 d8          	mov    -0x28(%rbp),%rax
    abd8:	48 89 45 e8          	mov    %rax,-0x18(%rbp)
    abdc:	48 8b 45 e8          	mov    -0x18(%rbp),%rax
    abe0:	48 2b 45 e0          	sub    -0x20(%rbp),%rax
    abe4:	90                   	nop
    abe5:	48 89 45 c8          	mov    %rax,-0x38(%rbp)
    abe9:	48 8b 45 c8          	mov    -0x38(%rbp),%rax
    abed:	48 83 f8 0f          	cmp    $0xf,%rax
    abf1:	76 3f                	jbe    ac32 <_ZNSt7__cxx1112basic_stringIcSt11char_traitsIcESaIcEE12_M_constructIPKcEEvT_S8_St20forward_iterator_tag+0x9a>
    abf3:	48 8d 45 c8          	lea    -0x38(%rbp),%rax
    abf7:	48 8b 4d b8          	mov    -0x48(%rbp),%rcx
    abfb:	ba 00 00 00 00       	mov    $0x0,%edx
    ac00:	48 89 c6             	mov    %rax,%rsi
    ac03:	48 89 cf             	mov    %rcx,%rdi
    ac06:	e8 d5 87 ff ff       	call   33e0 <_ZNSt7__cxx1112basic_stringIcSt11char_traitsIcESaIcEE9_M_createERmm@plt>
    ac0b:	48 89 c2             	mov    %rax,%rdx
    ac0e:	48 8b 45 b8          	mov    -0x48(%rbp),%rax
    ac12:	48 89 d6             	mov    %rdx,%rsi
    ac15:	48 89 c7             	mov    %rax,%rdi
    ac18:	e8 c3 85 ff ff       	call   31e0 <_ZNSt7__cxx1112basic_stringIcSt11char_traitsIcESaIcEE7_M_dataEPc@plt>
    ac1d:	48 8b 55 c8          	mov    -0x38(%rbp),%rdx
    ac21:	48 8b 45 b8          	mov    -0x48(%rbp),%rax
    ac25:	48 89 d6             	mov    %rdx,%rsi
    ac28:	48 89 c7             	mov    %rax,%rdi
    ac2b:	e8 e0 87 ff ff       	call   3410 <_ZNSt7__cxx1112basic_stringIcSt11char_traitsIcESaIcEE11_M_capacityEm@plt>
    ac30:	eb 15                	jmp    ac47 <_ZNSt7__cxx1112basic_stringIcSt11char_traitsIcESaIcEE12_M_constructIPKcEEvT_S8_St20forward_iterator_tag+0xaf>
    ac32:	48 8b 45 b8          	mov    -0x48(%rbp),%rax
    ac36:	48 89 45 f0          	mov    %rax,-0x10(%rbp)
    ac3a:	48 8b 45 f0          	mov    -0x10(%rbp),%rax
    ac3e:	48 89 c7             	mov    %rax,%rdi
    ac41:	e8 7a 85 ff ff       	call   31c0 <_ZNSt7__cxx1112basic_stringIcSt11char_traitsIcESaIcEE13_M_local_dataEv@plt>
    ac46:	90                   	nop
    ac47:	48 8b 55 b8          	mov    -0x48(%rbp),%rdx
    ac4b:	48 8d 45 d0          	lea    -0x30(%rbp),%rax
    ac4f:	48 89 d6             	mov    %rdx,%rsi
    ac52:	48 89 c7             	mov    %rax,%rdi
    ac55:	e8 fa fe ff ff       	call   ab54 <_ZZNSt7__cxx1112basic_stringIcSt11char_traitsIcESaIcEE12_M_constructIPKcEEvT_S8_St20forward_iterator_tagEN6_GuardC1EPS4_>
    ac5a:	48 8b 45 b8          	mov    -0x48(%rbp),%rax
    ac5e:	48 89 c7             	mov    %rax,%rdi
    ac61:	e8 0a 86 ff ff       	call   3270 <_ZNKSt7__cxx1112basic_stringIcSt11char_traitsIcESaIcEE7_M_dataEv@plt>
    ac66:	48 89 c1             	mov    %rax,%rcx
    ac69:	48 8b 55 a8          	mov    -0x58(%rbp),%rdx
    ac6d:	48 8b 45 b0          	mov    -0x50(%rbp),%rax
    ac71:	48 89 c6             	mov    %rax,%rsi
    ac74:	48 89 cf             	mov    %rcx,%rdi
    ac77:	e8 14 86 ff ff       	call   3290 <_ZNSt7__cxx1112basic_stringIcSt11char_traitsIcESaIcEE13_S_copy_charsEPcPKcS7_@plt>
    ac7c:	48 c7 45 d0 00 00 00 	movq   $0x0,-0x30(%rbp)
    ac83:	00 
    ac84:	48 8b 55 c8          	mov    -0x38(%rbp),%rdx
    ac88:	48 8b 45 b8          	mov    -0x48(%rbp),%rax
    ac8c:	48 89 d6             	mov    %rdx,%rsi
    ac8f:	48 89 c7             	mov    %rax,%rdi
    ac92:	e8 d9 84 ff ff       	call   3170 <_ZNSt7__cxx1112basic_stringIcSt11char_traitsIcESaIcEE13_M_set_lengthEm@plt>
    ac97:	48 8d 45 d0          	lea    -0x30(%rbp),%rax
    ac9b:	48 89 c7             	mov    %rax,%rdi
    ac9e:	e8 cb fe ff ff       	call   ab6e <_ZZNSt7__cxx1112basic_stringIcSt11char_traitsIcESaIcEE12_M_constructIPKcEEvT_S8_St20forward_iterator_tagEN6_GuardD1Ev>
    aca3:	48 8b 45 f8          	mov    -0x8(%rbp),%rax
    aca7:	64 48 2b 04 25 28 00 	sub    %fs:0x28,%rax
    acae:	00 00 
    acb0:	74 05                	je     acb7 <_ZNSt7__cxx1112basic_stringIcSt11char_traitsIcESaIcEE12_M_constructIPKcEEvT_S8_St20forward_iterator_tag+0x11f>
    acb2:	e8 e9 85 ff ff       	call   32a0 <__stack_chk_fail@plt>
    acb7:	c9                   	leave
    acb8:	c3                   	ret
    acb9:	90                   	nop

000000000000acba <_ZNSt15__new_allocatorI7board_tED1Ev>:
    acba:	55                   	push   %rbp
    acbb:	48 89 e5             	mov    %rsp,%rbp
    acbe:	48 89 7d f8          	mov    %rdi,-0x8(%rbp)
    acc2:	90                   	nop
    acc3:	5d                   	pop    %rbp
    acc4:	c3                   	ret

000000000000acc5 <_ZNSt6vectorI7board_tSaIS0_EE17_S_check_init_lenEmRKS1_>:
    acc5:	55                   	push   %rbp
    acc6:	48 89 e5             	mov    %rsp,%rbp
    acc9:	53                   	push   %rbx
    acca:	48 83 ec 48          	sub    $0x48,%rsp
    acce:	48 89 7d b8          	mov    %rdi,-0x48(%rbp)
    acd2:	48 89 75 b0          	mov    %rsi,-0x50(%rbp)
    acd6:	64 48 8b 04 25 28 00 	mov    %fs:0x28,%rax
    acdd:	00 00 
    acdf:	48 89 45 e8          	mov    %rax,-0x18(%rbp)
    ace3:	31 c0                	xor    %eax,%eax
    ace5:	48 8b 45 b0          	mov    -0x50(%rbp),%rax
    ace9:	48 89 45 d0          	mov    %rax,-0x30(%rbp)
    aced:	48 8d 45 cf          	lea    -0x31(%rbp),%rax
    acf1:	48 89 45 d8          	mov    %rax,-0x28(%rbp)
    acf5:	48 8b 45 d0          	mov    -0x30(%rbp),%rax
    acf9:	48 89 45 e0          	mov    %rax,-0x20(%rbp)
    acfd:	90                   	nop
    acfe:	90                   	nop
    acff:	48 8d 45 cf          	lea    -0x31(%rbp),%rax
    ad03:	48 89 c7             	mov    %rax,%rdi
    ad06:	e8 f2 05 00 00       	call   b2fd <_ZNSt6vectorI7board_tSaIS0_EE11_S_max_sizeERKS1_>
    ad0b:	48 3b 45 b8          	cmp    -0x48(%rbp),%rax
    ad0f:	0f 92 c3             	setb   %bl
    ad12:	48 8d 45 cf          	lea    -0x31(%rbp),%rax
    ad16:	48 89 c7             	mov    %rax,%rdi
    ad19:	e8 9c ff ff ff       	call   acba <_ZNSt15__new_allocatorI7board_tED1Ev>
    ad1e:	90                   	nop
    ad1f:	84 db                	test   %bl,%bl
    ad21:	74 23                	je     ad46 <_ZNSt6vectorI7board_tSaIS0_EE17_S_check_init_lenEmRKS1_+0x81>
    ad23:	48 8b 45 e8          	mov    -0x18(%rbp),%rax
    ad27:	64 48 2b 04 25 28 00 	sub    %fs:0x28,%rax
    ad2e:	00 00 
    ad30:	74 05                	je     ad37 <_ZNSt6vectorI7board_tSaIS0_EE17_S_check_init_lenEmRKS1_+0x72>
    ad32:	e8 69 85 ff ff       	call   32a0 <__stack_chk_fail@plt>
    ad37:	48 8d 05 5a 70 00 00 	lea    0x705a(%rip),%rax        # 11d98 <_ZL9BORDER_SQ+0x5b8>
    ad3e:	48 89 c7             	mov    %rax,%rdi
    ad41:	e8 ba 83 ff ff       	call   3100 <_ZSt20__throw_length_errorPKc@plt>
    ad46:	48 8b 45 b8          	mov    -0x48(%rbp),%rax
    ad4a:	48 8b 55 e8          	mov    -0x18(%rbp),%rdx
    ad4e:	64 48 2b 14 25 28 00 	sub    %fs:0x28,%rdx
    ad55:	00 00 
    ad57:	74 05                	je     ad5e <_ZNSt6vectorI7board_tSaIS0_EE17_S_check_init_lenEmRKS1_+0x99>
    ad59:	e8 42 85 ff ff       	call   32a0 <__stack_chk_fail@plt>
    ad5e:	48 8b 5d f8          	mov    -0x8(%rbp),%rbx
    ad62:	c9                   	leave
    ad63:	c3                   	ret

000000000000ad64 <_ZNSt12_Vector_baseI7board_tSaIS0_EE12_Vector_implD1Ev>:
    ad64:	55                   	push   %rbp
    ad65:	48 89 e5             	mov    %rsp,%rbp
    ad68:	48 83 ec 20          	sub    $0x20,%rsp
    ad6c:	48 89 7d e8          	mov    %rdi,-0x18(%rbp)
    ad70:	48 8b 45 e8          	mov    -0x18(%rbp),%rax
    ad74:	48 89 45 f8          	mov    %rax,-0x8(%rbp)
    ad78:	48 8b 45 f8          	mov    -0x8(%rbp),%rax
    ad7c:	48 89 c7             	mov    %rax,%rdi
    ad7f:	e8 36 ff ff ff       	call   acba <_ZNSt15__new_allocatorI7board_tED1Ev>
    ad84:	90                   	nop
    ad85:	90                   	nop
    ad86:	c9                   	leave
    ad87:	c3                   	ret

000000000000ad88 <_ZNSt12_Vector_baseI7board_tSaIS0_EEC1EmRKS1_>:
    ad88:	55                   	push   %rbp
    ad89:	48 89 e5             	mov    %rsp,%rbp
    ad8c:	53                   	push   %rbx
    ad8d:	48 83 ec 28          	sub    $0x28,%rsp
    ad91:	48 89 7d e8          	mov    %rdi,-0x18(%rbp)
    ad95:	48 89 75 e0          	mov    %rsi,-0x20(%rbp)
    ad99:	48 89 55 d8          	mov    %rdx,-0x28(%rbp)
    ad9d:	48 8b 45 e8          	mov    -0x18(%rbp),%rax
    ada1:	48 8b 55 d8          	mov    -0x28(%rbp),%rdx
    ada5:	48 89 d6             	mov    %rdx,%rsi
    ada8:	48 89 c7             	mov    %rax,%rdi
    adab:	e8 ca 05 00 00       	call   b37a <_ZNSt12_Vector_baseI7board_tSaIS0_EE12_Vector_implC1ERKS1_>
    adb0:	48 8b 55 e0          	mov    -0x20(%rbp),%rdx
    adb4:	48 8b 45 e8          	mov    -0x18(%rbp),%rax
    adb8:	48 89 d6             	mov    %rdx,%rsi
    adbb:	48 89 c7             	mov    %rax,%rdi
    adbe:	e8 f9 05 00 00       	call   b3bc <_ZNSt12_Vector_baseI7board_tSaIS0_EE17_M_create_storageEm>
    adc3:	eb 1a                	jmp    addf <_ZNSt12_Vector_baseI7board_tSaIS0_EEC1EmRKS1_+0x57>
    adc5:	48 89 c3             	mov    %rax,%rbx
    adc8:	48 8b 45 e8          	mov    -0x18(%rbp),%rax
    adcc:	48 89 c7             	mov    %rax,%rdi
    adcf:	e8 90 ff ff ff       	call   ad64 <_ZNSt12_Vector_baseI7board_tSaIS0_EE12_Vector_implD1Ev>
    add4:	48 89 d8             	mov    %rbx,%rax
    add7:	48 89 c7             	mov    %rax,%rdi
    adda:	e8 f1 85 ff ff       	call   33d0 <_Unwind_Resume@plt>
    addf:	48 8b 5d f8          	mov    -0x8(%rbp),%rbx
    ade3:	c9                   	leave
    ade4:	c3                   	ret
    ade5:	90                   	nop

000000000000ade6 <_ZNSt12_Vector_baseI7board_tSaIS0_EED1Ev>:
    ade6:	55                   	push   %rbp
    ade7:	48 89 e5             	mov    %rsp,%rbp
    adea:	48 83 ec 10          	sub    $0x10,%rsp
    adee:	48 89 7d f8          	mov    %rdi,-0x8(%rbp)
    adf2:	48 8b 45 f8          	mov    -0x8(%rbp),%rax
    adf6:	48 8b 50 10          	mov    0x10(%rax),%rdx
    adfa:	48 8b 45 f8          	mov    -0x8(%rbp),%rax
    adfe:	48 8b 00             	mov    (%rax),%rax
    ae01:	48 29 c2             	sub    %rax,%rdx
    ae04:	48 c1 fa 04          	sar    $0x4,%rdx
    ae08:	48 b8 13 4a 75 cd 69 	movabs $0x4af18869cd754a13,%rax
    ae0f:	88 f1 4a 
    ae12:	48 0f af c2          	imul   %rdx,%rax
    ae16:	48 89 c2             	mov    %rax,%rdx
    ae19:	48 8b 45 f8          	mov    -0x8(%rbp),%rax
    ae1d:	48 8b 08             	mov    (%rax),%rcx
    ae20:	48 8b 45 f8          	mov    -0x8(%rbp),%rax
    ae24:	48 89 ce             	mov    %rcx,%rsi
    ae27:	48 89 c7             	mov    %rax,%rdi
    ae2a:	e8 e7 05 00 00       	call   b416 <_ZNSt12_Vector_baseI7board_tSaIS0_EE13_M_deallocateEPS0_m>
    ae2f:	48 8b 45 f8          	mov    -0x8(%rbp),%rax
    ae33:	48 89 c7             	mov    %rax,%rdi
    ae36:	e8 29 ff ff ff       	call   ad64 <_ZNSt12_Vector_baseI7board_tSaIS0_EE12_Vector_implD1Ev>
    ae3b:	90                   	nop
    ae3c:	c9                   	leave
    ae3d:	c3                   	ret

000000000000ae3e <_ZNSt6vectorI7board_tSaIS0_EE21_M_default_initializeEm>:
    ae3e:	55                   	push   %rbp
    ae3f:	48 89 e5             	mov    %rsp,%rbp
    ae42:	48 83 ec 10          	sub    $0x10,%rsp
    ae46:	48 89 7d f8          	mov    %rdi,-0x8(%rbp)
    ae4a:	48 89 75 f0          	mov    %rsi,-0x10(%rbp)
    ae4e:	48 8b 45 f8          	mov    -0x8(%rbp),%rax
    ae52:	48 89 c7             	mov    %rax,%rdi
    ae55:	e8 0a 06 00 00       	call   b464 <_ZNSt12_Vector_baseI7board_tSaIS0_EE19_M_get_Tp_allocatorEv>
    ae5a:	48 89 c2             	mov    %rax,%rdx
    ae5d:	48 8b 45 f8          	mov    -0x8(%rbp),%rax
    ae61:	48 8b 00             	mov    (%rax),%rax
    ae64:	48 8b 4d f0          	mov    -0x10(%rbp),%rcx
    ae68:	48 89 ce             	mov    %rcx,%rsi
    ae6b:	48 89 c7             	mov    %rax,%rdi
    ae6e:	e8 ff 05 00 00       	call   b472 <_ZSt27__uninitialized_default_n_aIP7board_tmS0_ET_S2_T0_RSaIT1_E>
    ae73:	48 8b 55 f8          	mov    -0x8(%rbp),%rdx
    ae77:	48 89 42 08          	mov    %rax,0x8(%rdx)
    ae7b:	90                   	nop
    ae7c:	c9                   	leave
    ae7d:	c3                   	ret

000000000000ae7e <_ZNSt8__detail9_Map_baseIcSt4pairIKciESaIS3_ENS_10_Select1stESt8equal_toIcESt4hashIcENS_18_Mod_range_hashingENS_20_Default_ranged_hashENS_20_Prime_rehash_policyENS_17_Hashtable_traitsILb0ELb0ELb1EEELb1EEixERS2_>:
    ae7e:	55                   	push   %rbp
    ae7f:	48 89 e5             	mov    %rsp,%rbp
    ae82:	53                   	push   %rbx
    ae83:	48 83 ec 68          	sub    $0x68,%rsp
    ae87:	48 89 7d 98          	mov    %rdi,-0x68(%rbp)
    ae8b:	48 89 75 90          	mov    %rsi,-0x70(%rbp)
    ae8f:	64 48 8b 04 25 28 00 	mov    %fs:0x28,%rax
    ae96:	00 00 
    ae98:	48 89 45 e8          	mov    %rax,-0x18(%rbp)
    ae9c:	31 c0                	xor    %eax,%eax
    ae9e:	48 8b 45 98          	mov    -0x68(%rbp),%rax
    aea2:	48 89 45 b0          	mov    %rax,-0x50(%rbp)
    aea6:	48 8b 55 90          	mov    -0x70(%rbp),%rdx
    aeaa:	48 8b 45 b0          	mov    -0x50(%rbp),%rax
    aeae:	48 89 d6             	mov    %rdx,%rsi
    aeb1:	48 89 c7             	mov    %rax,%rdi
    aeb4:	e8 2f b1 ff ff       	call   5fe8 <_ZNKSt8__detail15_Hash_code_baseIcSt4pairIKciENS_10_Select1stESt4hashIcENS_18_Mod_range_hashingENS_20_Default_ranged_hashELb0EE12_M_hash_codeERS2_>
    aeb9:	48 89 45 b8          	mov    %rax,-0x48(%rbp)
    aebd:	48 8b 55 b8          	mov    -0x48(%rbp),%rdx
    aec1:	48 8b 45 b0          	mov    -0x50(%rbp),%rax
    aec5:	48 89 d6             	mov    %rdx,%rsi
    aec8:	48 89 c7             	mov    %rax,%rdi
    aecb:	e8 fe a5 ff ff       	call   54ce <_ZNKSt10_HashtableIcSt4pairIKciESaIS2_ENSt8__detail10_Select1stESt8equal_toIcESt4hashIcENS4_18_Mod_range_hashingENS4_20_Default_ranged_hashENS4_20_Prime_rehash_policyENS4_17_Hashtable_traitsILb0ELb0ELb1EEEE15_M_bucket_indexEm>
    aed0:	48 89 45 c0          	mov    %rax,-0x40(%rbp)
    aed4:	48 8b 4d b8          	mov    -0x48(%rbp),%rcx
    aed8:	48 8b 55 90          	mov    -0x70(%rbp),%rdx
    aedc:	48 8b 75 c0          	mov    -0x40(%rbp),%rsi
    aee0:	48 8b 45 b0          	mov    -0x50(%rbp),%rax
    aee4:	48 89 c7             	mov    %rax,%rdi
    aee7:	e8 b0 05 00 00       	call   b49c <_ZNKSt10_HashtableIcSt4pairIKciESaIS2_ENSt8__detail10_Select1stESt8equal_toIcESt4hashIcENS4_18_Mod_range_hashingENS4_20_Default_ranged_hashENS4_20_Prime_rehash_policyENS4_17_Hashtable_traitsILb0ELb0ELb1EEEE12_M_find_nodeEmRS1_m>
    aeec:	48 89 45 c8          	mov    %rax,-0x38(%rbp)
    aef0:	48 83 7d c8 00       	cmpq   $0x0,-0x38(%rbp)
    aef5:	74 19                	je     af10 <_ZNSt8__detail9_Map_baseIcSt4pairIKciESaIS3_ENS_10_Select1stESt8equal_toIcESt4hashIcENS_18_Mod_range_hashingENS_20_Default_ranged_hashENS_20_Prime_rehash_policyENS_17_Hashtable_traitsILb0ELb0ELb1EEELb1EEixERS2_+0x92>
    aef7:	48 8b 45 c8          	mov    -0x38(%rbp),%rax
    aefb:	48 83 c0 08          	add    $0x8,%rax
    aeff:	48 89 c7             	mov    %rax,%rdi
    af02:	e8 e1 05 00 00       	call   b4e8 <_ZNSt8__detail21_Hash_node_value_baseISt4pairIKciEE4_M_vEv>
    af07:	48 8d 58 04          	lea    0x4(%rax),%rbx
    af0b:	e9 81 00 00 00       	jmp    af91 <_ZNSt8__detail9_Map_baseIcSt4pairIKciESaIS3_ENS_10_Select1stESt8equal_toIcESt4hashIcENS_18_Mod_range_hashingENS_20_Default_ranged_hashENS_20_Prime_rehash_policyENS_17_Hashtable_traitsILb0ELb0ELb1EEELb1EEixERS2_+0x113>
    af10:	48 8b 5d b0          	mov    -0x50(%rbp),%rbx
    af14:	48 8b 55 90          	mov    -0x70(%rbp),%rdx
    af18:	48 8d 45 a8          	lea    -0x58(%rbp),%rax
    af1c:	48 89 d6             	mov    %rdx,%rsi
    af1f:	48 89 c7             	mov    %rax,%rdi
    af22:	e8 db 05 00 00       	call   b502 <_ZNSt5tupleIJRKcEEC1ILb1ELb1EEES1_>
    af27:	48 8d 4d a7          	lea    -0x59(%rbp),%rcx
    af2b:	48 8d 55 a8          	lea    -0x58(%rbp),%rdx
    af2f:	48 8d 45 d0          	lea    -0x30(%rbp),%rax
    af33:	49 89 c8             	mov    %rcx,%r8
    af36:	48 89 d1             	mov    %rdx,%rcx
    af39:	48 8d 15 70 66 00 00 	lea    0x6670(%rip),%rdx        # 115b0 <_ZSt19piecewise_construct>
    af40:	48 89 de             	mov    %rbx,%rsi
    af43:	48 89 c7             	mov    %rax,%rdi
    af46:	e8 dd 05 00 00       	call   b528 <_ZNSt10_HashtableIcSt4pairIKciESaIS2_ENSt8__detail10_Select1stESt8equal_toIcESt4hashIcENS4_18_Mod_range_hashingENS4_20_Default_ranged_hashENS4_20_Prime_rehash_policyENS4_17_Hashtable_traitsILb0ELb0ELb1EEEE12_Scoped_nodeC1IJRKSt21piecewise_construct_tSt5tupleIJRS1_EESL_IJEEEEEPNS4_16_Hashtable_allocISaINS4_10_Hash_nodeIS2_Lb0EEEEEEDpOT_>
    af4b:	48 8b 4d d8          	mov    -0x28(%rbp),%rcx
    af4f:	48 8b 55 b8          	mov    -0x48(%rbp),%rdx
    af53:	48 8b 75 c0          	mov    -0x40(%rbp),%rsi
    af57:	48 8b 45 b0          	mov    -0x50(%rbp),%rax
    af5b:	41 b8 01 00 00 00    	mov    $0x1,%r8d
    af61:	48 89 c7             	mov    %rax,%rdi
    af64:	e8 03 a7 ff ff       	call   566c <_ZNSt10_HashtableIcSt4pairIKciESaIS2_ENSt8__detail10_Select1stESt8equal_toIcESt4hashIcENS4_18_Mod_range_hashingENS4_20_Default_ranged_hashENS4_20_Prime_rehash_policyENS4_17_Hashtable_traitsILb0ELb0ELb1EEEE21_M_insert_unique_nodeEmmPNS4_10_Hash_nodeIS2_Lb0EEEm>
    af69:	48 89 45 a8          	mov    %rax,-0x58(%rbp)
    af6d:	48 c7 45 d8 00 00 00 	movq   $0x0,-0x28(%rbp)
    af74:	00 
    af75:	48 8d 45 a8          	lea    -0x58(%rbp),%rax
    af79:	48 89 c7             	mov    %rax,%rdi
    af7c:	e8 27 06 00 00       	call   b5a8 <_ZNKSt8__detail14_Node_iteratorISt4pairIKciELb0ELb0EEptEv>
    af81:	48 8d 58 04          	lea    0x4(%rax),%rbx
    af85:	48 8d 45 d0          	lea    -0x30(%rbp),%rax
    af89:	48 89 c7             	mov    %rax,%rdi
    af8c:	e8 a5 a6 ff ff       	call   5636 <_ZNSt10_HashtableIcSt4pairIKciESaIS2_ENSt8__detail10_Select1stESt8equal_toIcESt4hashIcENS4_18_Mod_range_hashingENS4_20_Default_ranged_hashENS4_20_Prime_rehash_policyENS4_17_Hashtable_traitsILb0ELb0ELb1EEEE12_Scoped_nodeD1Ev>
    af91:	48 89 d8             	mov    %rbx,%rax
    af94:	48 8b 55 e8          	mov    -0x18(%rbp),%rdx
    af98:	64 48 2b 14 25 28 00 	sub    %fs:0x28,%rdx
    af9f:	00 00 
    afa1:	74 35                	je     afd8 <_ZNSt8__detail9_Map_baseIcSt4pairIKciESaIS3_ENS_10_Select1stESt8equal_toIcESt4hashIcENS_18_Mod_range_hashingENS_20_Default_ranged_hashENS_20_Prime_rehash_policyENS_17_Hashtable_traitsILb0ELb0ELb1EEELb1EEixERS2_+0x15a>
    afa3:	eb 2e                	jmp    afd3 <_ZNSt8__detail9_Map_baseIcSt4pairIKciESaIS3_ENS_10_Select1stESt8equal_toIcESt4hashIcENS_18_Mod_range_hashingENS_20_Default_ranged_hashENS_20_Prime_rehash_policyENS_17_Hashtable_traitsILb0ELb0ELb1EEELb1EEixERS2_+0x155>
    afa5:	48 89 c3             	mov    %rax,%rbx
    afa8:	48 8d 45 d0          	lea    -0x30(%rbp),%rax
    afac:	48 89 c7             	mov    %rax,%rdi
    afaf:	e8 82 a6 ff ff       	call   5636 <_ZNSt10_HashtableIcSt4pairIKciESaIS2_ENSt8__detail10_Select1stESt8equal_toIcESt4hashIcENS4_18_Mod_range_hashingENS4_20_Default_ranged_hashENS4_20_Prime_rehash_policyENS4_17_Hashtable_traitsILb0ELb0ELb1EEEE12_Scoped_nodeD1Ev>
    afb4:	48 89 d8             	mov    %rbx,%rax
    afb7:	48 8b 55 e8          	mov    -0x18(%rbp),%rdx
    afbb:	64 48 2b 14 25 28 00 	sub    %fs:0x28,%rdx
    afc2:	00 00 
    afc4:	74 05                	je     afcb <_ZNSt8__detail9_Map_baseIcSt4pairIKciESaIS3_ENS_10_Select1stESt8equal_toIcESt4hashIcENS_18_Mod_range_hashingENS_20_Default_ranged_hashENS_20_Prime_rehash_policyENS_17_Hashtable_traitsILb0ELb0ELb1EEELb1EEixERS2_+0x14d>
    afc6:	e8 d5 82 ff ff       	call   32a0 <__stack_chk_fail@plt>
    afcb:	48 89 c7             	mov    %rax,%rdi
    afce:	e8 fd 83 ff ff       	call   33d0 <_Unwind_Resume@plt>
    afd3:	e8 c8 82 ff ff       	call   32a0 <__stack_chk_fail@plt>
    afd8:	48 8b 5d f8          	mov    -0x8(%rbp),%rbx
    afdc:	c9                   	leave
    afdd:	c3                   	ret

000000000000afde <_ZNSt6vectorI7board_tSaIS0_EE3endEv>:
    afde:	55                   	push   %rbp
    afdf:	48 89 e5             	mov    %rsp,%rbp
    afe2:	48 83 ec 20          	sub    $0x20,%rsp
    afe6:	48 89 7d e8          	mov    %rdi,-0x18(%rbp)
    afea:	64 48 8b 04 25 28 00 	mov    %fs:0x28,%rax
    aff1:	00 00 
    aff3:	48 89 45 f8          	mov    %rax,-0x8(%rbp)
    aff7:	31 c0                	xor    %eax,%eax
    aff9:	48 8b 45 e8          	mov    -0x18(%rbp),%rax
    affd:	48 8d 50 08          	lea    0x8(%rax),%rdx
    b001:	48 8d 45 f0          	lea    -0x10(%rbp),%rax
    b005:	48 89 d6             	mov    %rdx,%rsi
    b008:	48 89 c7             	mov    %rax,%rdi
    b00b:	e8 c8 05 00 00       	call   b5d8 <_ZN9__gnu_cxx17__normal_iteratorIP7board_tSt6vectorIS1_SaIS1_EEEC1ERKS2_>
    b010:	48 8b 45 f0          	mov    -0x10(%rbp),%rax
    b014:	48 8b 55 f8          	mov    -0x8(%rbp),%rdx
    b018:	64 48 2b 14 25 28 00 	sub    %fs:0x28,%rdx
    b01f:	00 00 
    b021:	74 05                	je     b028 <_ZNSt6vectorI7board_tSaIS0_EE3endEv+0x4a>
    b023:	e8 78 82 ff ff       	call   32a0 <__stack_chk_fail@plt>
    b028:	c9                   	leave
    b029:	c3                   	ret

000000000000b02a <_ZNSt6vectorI7board_tSaIS0_EE17_M_realloc_insertIJRKS0_EEEvN9__gnu_cxx17__normal_iteratorIPS0_S2_EEDpOT_>:
    b02a:	55                   	push   %rbp
    b02b:	48 89 e5             	mov    %rsp,%rbp
    b02e:	53                   	push   %rbx
    b02f:	48 81 ec 98 00 00 00 	sub    $0x98,%rsp
    b036:	48 89 bd 78 ff ff ff 	mov    %rdi,-0x88(%rbp)
    b03d:	48 89 b5 70 ff ff ff 	mov    %rsi,-0x90(%rbp)
    b044:	48 89 95 68 ff ff ff 	mov    %rdx,-0x98(%rbp)
    b04b:	64 48 8b 04 25 28 00 	mov    %fs:0x28,%rax
    b052:	00 00 
    b054:	48 89 45 e8          	mov    %rax,-0x18(%rbp)
    b058:	31 c0                	xor    %eax,%eax
    b05a:	48 8b 85 78 ff ff ff 	mov    -0x88(%rbp),%rax
    b061:	48 8d 15 61 6d 00 00 	lea    0x6d61(%rip),%rdx        # 11dc9 <_ZL9BORDER_SQ+0x5e9>
    b068:	be 01 00 00 00       	mov    $0x1,%esi
    b06d:	48 89 c7             	mov    %rax,%rdi
    b070:	e8 81 05 00 00       	call   b5f6 <_ZNKSt6vectorI7board_tSaIS0_EE12_M_check_lenEmPKc>
    b075:	48 89 45 88          	mov    %rax,-0x78(%rbp)
    b079:	48 8b 85 78 ff ff ff 	mov    -0x88(%rbp),%rax
    b080:	48 8b 00             	mov    (%rax),%rax
    b083:	48 89 45 90          	mov    %rax,-0x70(%rbp)
    b087:	48 8b 85 78 ff ff ff 	mov    -0x88(%rbp),%rax
    b08e:	48 8b 40 08          	mov    0x8(%rax),%rax
    b092:	48 89 45 98          	mov    %rax,-0x68(%rbp)
    b096:	48 8b 85 78 ff ff ff 	mov    -0x88(%rbp),%rax
    b09d:	48 89 c7             	mov    %rax,%rdi
    b0a0:	e8 51 06 00 00       	call   b6f6 <_ZNSt6vectorI7board_tSaIS0_EE5beginEv>
    b0a5:	48 89 45 80          	mov    %rax,-0x80(%rbp)
    b0a9:	48 8d 55 80          	lea    -0x80(%rbp),%rdx
    b0ad:	48 8d 85 70 ff ff ff 	lea    -0x90(%rbp),%rax
    b0b4:	48 89 d6             	mov    %rdx,%rsi
    b0b7:	48 89 c7             	mov    %rax,%rdi
    b0ba:	e8 7f 06 00 00       	call   b73e <_ZN9__gnu_cxxmiIP7board_tSt6vectorIS1_SaIS1_EEEENS_17__normal_iteratorIT_T0_E15difference_typeERKS9_SC_>
    b0bf:	48 89 45 a0          	mov    %rax,-0x60(%rbp)
    b0c3:	48 8b 85 78 ff ff ff 	mov    -0x88(%rbp),%rax
    b0ca:	48 8b 55 88          	mov    -0x78(%rbp),%rdx
    b0ce:	48 89 d6             	mov    %rdx,%rsi
    b0d1:	48 89 c7             	mov    %rax,%rdi
    b0d4:	e8 b3 06 00 00       	call   b78c <_ZNSt12_Vector_baseI7board_tSaIS0_EE11_M_allocateEm>
    b0d9:	48 89 45 a8          	mov    %rax,-0x58(%rbp)
    b0dd:	48 8b 45 a8          	mov    -0x58(%rbp),%rax
    b0e1:	48 89 45 b0          	mov    %rax,-0x50(%rbp)
    b0e5:	48 8b 85 68 ff ff ff 	mov    -0x98(%rbp),%rax
    b0ec:	48 89 c7             	mov    %rax,%rdi
    b0ef:	e8 d5 04 00 00       	call   b5c9 <_ZSt7forwardIRK7board_tEOT_RNSt16remove_referenceIS3_E4typeE>
    b0f4:	48 8b 55 a0          	mov    -0x60(%rbp),%rdx
    b0f8:	48 69 d2 b0 01 01 00 	imul   $0x101b0,%rdx,%rdx
    b0ff:	48 8b 4d a8          	mov    -0x58(%rbp),%rcx
    b103:	48 01 ca             	add    %rcx,%rdx
    b106:	48 8b 8d 78 ff ff ff 	mov    -0x88(%rbp),%rcx
    b10d:	48 89 4d b8          	mov    %rcx,-0x48(%rbp)
    b111:	48 89 55 c0          	mov    %rdx,-0x40(%rbp)
    b115:	48 89 45 c8          	mov    %rax,-0x38(%rbp)
    b119:	48 8b 45 c8          	mov    -0x38(%rbp),%rax
    b11d:	48 89 c7             	mov    %rax,%rdi
    b120:	e8 a4 04 00 00       	call   b5c9 <_ZSt7forwardIRK7board_tEOT_RNSt16remove_referenceIS3_E4typeE>
    b125:	48 8b 55 b8          	mov    -0x48(%rbp),%rdx
    b129:	48 89 55 d0          	mov    %rdx,-0x30(%rbp)
    b12d:	48 8b 55 c0          	mov    -0x40(%rbp),%rdx
    b131:	48 89 55 d8          	mov    %rdx,-0x28(%rbp)
    b135:	48 89 45 e0          	mov    %rax,-0x20(%rbp)
    b139:	48 8b 45 d8          	mov    -0x28(%rbp),%rax
    b13d:	48 89 c6             	mov    %rax,%rsi
    b140:	bf b0 01 01 00       	mov    $0x101b0,%edi
    b145:	e8 d0 8f ff ff       	call   411a <_ZnwmPv>
    b14a:	48 89 c3             	mov    %rax,%rbx
    b14d:	48 8b 45 e0          	mov    -0x20(%rbp),%rax
    b151:	48 89 c7             	mov    %rax,%rdi
    b154:	e8 70 04 00 00       	call   b5c9 <_ZSt7forwardIRK7board_tEOT_RNSt16remove_referenceIS3_E4typeE>
    b159:	48 89 d9             	mov    %rbx,%rcx
    b15c:	ba b0 01 01 00       	mov    $0x101b0,%edx
    b161:	48 89 c6             	mov    %rax,%rsi
    b164:	48 89 cf             	mov    %rcx,%rdi
    b167:	e8 64 80 ff ff       	call   31d0 <memcpy@plt>
    b16c:	90                   	nop
    b16d:	90                   	nop
    b16e:	48 c7 45 b0 00 00 00 	movq   $0x0,-0x50(%rbp)
    b175:	00 
    b176:	48 8b 85 78 ff ff ff 	mov    -0x88(%rbp),%rax
    b17d:	48 89 c7             	mov    %rax,%rdi
    b180:	e8 df 02 00 00       	call   b464 <_ZNSt12_Vector_baseI7board_tSaIS0_EE19_M_get_Tp_allocatorEv>
    b185:	48 89 c3             	mov    %rax,%rbx
    b188:	48 8d 85 70 ff ff ff 	lea    -0x90(%rbp),%rax
    b18f:	48 89 c7             	mov    %rax,%rdi
    b192:	e8 71 06 00 00       	call   b808 <_ZNK9__gnu_cxx17__normal_iteratorIP7board_tSt6vectorIS1_SaIS1_EEE4baseEv>
    b197:	48 8b 30             	mov    (%rax),%rsi
    b19a:	48 8b 55 a8          	mov    -0x58(%rbp),%rdx
    b19e:	48 8b 45 90          	mov    -0x70(%rbp),%rax
    b1a2:	48 89 d9             	mov    %rbx,%rcx
    b1a5:	48 89 c7             	mov    %rax,%rdi
    b1a8:	e8 28 06 00 00       	call   b7d5 <_ZNSt6vectorI7board_tSaIS0_EE11_S_relocateEPS0_S3_S3_RS1_>
    b1ad:	48 89 45 b0          	mov    %rax,-0x50(%rbp)
    b1b1:	48 81 45 b0 b0 01 01 	addq   $0x101b0,-0x50(%rbp)
    b1b8:	00 
    b1b9:	48 8b 85 78 ff ff ff 	mov    -0x88(%rbp),%rax
    b1c0:	48 89 c7             	mov    %rax,%rdi
    b1c3:	e8 9c 02 00 00       	call   b464 <_ZNSt12_Vector_baseI7board_tSaIS0_EE19_M_get_Tp_allocatorEv>
    b1c8:	48 89 c3             	mov    %rax,%rbx
    b1cb:	48 8d 85 70 ff ff ff 	lea    -0x90(%rbp),%rax
    b1d2:	48 89 c7             	mov    %rax,%rdi
    b1d5:	e8 2e 06 00 00       	call   b808 <_ZNK9__gnu_cxx17__normal_iteratorIP7board_tSt6vectorIS1_SaIS1_EEE4baseEv>
    b1da:	48 8b 00             	mov    (%rax),%rax
    b1dd:	48 8b 55 b0          	mov    -0x50(%rbp),%rdx
    b1e1:	48 8b 75 98          	mov    -0x68(%rbp),%rsi
    b1e5:	48 89 d9             	mov    %rbx,%rcx
    b1e8:	48 89 c7             	mov    %rax,%rdi
    b1eb:	e8 e5 05 00 00       	call   b7d5 <_ZNSt6vectorI7board_tSaIS0_EE11_S_relocateEPS0_S3_S3_RS1_>
    b1f0:	48 89 45 b0          	mov    %rax,-0x50(%rbp)
    b1f4:	48 8b 85 78 ff ff ff 	mov    -0x88(%rbp),%rax
    b1fb:	48 8b 95 78 ff ff ff 	mov    -0x88(%rbp),%rdx
    b202:	48 8b 52 10          	mov    0x10(%rdx),%rdx
    b206:	48 2b 55 90          	sub    -0x70(%rbp),%rdx
    b20a:	48 89 d1             	mov    %rdx,%rcx
    b20d:	48 c1 f9 04          	sar    $0x4,%rcx
    b211:	48 ba 13 4a 75 cd 69 	movabs $0x4af18869cd754a13,%rdx
    b218:	88 f1 4a 
    b21b:	48 0f af d1          	imul   %rcx,%rdx
    b21f:	48 8b 4d 90          	mov    -0x70(%rbp),%rcx
    b223:	48 89 ce             	mov    %rcx,%rsi
    b226:	48 89 c7             	mov    %rax,%rdi
    b229:	e8 e8 01 00 00       	call   b416 <_ZNSt12_Vector_baseI7board_tSaIS0_EE13_M_deallocateEPS0_m>
    b22e:	48 8b 85 78 ff ff ff 	mov    -0x88(%rbp),%rax
    b235:	48 8b 55 a8          	mov    -0x58(%rbp),%rdx
    b239:	48 89 10             	mov    %rdx,(%rax)
    b23c:	48 8b 85 78 ff ff ff 	mov    -0x88(%rbp),%rax
    b243:	48 8b 55 b0          	mov    -0x50(%rbp),%rdx
    b247:	48 89 50 08          	mov    %rdx,0x8(%rax)
    b24b:	48 8b 45 88          	mov    -0x78(%rbp),%rax
    b24f:	48 69 c0 b0 01 01 00 	imul   $0x101b0,%rax,%rax
    b256:	48 8b 55 a8          	mov    -0x58(%rbp),%rdx
    b25a:	48 01 c2             	add    %rax,%rdx
    b25d:	48 8b 85 78 ff ff ff 	mov    -0x88(%rbp),%rax
    b264:	48 89 50 10          	mov    %rdx,0x10(%rax)
    b268:	90                   	nop
    b269:	48 8b 45 e8          	mov    -0x18(%rbp),%rax
    b26d:	64 48 2b 04 25 28 00 	sub    %fs:0x28,%rax
    b274:	00 00 
    b276:	74 05                	je     b27d <_ZNSt6vectorI7board_tSaIS0_EE17_M_realloc_insertIJRKS0_EEEvN9__gnu_cxx17__normal_iteratorIPS0_S2_EEDpOT_+0x253>
    b278:	e8 23 80 ff ff       	call   32a0 <__stack_chk_fail@plt>
    b27d:	48 8b 5d f8          	mov    -0x8(%rbp),%rbx
    b281:	c9                   	leave
    b282:	c3                   	ret
    b283:	90                   	nop

000000000000b284 <_ZNK9__gnu_cxx17__normal_iteratorIP7board_tSt6vectorIS1_SaIS1_EEEmiEl>:
    b284:	55                   	push   %rbp
    b285:	48 89 e5             	mov    %rsp,%rbp
    b288:	48 83 ec 30          	sub    $0x30,%rsp
    b28c:	48 89 7d d8          	mov    %rdi,-0x28(%rbp)
    b290:	48 89 75 d0          	mov    %rsi,-0x30(%rbp)
    b294:	64 48 8b 04 25 28 00 	mov    %fs:0x28,%rax
    b29b:	00 00 
    b29d:	48 89 45 f8          	mov    %rax,-0x8(%rbp)
    b2a1:	31 c0                	xor    %eax,%eax
    b2a3:	48 8b 45 d8          	mov    -0x28(%rbp),%rax
    b2a7:	48 8b 10             	mov    (%rax),%rdx
    b2aa:	48 8b 45 d0          	mov    -0x30(%rbp),%rax
    b2ae:	48 69 c0 b0 01 01 00 	imul   $0x101b0,%rax,%rax
    b2b5:	48 f7 d8             	neg    %rax
    b2b8:	48 01 d0             	add    %rdx,%rax
    b2bb:	48 89 45 e8          	mov    %rax,-0x18(%rbp)
    b2bf:	48 8d 55 e8          	lea    -0x18(%rbp),%rdx
    b2c3:	48 8d 45 f0          	lea    -0x10(%rbp),%rax
    b2c7:	48 89 d6             	mov    %rdx,%rsi
    b2ca:	48 89 c7             	mov    %rax,%rdi
    b2cd:	e8 06 03 00 00       	call   b5d8 <_ZN9__gnu_cxx17__normal_iteratorIP7board_tSt6vectorIS1_SaIS1_EEEC1ERKS2_>
    b2d2:	48 8b 45 f0          	mov    -0x10(%rbp),%rax
    b2d6:	48 8b 55 f8          	mov    -0x8(%rbp),%rdx
    b2da:	64 48 2b 14 25 28 00 	sub    %fs:0x28,%rdx
    b2e1:	00 00 
    b2e3:	74 05                	je     b2ea <_ZNK9__gnu_cxx17__normal_iteratorIP7board_tSt6vectorIS1_SaIS1_EEEmiEl+0x66>
    b2e5:	e8 b6 7f ff ff       	call   32a0 <__stack_chk_fail@plt>
    b2ea:	c9                   	leave
    b2eb:	c3                   	ret

000000000000b2ec <_ZNK9__gnu_cxx17__normal_iteratorIP7board_tSt6vectorIS1_SaIS1_EEEdeEv>:
    b2ec:	55                   	push   %rbp
    b2ed:	48 89 e5             	mov    %rsp,%rbp
    b2f0:	48 89 7d f8          	mov    %rdi,-0x8(%rbp)
    b2f4:	48 8b 45 f8          	mov    -0x8(%rbp),%rax
    b2f8:	48 8b 00             	mov    (%rax),%rax
    b2fb:	5d                   	pop    %rbp
    b2fc:	c3                   	ret

000000000000b2fd <_ZNSt6vectorI7board_tSaIS0_EE11_S_max_sizeERKS1_>:
    b2fd:	55                   	push   %rbp
    b2fe:	48 89 e5             	mov    %rsp,%rbp
    b301:	48 83 ec 40          	sub    $0x40,%rsp
    b305:	48 89 7d c8          	mov    %rdi,-0x38(%rbp)
    b309:	64 48 8b 04 25 28 00 	mov    %fs:0x28,%rax
    b310:	00 00 
    b312:	48 89 45 f8          	mov    %rax,-0x8(%rbp)
    b316:	31 c0                	xor    %eax,%eax
    b318:	48 b8 2c ef 1c 6a 29 	movabs $0x7f296a1cef2c,%rax
    b31f:	7f 00 00 
    b322:	48 89 45 d0          	mov    %rax,-0x30(%rbp)
    b326:	48 8b 45 c8          	mov    -0x38(%rbp),%rax
    b32a:	48 89 45 e0          	mov    %rax,-0x20(%rbp)
    b32e:	48 8b 45 e0          	mov    -0x20(%rbp),%rax
    b332:	48 89 45 e8          	mov    %rax,-0x18(%rbp)
    b336:	48 8b 45 e8          	mov    -0x18(%rbp),%rax
    b33a:	48 89 45 f0          	mov    %rax,-0x10(%rbp)
    b33e:	48 b8 2c ef 1c 6a 29 	movabs $0x7f296a1cef2c,%rax
    b345:	7f 00 00 
    b348:	90                   	nop
    b349:	90                   	nop
    b34a:	48 89 45 d8          	mov    %rax,-0x28(%rbp)
    b34e:	48 8d 55 d8          	lea    -0x28(%rbp),%rdx
    b352:	48 8d 45 d0          	lea    -0x30(%rbp),%rax
    b356:	48 89 d6             	mov    %rdx,%rsi
    b359:	48 89 c7             	mov    %rax,%rdi
    b35c:	e8 75 ef ff ff       	call   a2d6 <_ZSt3minImERKT_S2_S2_>
    b361:	48 8b 00             	mov    (%rax),%rax
    b364:	48 8b 55 f8          	mov    -0x8(%rbp),%rdx
    b368:	64 48 2b 14 25 28 00 	sub    %fs:0x28,%rdx
    b36f:	00 00 
    b371:	74 05                	je     b378 <_ZNSt6vectorI7board_tSaIS0_EE11_S_max_sizeERKS1_+0x7b>
    b373:	e8 28 7f ff ff       	call   32a0 <__stack_chk_fail@plt>
    b378:	c9                   	leave
    b379:	c3                   	ret

000000000000b37a <_ZNSt12_Vector_baseI7board_tSaIS0_EE12_Vector_implC1ERKS1_>:
    b37a:	55                   	push   %rbp
    b37b:	48 89 e5             	mov    %rsp,%rbp
    b37e:	48 83 ec 30          	sub    $0x30,%rsp
    b382:	48 89 7d d8          	mov    %rdi,-0x28(%rbp)
    b386:	48 89 75 d0          	mov    %rsi,-0x30(%rbp)
    b38a:	48 8b 45 d8          	mov    -0x28(%rbp),%rax
    b38e:	48 89 45 e0          	mov    %rax,-0x20(%rbp)
    b392:	48 8b 45 d0          	mov    -0x30(%rbp),%rax
    b396:	48 89 45 e8          	mov    %rax,-0x18(%rbp)
    b39a:	48 8b 45 e0          	mov    -0x20(%rbp),%rax
    b39e:	48 89 45 f0          	mov    %rax,-0x10(%rbp)
    b3a2:	48 8b 45 e8          	mov    -0x18(%rbp),%rax
    b3a6:	48 89 45 f8          	mov    %rax,-0x8(%rbp)
    b3aa:	90                   	nop
    b3ab:	90                   	nop
    b3ac:	48 8b 45 d8          	mov    -0x28(%rbp),%rax
    b3b0:	48 89 c7             	mov    %rax,%rdi
    b3b3:	e8 5e 04 00 00       	call   b816 <_ZNSt12_Vector_baseI7board_tSaIS0_EE17_Vector_impl_dataC1Ev>
    b3b8:	90                   	nop
    b3b9:	c9                   	leave
    b3ba:	c3                   	ret
    b3bb:	90                   	nop

000000000000b3bc <_ZNSt12_Vector_baseI7board_tSaIS0_EE17_M_create_storageEm>:
    b3bc:	55                   	push   %rbp
    b3bd:	48 89 e5             	mov    %rsp,%rbp
    b3c0:	48 83 ec 10          	sub    $0x10,%rsp
    b3c4:	48 89 7d f8          	mov    %rdi,-0x8(%rbp)
    b3c8:	48 89 75 f0          	mov    %rsi,-0x10(%rbp)
    b3cc:	48 8b 55 f0          	mov    -0x10(%rbp),%rdx
    b3d0:	48 8b 45 f8          	mov    -0x8(%rbp),%rax
    b3d4:	48 89 d6             	mov    %rdx,%rsi
    b3d7:	48 89 c7             	mov    %rax,%rdi
    b3da:	e8 ad 03 00 00       	call   b78c <_ZNSt12_Vector_baseI7board_tSaIS0_EE11_M_allocateEm>
    b3df:	48 8b 55 f8          	mov    -0x8(%rbp),%rdx
    b3e3:	48 89 02             	mov    %rax,(%rdx)
    b3e6:	48 8b 45 f8          	mov    -0x8(%rbp),%rax
    b3ea:	48 8b 10             	mov    (%rax),%rdx
    b3ed:	48 8b 45 f8          	mov    -0x8(%rbp),%rax
    b3f1:	48 89 50 08          	mov    %rdx,0x8(%rax)
    b3f5:	48 8b 45 f8          	mov    -0x8(%rbp),%rax
    b3f9:	48 8b 10             	mov    (%rax),%rdx
    b3fc:	48 8b 45 f0          	mov    -0x10(%rbp),%rax
    b400:	48 69 c0 b0 01 01 00 	imul   $0x101b0,%rax,%rax
    b407:	48 01 c2             	add    %rax,%rdx
    b40a:	48 8b 45 f8          	mov    -0x8(%rbp),%rax
    b40e:	48 89 50 10          	mov    %rdx,0x10(%rax)
    b412:	90                   	nop
    b413:	c9                   	leave
    b414:	c3                   	ret
    b415:	90                   	nop

000000000000b416 <_ZNSt12_Vector_baseI7board_tSaIS0_EE13_M_deallocateEPS0_m>:
    b416:	55                   	push   %rbp
    b417:	48 89 e5             	mov    %rsp,%rbp
    b41a:	48 83 ec 40          	sub    $0x40,%rsp
    b41e:	48 89 7d d8          	mov    %rdi,-0x28(%rbp)
    b422:	48 89 75 d0          	mov    %rsi,-0x30(%rbp)
    b426:	48 89 55 c8          	mov    %rdx,-0x38(%rbp)
    b42a:	48 83 7d d0 00       	cmpq   $0x0,-0x30(%rbp)
    b42f:	74 30                	je     b461 <_ZNSt12_Vector_baseI7board_tSaIS0_EE13_M_deallocateEPS0_m+0x4b>
    b431:	48 8b 45 d8          	mov    -0x28(%rbp),%rax
    b435:	48 89 45 e8          	mov    %rax,-0x18(%rbp)
    b439:	48 8b 45 d0          	mov    -0x30(%rbp),%rax
    b43d:	48 89 45 f0          	mov    %rax,-0x10(%rbp)
    b441:	48 8b 45 c8          	mov    -0x38(%rbp),%rax
    b445:	48 89 45 f8          	mov    %rax,-0x8(%rbp)
    b449:	48 8b 55 f8          	mov    -0x8(%rbp),%rdx
    b44d:	48 8b 4d f0          	mov    -0x10(%rbp),%rcx
    b451:	48 8b 45 e8          	mov    -0x18(%rbp),%rax
    b455:	48 89 ce             	mov    %rcx,%rsi
    b458:	48 89 c7             	mov    %rax,%rdi
    b45b:	e8 c2 08 00 00       	call   bd22 <_ZNSt15__new_allocatorI7board_tE10deallocateEPS0_m>
    b460:	90                   	nop
    b461:	90                   	nop
    b462:	c9                   	leave
    b463:	c3                   	ret

000000000000b464 <_ZNSt12_Vector_baseI7board_tSaIS0_EE19_M_get_Tp_allocatorEv>:
    b464:	55                   	push   %rbp
    b465:	48 89 e5             	mov    %rsp,%rbp
    b468:	48 89 7d f8          	mov    %rdi,-0x8(%rbp)
    b46c:	48 8b 45 f8          	mov    -0x8(%rbp),%rax
    b470:	5d                   	pop    %rbp
    b471:	c3                   	ret

000000000000b472 <_ZSt27__uninitialized_default_n_aIP7board_tmS0_ET_S2_T0_RSaIT1_E>:
    b472:	55                   	push   %rbp
    b473:	48 89 e5             	mov    %rsp,%rbp
    b476:	48 83 ec 20          	sub    $0x20,%rsp
    b47a:	48 89 7d f8          	mov    %rdi,-0x8(%rbp)
    b47e:	48 89 75 f0          	mov    %rsi,-0x10(%rbp)
    b482:	48 89 55 e8          	mov    %rdx,-0x18(%rbp)
    b486:	48 8b 55 f0          	mov    -0x10(%rbp),%rdx
    b48a:	48 8b 45 f8          	mov    -0x8(%rbp),%rax
    b48e:	48 89 d6             	mov    %rdx,%rsi
    b491:	48 89 c7             	mov    %rax,%rdi
    b494:	e8 ab 03 00 00       	call   b844 <_ZSt25__uninitialized_default_nIP7board_tmET_S2_T0_>
    b499:	c9                   	leave
    b49a:	c3                   	ret
    b49b:	90                   	nop

000000000000b49c <_ZNKSt10_HashtableIcSt4pairIKciESaIS2_ENSt8__detail10_Select1stESt8equal_toIcESt4hashIcENS4_18_Mod_range_hashingENS4_20_Default_ranged_hashENS4_20_Prime_rehash_policyENS4_17_Hashtable_traitsILb0ELb0ELb1EEEE12_M_find_nodeEmRS1_m>:
    b49c:	55                   	push   %rbp
    b49d:	48 89 e5             	mov    %rsp,%rbp
    b4a0:	48 83 ec 30          	sub    $0x30,%rsp
    b4a4:	48 89 7d e8          	mov    %rdi,-0x18(%rbp)
    b4a8:	48 89 75 e0          	mov    %rsi,-0x20(%rbp)
    b4ac:	48 89 55 d8          	mov    %rdx,-0x28(%rbp)
    b4b0:	48 89 4d d0          	mov    %rcx,-0x30(%rbp)
    b4b4:	48 8b 4d d0          	mov    -0x30(%rbp),%rcx
    b4b8:	48 8b 55 d8          	mov    -0x28(%rbp),%rdx
    b4bc:	48 8b 75 e0          	mov    -0x20(%rbp),%rsi
    b4c0:	48 8b 45 e8          	mov    -0x18(%rbp),%rax
    b4c4:	48 89 c7             	mov    %rax,%rdi
    b4c7:	e8 a2 03 00 00       	call   b86e <_ZNKSt10_HashtableIcSt4pairIKciESaIS2_ENSt8__detail10_Select1stESt8equal_toIcESt4hashIcENS4_18_Mod_range_hashingENS4_20_Default_ranged_hashENS4_20_Prime_rehash_policyENS4_17_Hashtable_traitsILb0ELb0ELb1EEEE19_M_find_before_nodeEmRS1_m>
    b4cc:	48 89 45 f8          	mov    %rax,-0x8(%rbp)
    b4d0:	48 83 7d f8 00       	cmpq   $0x0,-0x8(%rbp)
    b4d5:	74 09                	je     b4e0 <_ZNKSt10_HashtableIcSt4pairIKciESaIS2_ENSt8__detail10_Select1stESt8equal_toIcESt4hashIcENS4_18_Mod_range_hashingENS4_20_Default_ranged_hashENS4_20_Prime_rehash_policyENS4_17_Hashtable_traitsILb0ELb0ELb1EEEE12_M_find_nodeEmRS1_m+0x44>
    b4d7:	48 8b 45 f8          	mov    -0x8(%rbp),%rax
    b4db:	48 8b 00             	mov    (%rax),%rax
    b4de:	eb 05                	jmp    b4e5 <_ZNKSt10_HashtableIcSt4pairIKciESaIS2_ENSt8__detail10_Select1stESt8equal_toIcESt4hashIcENS4_18_Mod_range_hashingENS4_20_Default_ranged_hashENS4_20_Prime_rehash_policyENS4_17_Hashtable_traitsILb0ELb0ELb1EEEE12_M_find_nodeEmRS1_m+0x49>
    b4e0:	b8 00 00 00 00       	mov    $0x0,%eax
    b4e5:	c9                   	leave
    b4e6:	c3                   	ret
    b4e7:	90                   	nop

000000000000b4e8 <_ZNSt8__detail21_Hash_node_value_baseISt4pairIKciEE4_M_vEv>:
    b4e8:	55                   	push   %rbp
    b4e9:	48 89 e5             	mov    %rsp,%rbp
    b4ec:	48 83 ec 10          	sub    $0x10,%rsp
    b4f0:	48 89 7d f8          	mov    %rdi,-0x8(%rbp)
    b4f4:	48 8b 45 f8          	mov    -0x8(%rbp),%rax
    b4f8:	48 89 c7             	mov    %rax,%rdi
    b4fb:	e8 74 97 ff ff       	call   4c74 <_ZNSt8__detail21_Hash_node_value_baseISt4pairIKciEE9_M_valptrEv>
    b500:	c9                   	leave
    b501:	c3                   	ret

000000000000b502 <_ZNSt5tupleIJRKcEEC1ILb1ELb1EEES1_>:
    b502:	55                   	push   %rbp
    b503:	48 89 e5             	mov    %rsp,%rbp
    b506:	48 83 ec 10          	sub    $0x10,%rsp
    b50a:	48 89 7d f8          	mov    %rdi,-0x8(%rbp)
    b50e:	48 89 75 f0          	mov    %rsi,-0x10(%rbp)
    b512:	48 8b 45 f8          	mov    -0x8(%rbp),%rax
    b516:	48 8b 55 f0          	mov    -0x10(%rbp),%rdx
    b51a:	48 89 d6             	mov    %rdx,%rsi
    b51d:	48 89 c7             	mov    %rax,%rdi
    b520:	e8 23 04 00 00       	call   b948 <_ZNSt11_Tuple_implILm0EJRKcEEC1ES1_>
    b525:	90                   	nop
    b526:	c9                   	leave
    b527:	c3                   	ret

000000000000b528 <_ZNSt10_HashtableIcSt4pairIKciESaIS2_ENSt8__detail10_Select1stESt8equal_toIcESt4hashIcENS4_18_Mod_range_hashingENS4_20_Default_ranged_hashENS4_20_Prime_rehash_policyENS4_17_Hashtable_traitsILb0ELb0ELb1EEEE12_Scoped_nodeC1IJRKSt21piecewise_construct_tSt5tupleIJRS1_EESL_IJEEEEEPNS4_16_Hashtable_allocISaINS4_10_Hash_nodeIS2_Lb0EEEEEEDpOT_>:
    b528:	55                   	push   %rbp
    b529:	48 89 e5             	mov    %rsp,%rbp
    b52c:	41 55                	push   %r13
    b52e:	41 54                	push   %r12
    b530:	53                   	push   %rbx
    b531:	48 83 ec 38          	sub    $0x38,%rsp
    b535:	48 89 7d d8          	mov    %rdi,-0x28(%rbp)
    b539:	48 89 75 d0          	mov    %rsi,-0x30(%rbp)
    b53d:	48 89 55 c8          	mov    %rdx,-0x38(%rbp)
    b541:	48 89 4d c0          	mov    %rcx,-0x40(%rbp)
    b545:	4c 89 45 b8          	mov    %r8,-0x48(%rbp)
    b549:	48 8b 45 d8          	mov    -0x28(%rbp),%rax
    b54d:	48 8b 55 d0          	mov    -0x30(%rbp),%rdx
    b551:	48 89 10             	mov    %rdx,(%rax)
    b554:	48 8b 5d d0          	mov    -0x30(%rbp),%rbx
    b558:	48 8b 45 b8          	mov    -0x48(%rbp),%rax
    b55c:	48 89 c7             	mov    %rax,%rdi
    b55f:	e8 26 04 00 00       	call   b98a <_ZSt7forwardISt5tupleIJEEEOT_RNSt16remove_referenceIS2_E4typeE>
    b564:	49 89 c5             	mov    %rax,%r13
    b567:	48 8b 45 c0          	mov    -0x40(%rbp),%rax
    b56b:	48 89 c7             	mov    %rax,%rdi
    b56e:	e8 09 04 00 00       	call   b97c <_ZSt7forwardISt5tupleIJRKcEEEOT_RNSt16remove_referenceIS4_E4typeE>
    b573:	49 89 c4             	mov    %rax,%r12
    b576:	48 8b 45 c8          	mov    -0x38(%rbp),%rax
    b57a:	48 89 c7             	mov    %rax,%rdi
    b57d:	e8 ec 03 00 00       	call   b96e <_ZSt7forwardIRKSt21piecewise_construct_tEOT_RNSt16remove_referenceIS3_E4typeE>
    b582:	4c 89 e9             	mov    %r13,%rcx
    b585:	4c 89 e2             	mov    %r12,%rdx
    b588:	48 89 c6             	mov    %rax,%rsi
    b58b:	48 89 df             	mov    %rbx,%rdi
    b58e:	e8 05 04 00 00       	call   b998 <_ZNSt8__detail16_Hashtable_allocISaINS_10_Hash_nodeISt4pairIKciELb0EEEEE16_M_allocate_nodeIJRKSt21piecewise_construct_tSt5tupleIJRS3_EESC_IJEEEEEPS5_DpOT_>
    b593:	48 8b 55 d8          	mov    -0x28(%rbp),%rdx
    b597:	48 89 42 08          	mov    %rax,0x8(%rdx)
    b59b:	90                   	nop
    b59c:	48 83 c4 38          	add    $0x38,%rsp
    b5a0:	5b                   	pop    %rbx
    b5a1:	41 5c                	pop    %r12
    b5a3:	41 5d                	pop    %r13
    b5a5:	5d                   	pop    %rbp
    b5a6:	c3                   	ret
    b5a7:	90                   	nop

000000000000b5a8 <_ZNKSt8__detail14_Node_iteratorISt4pairIKciELb0ELb0EEptEv>:
    b5a8:	55                   	push   %rbp
    b5a9:	48 89 e5             	mov    %rsp,%rbp
    b5ac:	48 83 ec 10          	sub    $0x10,%rsp
    b5b0:	48 89 7d f8          	mov    %rdi,-0x8(%rbp)
    b5b4:	48 8b 45 f8          	mov    -0x8(%rbp),%rax
    b5b8:	48 8b 00             	mov    (%rax),%rax
    b5bb:	48 83 c0 08          	add    $0x8,%rax
    b5bf:	48 89 c7             	mov    %rax,%rdi
    b5c2:	e8 ad 96 ff ff       	call   4c74 <_ZNSt8__detail21_Hash_node_value_baseISt4pairIKciEE9_M_valptrEv>
    b5c7:	c9                   	leave
    b5c8:	c3                   	ret

000000000000b5c9 <_ZSt7forwardIRK7board_tEOT_RNSt16remove_referenceIS3_E4typeE>:
    b5c9:	55                   	push   %rbp
    b5ca:	48 89 e5             	mov    %rsp,%rbp
    b5cd:	48 89 7d f8          	mov    %rdi,-0x8(%rbp)
    b5d1:	48 8b 45 f8          	mov    -0x8(%rbp),%rax
    b5d5:	5d                   	pop    %rbp
    b5d6:	c3                   	ret
    b5d7:	90                   	nop

000000000000b5d8 <_ZN9__gnu_cxx17__normal_iteratorIP7board_tSt6vectorIS1_SaIS1_EEEC1ERKS2_>:
    b5d8:	55                   	push   %rbp
    b5d9:	48 89 e5             	mov    %rsp,%rbp
    b5dc:	48 89 7d f8          	mov    %rdi,-0x8(%rbp)
    b5e0:	48 89 75 f0          	mov    %rsi,-0x10(%rbp)
    b5e4:	48 8b 45 f0          	mov    -0x10(%rbp),%rax
    b5e8:	48 8b 10             	mov    (%rax),%rdx
    b5eb:	48 8b 45 f8          	mov    -0x8(%rbp),%rax
    b5ef:	48 89 10             	mov    %rdx,(%rax)
    b5f2:	90                   	nop
    b5f3:	5d                   	pop    %rbp
    b5f4:	c3                   	ret
    b5f5:	90                   	nop

000000000000b5f6 <_ZNKSt6vectorI7board_tSaIS0_EE12_M_check_lenEmPKc>:
    b5f6:	55                   	push   %rbp
    b5f7:	48 89 e5             	mov    %rsp,%rbp
    b5fa:	53                   	push   %rbx
    b5fb:	48 83 ec 48          	sub    $0x48,%rsp
    b5ff:	48 89 7d c8          	mov    %rdi,-0x38(%rbp)
    b603:	48 89 75 c0          	mov    %rsi,-0x40(%rbp)
    b607:	48 89 55 b8          	mov    %rdx,-0x48(%rbp)
    b60b:	64 48 8b 04 25 28 00 	mov    %fs:0x28,%rax
    b612:	00 00 
    b614:	48 89 45 e8          	mov    %rax,-0x18(%rbp)
    b618:	31 c0                	xor    %eax,%eax
    b61a:	48 8b 45 c8          	mov    -0x38(%rbp),%rax
    b61e:	48 89 c7             	mov    %rax,%rdi
    b621:	e8 22 06 00 00       	call   bc48 <_ZNKSt6vectorI7board_tSaIS0_EE8max_sizeEv>
    b626:	48 89 c3             	mov    %rax,%rbx
    b629:	48 8b 45 c8          	mov    -0x38(%rbp),%rax
    b62d:	48 89 c7             	mov    %rax,%rdi
    b630:	e8 35 06 00 00       	call   bc6a <_ZNKSt6vectorI7board_tSaIS0_EE4sizeEv>
    b635:	48 29 c3             	sub    %rax,%rbx
    b638:	48 89 da             	mov    %rbx,%rdx
    b63b:	48 8b 45 c0          	mov    -0x40(%rbp),%rax
    b63f:	48 39 c2             	cmp    %rax,%rdx
    b642:	0f 92 c0             	setb   %al
    b645:	84 c0                	test   %al,%al
    b647:	74 20                	je     b669 <_ZNKSt6vectorI7board_tSaIS0_EE12_M_check_lenEmPKc+0x73>
    b649:	48 8b 45 e8          	mov    -0x18(%rbp),%rax
    b64d:	64 48 2b 04 25 28 00 	sub    %fs:0x28,%rax
    b654:	00 00 
    b656:	74 05                	je     b65d <_ZNKSt6vectorI7board_tSaIS0_EE12_M_check_lenEmPKc+0x67>
    b658:	e8 43 7c ff ff       	call   32a0 <__stack_chk_fail@plt>
    b65d:	48 8b 45 b8          	mov    -0x48(%rbp),%rax
    b661:	48 89 c7             	mov    %rax,%rdi
    b664:	e8 97 7a ff ff       	call   3100 <_ZSt20__throw_length_errorPKc@plt>
    b669:	48 8b 45 c8          	mov    -0x38(%rbp),%rax
    b66d:	48 89 c7             	mov    %rax,%rdi
    b670:	e8 f5 05 00 00       	call   bc6a <_ZNKSt6vectorI7board_tSaIS0_EE4sizeEv>
    b675:	48 89 c3             	mov    %rax,%rbx
    b678:	48 8b 45 c8          	mov    -0x38(%rbp),%rax
    b67c:	48 89 c7             	mov    %rax,%rdi
    b67f:	e8 e6 05 00 00       	call   bc6a <_ZNKSt6vectorI7board_tSaIS0_EE4sizeEv>
    b684:	48 89 45 d8          	mov    %rax,-0x28(%rbp)
    b688:	48 8d 55 c0          	lea    -0x40(%rbp),%rdx
    b68c:	48 8d 45 d8          	lea    -0x28(%rbp),%rax
    b690:	48 89 d6             	mov    %rdx,%rsi
    b693:	48 89 c7             	mov    %rax,%rdi
    b696:	e8 fd f0 ff ff       	call   a798 <_ZSt3maxImERKT_S2_S2_>
    b69b:	48 8b 00             	mov    (%rax),%rax
    b69e:	48 01 d8             	add    %rbx,%rax
    b6a1:	48 89 45 e0          	mov    %rax,-0x20(%rbp)
    b6a5:	48 8b 45 c8          	mov    -0x38(%rbp),%rax
    b6a9:	48 89 c7             	mov    %rax,%rdi
    b6ac:	e8 b9 05 00 00       	call   bc6a <_ZNKSt6vectorI7board_tSaIS0_EE4sizeEv>
    b6b1:	48 39 45 e0          	cmp    %rax,-0x20(%rbp)
    b6b5:	72 12                	jb     b6c9 <_ZNKSt6vectorI7board_tSaIS0_EE12_M_check_lenEmPKc+0xd3>
    b6b7:	48 8b 45 c8          	mov    -0x38(%rbp),%rax
    b6bb:	48 89 c7             	mov    %rax,%rdi
    b6be:	e8 85 05 00 00       	call   bc48 <_ZNKSt6vectorI7board_tSaIS0_EE8max_sizeEv>
    b6c3:	48 3b 45 e0          	cmp    -0x20(%rbp),%rax
    b6c7:	73 0e                	jae    b6d7 <_ZNKSt6vectorI7board_tSaIS0_EE12_M_check_lenEmPKc+0xe1>
    b6c9:	48 8b 45 c8          	mov    -0x38(%rbp),%rax
    b6cd:	48 89 c7             	mov    %rax,%rdi
    b6d0:	e8 73 05 00 00       	call   bc48 <_ZNKSt6vectorI7board_tSaIS0_EE8max_sizeEv>
    b6d5:	eb 04                	jmp    b6db <_ZNKSt6vectorI7board_tSaIS0_EE12_M_check_lenEmPKc+0xe5>
    b6d7:	48 8b 45 e0          	mov    -0x20(%rbp),%rax
    b6db:	48 8b 55 e8          	mov    -0x18(%rbp),%rdx
    b6df:	64 48 2b 14 25 28 00 	sub    %fs:0x28,%rdx
    b6e6:	00 00 
    b6e8:	74 05                	je     b6ef <_ZNKSt6vectorI7board_tSaIS0_EE12_M_check_lenEmPKc+0xf9>
    b6ea:	e8 b1 7b ff ff       	call   32a0 <__stack_chk_fail@plt>
    b6ef:	48 8b 5d f8          	mov    -0x8(%rbp),%rbx
    b6f3:	c9                   	leave
    b6f4:	c3                   	ret
    b6f5:	90                   	nop

000000000000b6f6 <_ZNSt6vectorI7board_tSaIS0_EE5beginEv>:
    b6f6:	55                   	push   %rbp
    b6f7:	48 89 e5             	mov    %rsp,%rbp
    b6fa:	48 83 ec 20          	sub    $0x20,%rsp
    b6fe:	48 89 7d e8          	mov    %rdi,-0x18(%rbp)
    b702:	64 48 8b 04 25 28 00 	mov    %fs:0x28,%rax
    b709:	00 00 
    b70b:	48 89 45 f8          	mov    %rax,-0x8(%rbp)
    b70f:	31 c0                	xor    %eax,%eax
    b711:	48 8b 55 e8          	mov    -0x18(%rbp),%rdx
    b715:	48 8d 45 f0          	lea    -0x10(%rbp),%rax
    b719:	48 89 d6             	mov    %rdx,%rsi
    b71c:	48 89 c7             	mov    %rax,%rdi
    b71f:	e8 b4 fe ff ff       	call   b5d8 <_ZN9__gnu_cxx17__normal_iteratorIP7board_tSt6vectorIS1_SaIS1_EEEC1ERKS2_>
    b724:	48 8b 45 f0          	mov    -0x10(%rbp),%rax
    b728:	48 8b 55 f8          	mov    -0x8(%rbp),%rdx
    b72c:	64 48 2b 14 25 28 00 	sub    %fs:0x28,%rdx
    b733:	00 00 
    b735:	74 05                	je     b73c <_ZNSt6vectorI7board_tSaIS0_EE5beginEv+0x46>
    b737:	e8 64 7b ff ff       	call   32a0 <__stack_chk_fail@plt>
    b73c:	c9                   	leave
    b73d:	c3                   	ret

000000000000b73e <_ZN9__gnu_cxxmiIP7board_tSt6vectorIS1_SaIS1_EEEENS_17__normal_iteratorIT_T0_E15difference_typeERKS9_SC_>:
    b73e:	55                   	push   %rbp
    b73f:	48 89 e5             	mov    %rsp,%rbp
    b742:	53                   	push   %rbx
    b743:	48 83 ec 18          	sub    $0x18,%rsp
    b747:	48 89 7d e8          	mov    %rdi,-0x18(%rbp)
    b74b:	48 89 75 e0          	mov    %rsi,-0x20(%rbp)
    b74f:	48 8b 45 e8          	mov    -0x18(%rbp),%rax
    b753:	48 89 c7             	mov    %rax,%rdi
    b756:	e8 ad 00 00 00       	call   b808 <_ZNK9__gnu_cxx17__normal_iteratorIP7board_tSt6vectorIS1_SaIS1_EEE4baseEv>
    b75b:	48 8b 18             	mov    (%rax),%rbx
    b75e:	48 8b 45 e0          	mov    -0x20(%rbp),%rax
    b762:	48 89 c7             	mov    %rax,%rdi
    b765:	e8 9e 00 00 00       	call   b808 <_ZNK9__gnu_cxx17__normal_iteratorIP7board_tSt6vectorIS1_SaIS1_EEE4baseEv>
    b76a:	48 8b 00             	mov    (%rax),%rax
    b76d:	48 29 c3             	sub    %rax,%rbx
    b770:	48 89 da             	mov    %rbx,%rdx
    b773:	48 c1 fa 04          	sar    $0x4,%rdx
    b777:	48 b8 13 4a 75 cd 69 	movabs $0x4af18869cd754a13,%rax
    b77e:	88 f1 4a 
    b781:	48 0f af c2          	imul   %rdx,%rax
    b785:	48 8b 5d f8          	mov    -0x8(%rbp),%rbx
    b789:	c9                   	leave
    b78a:	c3                   	ret
    b78b:	90                   	nop

000000000000b78c <_ZNSt12_Vector_baseI7board_tSaIS0_EE11_M_allocateEm>:
    b78c:	55                   	push   %rbp
    b78d:	48 89 e5             	mov    %rsp,%rbp
    b790:	48 83 ec 20          	sub    $0x20,%rsp
    b794:	48 89 7d e8          	mov    %rdi,-0x18(%rbp)
    b798:	48 89 75 e0          	mov    %rsi,-0x20(%rbp)
    b79c:	48 83 7d e0 00       	cmpq   $0x0,-0x20(%rbp)
    b7a1:	74 2b                	je     b7ce <_ZNSt12_Vector_baseI7board_tSaIS0_EE11_M_allocateEm+0x42>
    b7a3:	48 8b 45 e8          	mov    -0x18(%rbp),%rax
    b7a7:	48 89 45 f0          	mov    %rax,-0x10(%rbp)
    b7ab:	48 8b 45 e0          	mov    -0x20(%rbp),%rax
    b7af:	48 89 45 f8          	mov    %rax,-0x8(%rbp)
    b7b3:	48 8b 4d f8          	mov    -0x8(%rbp),%rcx
    b7b7:	48 8b 45 f0          	mov    -0x10(%rbp),%rax
    b7bb:	ba 00 00 00 00       	mov    $0x0,%edx
    b7c0:	48 89 ce             	mov    %rcx,%rsi
    b7c3:	48 89 c7             	mov    %rax,%rdi
    b7c6:	e8 4f 06 00 00       	call   be1a <_ZNSt15__new_allocatorI7board_tE8allocateEmPKv>
    b7cb:	90                   	nop
    b7cc:	eb 05                	jmp    b7d3 <_ZNSt12_Vector_baseI7board_tSaIS0_EE11_M_allocateEm+0x47>
    b7ce:	b8 00 00 00 00       	mov    $0x0,%eax
    b7d3:	c9                   	leave
    b7d4:	c3                   	ret

000000000000b7d5 <_ZNSt6vectorI7board_tSaIS0_EE11_S_relocateEPS0_S3_S3_RS1_>:
    b7d5:	55                   	push   %rbp
    b7d6:	48 89 e5             	mov    %rsp,%rbp
    b7d9:	48 83 ec 20          	sub    $0x20,%rsp
    b7dd:	48 89 7d f8          	mov    %rdi,-0x8(%rbp)
    b7e1:	48 89 75 f0          	mov    %rsi,-0x10(%rbp)
    b7e5:	48 89 55 e8          	mov    %rdx,-0x18(%rbp)
    b7e9:	48 89 4d e0          	mov    %rcx,-0x20(%rbp)
    b7ed:	48 8b 4d e0          	mov    -0x20(%rbp),%rcx
    b7f1:	48 8b 55 e8          	mov    -0x18(%rbp),%rdx
    b7f5:	48 8b 75 f0          	mov    -0x10(%rbp),%rsi
    b7f9:	48 8b 45 f8          	mov    -0x8(%rbp),%rax
    b7fd:	48 89 c7             	mov    %rax,%rdi
    b800:	e8 93 04 00 00       	call   bc98 <_ZSt12__relocate_aIP7board_tS1_SaIS0_EET0_T_S4_S3_RT1_>
    b805:	c9                   	leave
    b806:	c3                   	ret
    b807:	90                   	nop

000000000000b808 <_ZNK9__gnu_cxx17__normal_iteratorIP7board_tSt6vectorIS1_SaIS1_EEE4baseEv>:
    b808:	55                   	push   %rbp
    b809:	48 89 e5             	mov    %rsp,%rbp
    b80c:	48 89 7d f8          	mov    %rdi,-0x8(%rbp)
    b810:	48 8b 45 f8          	mov    -0x8(%rbp),%rax
    b814:	5d                   	pop    %rbp
    b815:	c3                   	ret

000000000000b816 <_ZNSt12_Vector_baseI7board_tSaIS0_EE17_Vector_impl_dataC1Ev>:
    b816:	55                   	push   %rbp
    b817:	48 89 e5             	mov    %rsp,%rbp
    b81a:	48 89 7d f8          	mov    %rdi,-0x8(%rbp)
    b81e:	48 8b 45 f8          	mov    -0x8(%rbp),%rax
    b822:	48 c7 00 00 00 00 00 	movq   $0x0,(%rax)
    b829:	48 8b 45 f8          	mov    -0x8(%rbp),%rax
    b82d:	48 c7 40 08 00 00 00 	movq   $0x0,0x8(%rax)
    b834:	00 
    b835:	48 8b 45 f8          	mov    -0x8(%rbp),%rax
    b839:	48 c7 40 10 00 00 00 	movq   $0x0,0x10(%rax)
    b840:	00 
    b841:	90                   	nop
    b842:	5d                   	pop    %rbp
    b843:	c3                   	ret

000000000000b844 <_ZSt25__uninitialized_default_nIP7board_tmET_S2_T0_>:
    b844:	55                   	push   %rbp
    b845:	48 89 e5             	mov    %rsp,%rbp
    b848:	48 83 ec 20          	sub    $0x20,%rsp
    b84c:	48 89 7d e8          	mov    %rdi,-0x18(%rbp)
    b850:	48 89 75 e0          	mov    %rsi,-0x20(%rbp)
    b854:	c6 45 ff 01          	movb   $0x1,-0x1(%rbp)
    b858:	48 8b 55 e0          	mov    -0x20(%rbp),%rdx
    b85c:	48 8b 45 e8          	mov    -0x18(%rbp),%rax
    b860:	48 89 d6             	mov    %rdx,%rsi
    b863:	48 89 c7             	mov    %rax,%rdi
    b866:	e8 e7 04 00 00       	call   bd52 <_ZNSt27__uninitialized_default_n_1ILb0EE18__uninit_default_nIP7board_tmEET_S4_T0_>
    b86b:	c9                   	leave
    b86c:	c3                   	ret
    b86d:	90                   	nop

000000000000b86e <_ZNKSt10_HashtableIcSt4pairIKciESaIS2_ENSt8__detail10_Select1stESt8equal_toIcESt4hashIcENS4_18_Mod_range_hashingENS4_20_Default_ranged_hashENS4_20_Prime_rehash_policyENS4_17_Hashtable_traitsILb0ELb0ELb1EEEE19_M_find_before_nodeEmRS1_m>:
    b86e:	55                   	push   %rbp
    b86f:	48 89 e5             	mov    %rsp,%rbp
    b872:	48 83 ec 30          	sub    $0x30,%rsp
    b876:	48 89 7d e8          	mov    %rdi,-0x18(%rbp)
    b87a:	48 89 75 e0          	mov    %rsi,-0x20(%rbp)
    b87e:	48 89 55 d8          	mov    %rdx,-0x28(%rbp)
    b882:	48 89 4d d0          	mov    %rcx,-0x30(%rbp)
    b886:	48 8b 45 e8          	mov    -0x18(%rbp),%rax
    b88a:	48 8b 10             	mov    (%rax),%rdx
    b88d:	48 8b 45 e0          	mov    -0x20(%rbp),%rax
    b891:	48 c1 e0 03          	shl    $0x3,%rax
    b895:	48 01 d0             	add    %rdx,%rax
    b898:	48 8b 00             	mov    (%rax),%rax
    b89b:	48 89 45 f0          	mov    %rax,-0x10(%rbp)
    b89f:	48 83 7d f0 00       	cmpq   $0x0,-0x10(%rbp)
    b8a4:	75 0a                	jne    b8b0 <_ZNKSt10_HashtableIcSt4pairIKciESaIS2_ENSt8__detail10_Select1stESt8equal_toIcESt4hashIcENS4_18_Mod_range_hashingENS4_20_Default_ranged_hashENS4_20_Prime_rehash_policyENS4_17_Hashtable_traitsILb0ELb0ELb1EEEE19_M_find_before_nodeEmRS1_m+0x42>
    b8a6:	b8 00 00 00 00       	mov    $0x0,%eax
    b8ab:	e9 95 00 00 00       	jmp    b945 <_ZNKSt10_HashtableIcSt4pairIKciESaIS2_ENSt8__detail10_Select1stESt8equal_toIcESt4hashIcENS4_18_Mod_range_hashingENS4_20_Default_ranged_hashENS4_20_Prime_rehash_policyENS4_17_Hashtable_traitsILb0ELb0ELb1EEEE19_M_find_before_nodeEmRS1_m+0xd7>
    b8b0:	48 8b 45 f0          	mov    -0x10(%rbp),%rax
    b8b4:	48 8b 00             	mov    (%rax),%rax
    b8b7:	48 89 45 f8          	mov    %rax,-0x8(%rbp)
    b8bb:	48 8b 45 f8          	mov    -0x8(%rbp),%rax
    b8bf:	48 8d 48 08          	lea    0x8(%rax),%rcx
    b8c3:	48 8b 55 d0          	mov    -0x30(%rbp),%rdx
    b8c7:	48 8b 75 d8          	mov    -0x28(%rbp),%rsi
    b8cb:	48 8b 45 e8          	mov    -0x18(%rbp),%rax
    b8cf:	48 89 c7             	mov    %rax,%rdi
    b8d2:	e8 c3 04 00 00       	call   bd9a <_ZNKSt8__detail15_Hashtable_baseIcSt4pairIKciENS_10_Select1stESt8equal_toIcESt4hashIcENS_18_Mod_range_hashingENS_20_Default_ranged_hashENS_17_Hashtable_traitsILb0ELb0ELb1EEEE9_M_equalsERS2_mRKNS_16_Hash_node_valueIS3_Lb0EEE>
    b8d7:	84 c0                	test   %al,%al
    b8d9:	74 06                	je     b8e1 <_ZNKSt10_HashtableIcSt4pairIKciESaIS2_ENSt8__detail10_Select1stESt8equal_toIcESt4hashIcENS4_18_Mod_range_hashingENS4_20_Default_ranged_hashENS4_20_Prime_rehash_policyENS4_17_Hashtable_traitsILb0ELb0ELb1EEEE19_M_find_before_nodeEmRS1_m+0x73>
    b8db:	48 8b 45 f0          	mov    -0x10(%rbp),%rax
    b8df:	eb 64                	jmp    b945 <_ZNKSt10_HashtableIcSt4pairIKciESaIS2_ENSt8__detail10_Select1stESt8equal_toIcESt4hashIcENS4_18_Mod_range_hashingENS4_20_Default_ranged_hashENS4_20_Prime_rehash_policyENS4_17_Hashtable_traitsILb0ELb0ELb1EEEE19_M_find_before_nodeEmRS1_m+0xd7>
    b8e1:	48 8b 45 f8          	mov    -0x8(%rbp),%rax
    b8e5:	48 8b 00             	mov    (%rax),%rax
    b8e8:	48 85 c0             	test   %rax,%rax
    b8eb:	74 25                	je     b912 <_ZNKSt10_HashtableIcSt4pairIKciESaIS2_ENSt8__detail10_Select1stESt8equal_toIcESt4hashIcENS4_18_Mod_range_hashingENS4_20_Default_ranged_hashENS4_20_Prime_rehash_policyENS4_17_Hashtable_traitsILb0ELb0ELb1EEEE19_M_find_before_nodeEmRS1_m+0xa4>
    b8ed:	48 8b 45 f8          	mov    -0x8(%rbp),%rax
    b8f1:	48 89 c7             	mov    %rax,%rdi
    b8f4:	e8 53 90 ff ff       	call   494c <_ZNKSt8__detail10_Hash_nodeISt4pairIKciELb0EE7_M_nextEv>
    b8f9:	48 8d 50 08          	lea    0x8(%rax),%rdx
    b8fd:	48 8b 45 e8          	mov    -0x18(%rbp),%rax
    b901:	48 89 d6             	mov    %rdx,%rsi
    b904:	48 89 c7             	mov    %rax,%rdi
    b907:	e8 e0 a2 ff ff       	call   5bec <_ZNKSt10_HashtableIcSt4pairIKciESaIS2_ENSt8__detail10_Select1stESt8equal_toIcESt4hashIcENS4_18_Mod_range_hashingENS4_20_Default_ranged_hashENS4_20_Prime_rehash_policyENS4_17_Hashtable_traitsILb0ELb0ELb1EEEE15_M_bucket_indexERKNS4_16_Hash_node_valueIS2_Lb0EEE>
    b90c:	48 39 45 e0          	cmp    %rax,-0x20(%rbp)
    b910:	74 07                	je     b919 <_ZNKSt10_HashtableIcSt4pairIKciESaIS2_ENSt8__detail10_Select1stESt8equal_toIcESt4hashIcENS4_18_Mod_range_hashingENS4_20_Default_ranged_hashENS4_20_Prime_rehash_policyENS4_17_Hashtable_traitsILb0ELb0ELb1EEEE19_M_find_before_nodeEmRS1_m+0xab>
    b912:	b8 01 00 00 00       	mov    $0x1,%eax
    b917:	eb 05                	jmp    b91e <_ZNKSt10_HashtableIcSt4pairIKciESaIS2_ENSt8__detail10_Select1stESt8equal_toIcESt4hashIcENS4_18_Mod_range_hashingENS4_20_Default_ranged_hashENS4_20_Prime_rehash_policyENS4_17_Hashtable_traitsILb0ELb0ELb1EEEE19_M_find_before_nodeEmRS1_m+0xb0>
    b919:	b8 00 00 00 00       	mov    $0x0,%eax
    b91e:	84 c0                	test   %al,%al
    b920:	75 1d                	jne    b93f <_ZNKSt10_HashtableIcSt4pairIKciESaIS2_ENSt8__detail10_Select1stESt8equal_toIcESt4hashIcENS4_18_Mod_range_hashingENS4_20_Default_ranged_hashENS4_20_Prime_rehash_policyENS4_17_Hashtable_traitsILb0ELb0ELb1EEEE19_M_find_before_nodeEmRS1_m+0xd1>
    b922:	48 8b 45 f8          	mov    -0x8(%rbp),%rax
    b926:	48 89 45 f0          	mov    %rax,-0x10(%rbp)
    b92a:	48 8b 45 f8          	mov    -0x8(%rbp),%rax
    b92e:	48 89 c7             	mov    %rax,%rdi
    b931:	e8 16 90 ff ff       	call   494c <_ZNKSt8__detail10_Hash_nodeISt4pairIKciELb0EE7_M_nextEv>
    b936:	48 89 45 f8          	mov    %rax,-0x8(%rbp)
    b93a:	e9 7c ff ff ff       	jmp    b8bb <_ZNKSt10_HashtableIcSt4pairIKciESaIS2_ENSt8__detail10_Select1stESt8equal_toIcESt4hashIcENS4_18_Mod_range_hashingENS4_20_Default_ranged_hashENS4_20_Prime_rehash_policyENS4_17_Hashtable_traitsILb0ELb0ELb1EEEE19_M_find_before_nodeEmRS1_m+0x4d>
    b93f:	90                   	nop
    b940:	b8 00 00 00 00       	mov    $0x0,%eax
    b945:	c9                   	leave
    b946:	c3                   	ret
    b947:	90                   	nop

000000000000b948 <_ZNSt11_Tuple_implILm0EJRKcEEC1ES1_>:
    b948:	55                   	push   %rbp
    b949:	48 89 e5             	mov    %rsp,%rbp
    b94c:	48 83 ec 10          	sub    $0x10,%rsp
    b950:	48 89 7d f8          	mov    %rdi,-0x8(%rbp)
    b954:	48 89 75 f0          	mov    %rsi,-0x10(%rbp)
    b958:	48 8b 45 f8          	mov    -0x8(%rbp),%rax
    b95c:	48 8b 55 f0          	mov    -0x10(%rbp),%rdx
    b960:	48 89 d6             	mov    %rdx,%rsi
    b963:	48 89 c7             	mov    %rax,%rdi
    b966:	e8 87 04 00 00       	call   bdf2 <_ZNSt10_Head_baseILm0ERKcLb0EEC1ES1_>
    b96b:	90                   	nop
    b96c:	c9                   	leave
    b96d:	c3                   	ret

000000000000b96e <_ZSt7forwardIRKSt21piecewise_construct_tEOT_RNSt16remove_referenceIS3_E4typeE>:
    b96e:	55                   	push   %rbp
    b96f:	48 89 e5             	mov    %rsp,%rbp
    b972:	48 89 7d f8          	mov    %rdi,-0x8(%rbp)
    b976:	48 8b 45 f8          	mov    -0x8(%rbp),%rax
    b97a:	5d                   	pop    %rbp
    b97b:	c3                   	ret

000000000000b97c <_ZSt7forwardISt5tupleIJRKcEEEOT_RNSt16remove_referenceIS4_E4typeE>:
    b97c:	55                   	push   %rbp
    b97d:	48 89 e5             	mov    %rsp,%rbp
    b980:	48 89 7d f8          	mov    %rdi,-0x8(%rbp)
    b984:	48 8b 45 f8          	mov    -0x8(%rbp),%rax
    b988:	5d                   	pop    %rbp
    b989:	c3                   	ret

000000000000b98a <_ZSt7forwardISt5tupleIJEEEOT_RNSt16remove_referenceIS2_E4typeE>:
    b98a:	55                   	push   %rbp
    b98b:	48 89 e5             	mov    %rsp,%rbp
    b98e:	48 89 7d f8          	mov    %rdi,-0x8(%rbp)
    b992:	48 8b 45 f8          	mov    -0x8(%rbp),%rax
    b996:	5d                   	pop    %rbp
    b997:	c3                   	ret

000000000000b998 <_ZNSt8__detail16_Hashtable_allocISaINS_10_Hash_nodeISt4pairIKciELb0EEEEE16_M_allocate_nodeIJRKSt21piecewise_construct_tSt5tupleIJRS3_EESC_IJEEEEEPS5_DpOT_>:
    b998:	55                   	push   %rbp
    b999:	48 89 e5             	mov    %rsp,%rbp
    b99c:	41 56                	push   %r14
    b99e:	41 55                	push   %r13
    b9a0:	41 54                	push   %r12
    b9a2:	53                   	push   %rbx
    b9a3:	48 81 ec c0 00 00 00 	sub    $0xc0,%rsp
    b9aa:	48 89 bd 38 ff ff ff 	mov    %rdi,-0xc8(%rbp)
    b9b1:	48 89 b5 30 ff ff ff 	mov    %rsi,-0xd0(%rbp)
    b9b8:	48 89 95 28 ff ff ff 	mov    %rdx,-0xd8(%rbp)
    b9bf:	48 89 8d 20 ff ff ff 	mov    %rcx,-0xe0(%rbp)
    b9c6:	64 48 8b 04 25 28 00 	mov    %fs:0x28,%rax
    b9cd:	00 00 
    b9cf:	48 89 45 d8          	mov    %rax,-0x28(%rbp)
    b9d3:	31 c0                	xor    %eax,%eax
    b9d5:	48 8b 85 38 ff ff ff 	mov    -0xc8(%rbp),%rax
    b9dc:	48 89 c7             	mov    %rax,%rdi
    b9df:	e8 76 92 ff ff       	call   4c5a <_ZNSt8__detail16_Hashtable_allocISaINS_10_Hash_nodeISt4pairIKciELb0EEEEE17_M_node_allocatorEv>
    b9e4:	48 89 85 60 ff ff ff 	mov    %rax,-0xa0(%rbp)
    b9eb:	48 c7 85 68 ff ff ff 	movq   $0x1,-0x98(%rbp)
    b9f2:	01 00 00 00 
    b9f6:	48 8b 8d 68 ff ff ff 	mov    -0x98(%rbp),%rcx
    b9fd:	48 8b 85 60 ff ff ff 	mov    -0xa0(%rbp),%rax
    ba04:	ba 00 00 00 00       	mov    $0x0,%edx
    ba09:	48 89 ce             	mov    %rcx,%rsi
    ba0c:	48 89 c7             	mov    %rax,%rdi
    ba0f:	e8 0a a6 ff ff       	call   601e <_ZNSt15__new_allocatorINSt8__detail10_Hash_nodeISt4pairIKciELb0EEEE8allocateEmPKv>
    ba14:	90                   	nop
    ba15:	48 89 85 50 ff ff ff 	mov    %rax,-0xb0(%rbp)
    ba1c:	48 8b 85 50 ff ff ff 	mov    -0xb0(%rbp),%rax
    ba23:	48 89 c7             	mov    %rax,%rdi
    ba26:	e8 a0 a5 ff ff       	call   5fcb <_ZSt12__to_addressINSt8__detail10_Hash_nodeISt4pairIKciELb0EEEEPT_S7_>
    ba2b:	48 89 85 58 ff ff ff 	mov    %rax,-0xa8(%rbp)
    ba32:	48 8b 85 58 ff ff ff 	mov    -0xa8(%rbp),%rax
    ba39:	48 89 c6             	mov    %rax,%rsi
    ba3c:	bf 10 00 00 00       	mov    $0x10,%edi
    ba41:	e8 d4 86 ff ff       	call   411a <_ZnwmPv>
    ba46:	48 89 c7             	mov    %rax,%rdi
    ba49:	e8 da a1 ff ff       	call   5c28 <_ZNSt8__detail10_Hash_nodeISt4pairIKciELb0EEC1Ev>
    ba4e:	48 8b 85 20 ff ff ff 	mov    -0xe0(%rbp),%rax
    ba55:	48 89 c7             	mov    %rax,%rdi
    ba58:	e8 2d ff ff ff       	call   b98a <_ZSt7forwardISt5tupleIJEEEOT_RNSt16remove_referenceIS2_E4typeE>
    ba5d:	48 89 c3             	mov    %rax,%rbx
    ba60:	48 8b 85 28 ff ff ff 	mov    -0xd8(%rbp),%rax
    ba67:	48 89 c7             	mov    %rax,%rdi
    ba6a:	e8 0d ff ff ff       	call   b97c <_ZSt7forwardISt5tupleIJRKcEEEOT_RNSt16remove_referenceIS4_E4typeE>
    ba6f:	49 89 c4             	mov    %rax,%r12
    ba72:	48 8b 85 30 ff ff ff 	mov    -0xd0(%rbp),%rax
    ba79:	48 89 c7             	mov    %rax,%rdi
    ba7c:	e8 ed fe ff ff       	call   b96e <_ZSt7forwardIRKSt21piecewise_construct_tEOT_RNSt16remove_referenceIS3_E4typeE>
    ba81:	49 89 c5             	mov    %rax,%r13
    ba84:	48 8b 85 58 ff ff ff 	mov    -0xa8(%rbp),%rax
    ba8b:	48 83 c0 08          	add    $0x8,%rax
    ba8f:	48 89 c7             	mov    %rax,%rdi
    ba92:	e8 dd 91 ff ff       	call   4c74 <_ZNSt8__detail21_Hash_node_value_baseISt4pairIKciEE9_M_valptrEv>
    ba97:	49 89 c6             	mov    %rax,%r14
    ba9a:	48 8b 85 38 ff ff ff 	mov    -0xc8(%rbp),%rax
    baa1:	48 89 c7             	mov    %rax,%rdi
    baa4:	e8 b1 91 ff ff       	call   4c5a <_ZNSt8__detail16_Hashtable_allocISaINS_10_Hash_nodeISt4pairIKciELb0EEEEE17_M_node_allocatorEv>
    baa9:	48 89 85 70 ff ff ff 	mov    %rax,-0x90(%rbp)
    bab0:	4c 89 b5 78 ff ff ff 	mov    %r14,-0x88(%rbp)
    bab7:	4c 89 6d 80          	mov    %r13,-0x80(%rbp)
    babb:	4c 89 65 88          	mov    %r12,-0x78(%rbp)
    babf:	48 89 5d 90          	mov    %rbx,-0x70(%rbp)
    bac3:	48 8b 45 90          	mov    -0x70(%rbp),%rax
    bac7:	48 89 c7             	mov    %rax,%rdi
    baca:	e8 bb fe ff ff       	call   b98a <_ZSt7forwardISt5tupleIJEEEOT_RNSt16remove_referenceIS2_E4typeE>
    bacf:	48 89 c3             	mov    %rax,%rbx
    bad2:	48 8b 45 88          	mov    -0x78(%rbp),%rax
    bad6:	48 89 c7             	mov    %rax,%rdi
    bad9:	e8 9e fe ff ff       	call   b97c <_ZSt7forwardISt5tupleIJRKcEEEOT_RNSt16remove_referenceIS4_E4typeE>
    bade:	49 89 c4             	mov    %rax,%r12
    bae1:	48 8b 45 80          	mov    -0x80(%rbp),%rax
    bae5:	48 89 c7             	mov    %rax,%rdi
    bae8:	e8 81 fe ff ff       	call   b96e <_ZSt7forwardIRKSt21piecewise_construct_tEOT_RNSt16remove_referenceIS3_E4typeE>
    baed:	48 8b 95 70 ff ff ff 	mov    -0x90(%rbp),%rdx
    baf4:	48 89 55 98          	mov    %rdx,-0x68(%rbp)
    baf8:	48 8b 95 78 ff ff ff 	mov    -0x88(%rbp),%rdx
    baff:	48 89 55 a0          	mov    %rdx,-0x60(%rbp)
    bb03:	48 89 45 a8          	mov    %rax,-0x58(%rbp)
    bb07:	4c 89 65 b0          	mov    %r12,-0x50(%rbp)
    bb0b:	48 89 5d b8          	mov    %rbx,-0x48(%rbp)
    bb0f:	48 8b 5d a0          	mov    -0x60(%rbp),%rbx
    bb13:	48 89 de             	mov    %rbx,%rsi
    bb16:	bf 08 00 00 00       	mov    $0x8,%edi
    bb1b:	e8 fa 85 ff ff       	call   411a <_ZnwmPv>
    bb20:	49 89 c4             	mov    %rax,%r12
    bb23:	41 be 01 00 00 00    	mov    $0x1,%r14d
    bb29:	48 8b 45 b8          	mov    -0x48(%rbp),%rax
    bb2d:	48 89 c7             	mov    %rax,%rdi
    bb30:	e8 55 fe ff ff       	call   b98a <_ZSt7forwardISt5tupleIJEEEOT_RNSt16remove_referenceIS2_E4typeE>
    bb35:	48 8b 45 b0          	mov    -0x50(%rbp),%rax
    bb39:	48 89 c7             	mov    %rax,%rdi
    bb3c:	e8 3b fe ff ff       	call   b97c <_ZSt7forwardISt5tupleIJRKcEEEOT_RNSt16remove_referenceIS4_E4typeE>
    bb41:	48 89 c2             	mov    %rax,%rdx
    bb44:	48 8d 85 48 ff ff ff 	lea    -0xb8(%rbp),%rax
    bb4b:	48 89 d6             	mov    %rdx,%rsi
    bb4e:	48 89 c7             	mov    %rax,%rdi
    bb51:	e8 80 05 00 00       	call   c0d6 <_ZNSt5tupleIJRKcEEC1EOS2_>
    bb56:	48 8b 45 a8          	mov    -0x58(%rbp),%rax
    bb5a:	48 89 c7             	mov    %rax,%rdi
    bb5d:	e8 0c fe ff ff       	call   b96e <_ZSt7forwardIRKSt21piecewise_construct_tEOT_RNSt16remove_referenceIS3_E4typeE>
    bb62:	48 8d 85 48 ff ff ff 	lea    -0xb8(%rbp),%rax
    bb69:	48 89 c6             	mov    %rax,%rsi
    bb6c:	4c 89 e7             	mov    %r12,%rdi
    bb6f:	e8 62 06 00 00       	call   c1d6 <_ZNSt4pairIKciEC1IJRS0_EJEEESt21piecewise_construct_tSt5tupleIJDpT_EES5_IJDpT0_EE>
    bb74:	90                   	nop
    bb75:	90                   	nop
    bb76:	48 8b 85 58 ff ff ff 	mov    -0xa8(%rbp),%rax
    bb7d:	48 8b 55 d8          	mov    -0x28(%rbp),%rdx
    bb81:	64 48 2b 14 25 28 00 	sub    %fs:0x28,%rdx
    bb88:	00 00 
    bb8a:	0f 84 a8 00 00 00    	je     bc38 <_ZNSt8__detail16_Hashtable_allocISaINS_10_Hash_nodeISt4pairIKciELb0EEEEE16_M_allocate_nodeIJRKSt21piecewise_construct_tSt5tupleIJRS3_EESC_IJEEEEEPS5_DpOT_+0x2a0>
    bb90:	e9 9e 00 00 00       	jmp    bc33 <_ZNSt8__detail16_Hashtable_allocISaINS_10_Hash_nodeISt4pairIKciELb0EEEEE16_M_allocate_nodeIJRKSt21piecewise_construct_tSt5tupleIJRS3_EESC_IJEEEEEPS5_DpOT_+0x29b>
    bb95:	49 89 c5             	mov    %rax,%r13
    bb98:	45 84 f6             	test   %r14b,%r14b
    bb9b:	74 0b                	je     bba8 <_ZNSt8__detail16_Hashtable_allocISaINS_10_Hash_nodeISt4pairIKciELb0EEEEE16_M_allocate_nodeIJRKSt21piecewise_construct_tSt5tupleIJRS3_EESC_IJEEEEEPS5_DpOT_+0x210>
    bb9d:	48 89 de             	mov    %rbx,%rsi
    bba0:	4c 89 e7             	mov    %r12,%rdi
    bba3:	e8 d5 e6 ff ff       	call   a27d <_ZdlPvS_>
    bba8:	4c 89 e8             	mov    %r13,%rax
    bbab:	eb 00                	jmp    bbad <_ZNSt8__detail16_Hashtable_allocISaINS_10_Hash_nodeISt4pairIKciELb0EEEEE16_M_allocate_nodeIJRKSt21piecewise_construct_tSt5tupleIJRS3_EESC_IJEEEEEPS5_DpOT_+0x215>
    bbad:	48 89 c7             	mov    %rax,%rdi
    bbb0:	e8 eb 74 ff ff       	call   30a0 <__cxa_begin_catch@plt>
    bbb5:	48 8b 85 38 ff ff ff 	mov    -0xc8(%rbp),%rax
    bbbc:	48 89 c7             	mov    %rax,%rdi
    bbbf:	e8 96 90 ff ff       	call   4c5a <_ZNSt8__detail16_Hashtable_allocISaINS_10_Hash_nodeISt4pairIKciELb0EEEEE17_M_node_allocatorEv>
    bbc4:	48 89 45 c0          	mov    %rax,-0x40(%rbp)
    bbc8:	48 8b 85 50 ff ff ff 	mov    -0xb0(%rbp),%rax
    bbcf:	48 89 45 c8          	mov    %rax,-0x38(%rbp)
    bbd3:	48 c7 45 d0 01 00 00 	movq   $0x1,-0x30(%rbp)
    bbda:	00 
    bbdb:	48 8b 55 d0          	mov    -0x30(%rbp),%rdx
    bbdf:	48 8b 4d c8          	mov    -0x38(%rbp),%rcx
    bbe3:	48 8b 45 c0          	mov    -0x40(%rbp),%rax
    bbe7:	48 89 ce             	mov    %rcx,%rsi
    bbea:	48 89 c7             	mov    %rax,%rdi
    bbed:	e8 a0 96 ff ff       	call   5292 <_ZNSt15__new_allocatorINSt8__detail10_Hash_nodeISt4pairIKciELb0EEEE10deallocateEPS5_m>
    bbf2:	90                   	nop
    bbf3:	48 8b 45 d8          	mov    -0x28(%rbp),%rax
    bbf7:	64 48 2b 04 25 28 00 	sub    %fs:0x28,%rax
    bbfe:	00 00 
    bc00:	74 05                	je     bc07 <_ZNSt8__detail16_Hashtable_allocISaINS_10_Hash_nodeISt4pairIKciELb0EEEEE16_M_allocate_nodeIJRKSt21piecewise_construct_tSt5tupleIJRS3_EESC_IJEEEEEPS5_DpOT_+0x26f>
    bc02:	e8 99 76 ff ff       	call   32a0 <__stack_chk_fail@plt>
    bc07:	e8 54 77 ff ff       	call   3360 <__cxa_rethrow@plt>
    bc0c:	48 89 c3             	mov    %rax,%rbx
    bc0f:	e8 6c 77 ff ff       	call   3380 <__cxa_end_catch@plt>
    bc14:	48 89 d8             	mov    %rbx,%rax
    bc17:	48 8b 55 d8          	mov    -0x28(%rbp),%rdx
    bc1b:	64 48 2b 14 25 28 00 	sub    %fs:0x28,%rdx
    bc22:	00 00 
    bc24:	74 05                	je     bc2b <_ZNSt8__detail16_Hashtable_allocISaINS_10_Hash_nodeISt4pairIKciELb0EEEEE16_M_allocate_nodeIJRKSt21piecewise_construct_tSt5tupleIJRS3_EESC_IJEEEEEPS5_DpOT_+0x293>
    bc26:	e8 75 76 ff ff       	call   32a0 <__stack_chk_fail@plt>
    bc2b:	48 89 c7             	mov    %rax,%rdi
    bc2e:	e8 9d 77 ff ff       	call   33d0 <_Unwind_Resume@plt>
    bc33:	e8 68 76 ff ff       	call   32a0 <__stack_chk_fail@plt>
    bc38:	48 81 c4 c0 00 00 00 	add    $0xc0,%rsp
    bc3f:	5b                   	pop    %rbx
    bc40:	41 5c                	pop    %r12
    bc42:	41 5d                	pop    %r13
    bc44:	41 5e                	pop    %r14
    bc46:	5d                   	pop    %rbp
    bc47:	c3                   	ret

000000000000bc48 <_ZNKSt6vectorI7board_tSaIS0_EE8max_sizeEv>:
    bc48:	55                   	push   %rbp
    bc49:	48 89 e5             	mov    %rsp,%rbp
    bc4c:	48 83 ec 10          	sub    $0x10,%rsp
    bc50:	48 89 7d f8          	mov    %rdi,-0x8(%rbp)
    bc54:	48 8b 45 f8          	mov    -0x8(%rbp),%rax
    bc58:	48 89 c7             	mov    %rax,%rdi
    bc5b:	e8 ac 01 00 00       	call   be0c <_ZNKSt12_Vector_baseI7board_tSaIS0_EE19_M_get_Tp_allocatorEv>
    bc60:	48 89 c7             	mov    %rax,%rdi
    bc63:	e8 95 f6 ff ff       	call   b2fd <_ZNSt6vectorI7board_tSaIS0_EE11_S_max_sizeERKS1_>
    bc68:	c9                   	leave
    bc69:	c3                   	ret

000000000000bc6a <_ZNKSt6vectorI7board_tSaIS0_EE4sizeEv>:
    bc6a:	55                   	push   %rbp
    bc6b:	48 89 e5             	mov    %rsp,%rbp
    bc6e:	48 89 7d f8          	mov    %rdi,-0x8(%rbp)
    bc72:	48 8b 45 f8          	mov    -0x8(%rbp),%rax
    bc76:	48 8b 50 08          	mov    0x8(%rax),%rdx
    bc7a:	48 8b 45 f8          	mov    -0x8(%rbp),%rax
    bc7e:	48 8b 00             	mov    (%rax),%rax
    bc81:	48 29 c2             	sub    %rax,%rdx
    bc84:	48 c1 fa 04          	sar    $0x4,%rdx
    bc88:	48 b8 13 4a 75 cd 69 	movabs $0x4af18869cd754a13,%rax
    bc8f:	88 f1 4a 
    bc92:	48 0f af c2          	imul   %rdx,%rax
    bc96:	5d                   	pop    %rbp
    bc97:	c3                   	ret

000000000000bc98 <_ZSt12__relocate_aIP7board_tS1_SaIS0_EET0_T_S4_S3_RT1_>:
    bc98:	55                   	push   %rbp
    bc99:	48 89 e5             	mov    %rsp,%rbp
    bc9c:	41 54                	push   %r12
    bc9e:	53                   	push   %rbx
    bc9f:	48 83 ec 20          	sub    $0x20,%rsp
    bca3:	48 89 7d e8          	mov    %rdi,-0x18(%rbp)
    bca7:	48 89 75 e0          	mov    %rsi,-0x20(%rbp)
    bcab:	48 89 55 d8          	mov    %rdx,-0x28(%rbp)
    bcaf:	48 89 4d d0          	mov    %rcx,-0x30(%rbp)
    bcb3:	48 8b 45 d8          	mov    -0x28(%rbp),%rax
    bcb7:	48 89 c7             	mov    %rax,%rdi
    bcba:	e8 c5 01 00 00       	call   be84 <_ZSt12__niter_baseIP7board_tET_S2_>
    bcbf:	49 89 c4             	mov    %rax,%r12
    bcc2:	48 8b 45 e0          	mov    -0x20(%rbp),%rax
    bcc6:	48 89 c7             	mov    %rax,%rdi
    bcc9:	e8 b6 01 00 00       	call   be84 <_ZSt12__niter_baseIP7board_tET_S2_>
    bcce:	48 89 c3             	mov    %rax,%rbx
    bcd1:	48 8b 45 e8          	mov    -0x18(%rbp),%rax
    bcd5:	48 89 c7             	mov    %rax,%rdi
    bcd8:	e8 a7 01 00 00       	call   be84 <_ZSt12__niter_baseIP7board_tET_S2_>
    bcdd:	48 89 c7             	mov    %rax,%rdi
    bce0:	48 8b 45 d0          	mov    -0x30(%rbp),%rax
    bce4:	48 89 c1             	mov    %rax,%rcx
    bce7:	4c 89 e2             	mov    %r12,%rdx
    bcea:	48 89 de             	mov    %rbx,%rsi
    bced:	e8 a0 01 00 00       	call   be92 <_ZSt14__relocate_a_1IP7board_tS1_SaIS0_EET0_T_S4_S3_RT1_>
    bcf2:	48 83 c4 20          	add    $0x20,%rsp
    bcf6:	5b                   	pop    %rbx
    bcf7:	41 5c                	pop    %r12
    bcf9:	5d                   	pop    %rbp
    bcfa:	c3                   	ret

000000000000bcfb <_ZSt8_DestroyIP7board_tEvT_S2_>:
    bcfb:	55                   	push   %rbp
    bcfc:	48 89 e5             	mov    %rsp,%rbp
    bcff:	48 83 ec 10          	sub    $0x10,%rsp
    bd03:	48 89 7d f8          	mov    %rdi,-0x8(%rbp)
    bd07:	48 89 75 f0          	mov    %rsi,-0x10(%rbp)
    bd0b:	48 8b 55 f0          	mov    -0x10(%rbp),%rdx
    bd0f:	48 8b 45 f8          	mov    -0x8(%rbp),%rax
    bd13:	48 89 d6             	mov    %rdx,%rsi
    bd16:	48 89 c7             	mov    %rax,%rdi
    bd19:	e8 eb 01 00 00       	call   bf09 <_ZNSt12_Destroy_auxILb1EE9__destroyIP7board_tEEvT_S4_>
    bd1e:	90                   	nop
    bd1f:	c9                   	leave
    bd20:	c3                   	ret
    bd21:	90                   	nop

000000000000bd22 <_ZNSt15__new_allocatorI7board_tE10deallocateEPS0_m>:
    bd22:	55                   	push   %rbp
    bd23:	48 89 e5             	mov    %rsp,%rbp
    bd26:	48 83 ec 20          	sub    $0x20,%rsp
    bd2a:	48 89 7d f8          	mov    %rdi,-0x8(%rbp)
    bd2e:	48 89 75 f0          	mov    %rsi,-0x10(%rbp)
    bd32:	48 89 55 e8          	mov    %rdx,-0x18(%rbp)
    bd36:	48 8b 45 e8          	mov    -0x18(%rbp),%rax
    bd3a:	48 69 c0 b0 01 01 00 	imul   $0x101b0,%rax,%rax
    bd41:	48 8b 55 f0          	mov    -0x10(%rbp),%rdx
    bd45:	48 89 c6             	mov    %rax,%rsi
    bd48:	48 89 d7             	mov    %rdx,%rdi
    bd4b:	e8 f0 74 ff ff       	call   3240 <_ZdlPvm@plt>
    bd50:	c9                   	leave
    bd51:	c3                   	ret

000000000000bd52 <_ZNSt27__uninitialized_default_n_1ILb0EE18__uninit_default_nIP7board_tmEET_S4_T0_>:
    bd52:	55                   	push   %rbp
    bd53:	48 89 e5             	mov    %rsp,%rbp
    bd56:	48 83 ec 20          	sub    $0x20,%rsp
    bd5a:	48 89 7d e8          	mov    %rdi,-0x18(%rbp)
    bd5e:	48 89 75 e0          	mov    %rsi,-0x20(%rbp)
    bd62:	48 8b 45 e8          	mov    -0x18(%rbp),%rax
    bd66:	48 89 45 f8          	mov    %rax,-0x8(%rbp)
    bd6a:	eb 20                	jmp    bd8c <_ZNSt27__uninitialized_default_n_1ILb0EE18__uninit_default_nIP7board_tmEET_S4_T0_+0x3a>
    bd6c:	48 8b 45 f8          	mov    -0x8(%rbp),%rax
    bd70:	48 89 c7             	mov    %rax,%rdi
    bd73:	e8 a0 01 00 00       	call   bf18 <_ZSt11__addressofI7board_tEPT_RS1_>
    bd78:	48 89 c7             	mov    %rax,%rdi
    bd7b:	e8 93 02 00 00       	call   c013 <_ZSt10_ConstructI7board_tJEEvPT_DpOT0_>
    bd80:	48 ff 4d e0          	decq   -0x20(%rbp)
    bd84:	48 81 45 f8 b0 01 01 	addq   $0x101b0,-0x8(%rbp)
    bd8b:	00 
    bd8c:	48 83 7d e0 00       	cmpq   $0x0,-0x20(%rbp)
    bd91:	75 d9                	jne    bd6c <_ZNSt27__uninitialized_default_n_1ILb0EE18__uninit_default_nIP7board_tmEET_S4_T0_+0x1a>
    bd93:	48 8b 45 f8          	mov    -0x8(%rbp),%rax
    bd97:	c9                   	leave
    bd98:	c3                   	ret
    bd99:	90                   	nop

000000000000bd9a <_ZNKSt8__detail15_Hashtable_baseIcSt4pairIKciENS_10_Select1stESt8equal_toIcESt4hashIcENS_18_Mod_range_hashingENS_20_Default_ranged_hashENS_17_Hashtable_traitsILb0ELb0ELb1EEEE9_M_equalsERS2_mRKNS_16_Hash_node_valueIS3_Lb0EEE>:
    bd9a:	55                   	push   %rbp
    bd9b:	48 89 e5             	mov    %rsp,%rbp
    bd9e:	48 83 ec 20          	sub    $0x20,%rsp
    bda2:	48 89 7d f8          	mov    %rdi,-0x8(%rbp)
    bda6:	48 89 75 f0          	mov    %rsi,-0x10(%rbp)
    bdaa:	48 89 55 e8          	mov    %rdx,-0x18(%rbp)
    bdae:	48 89 4d e0          	mov    %rcx,-0x20(%rbp)
    bdb2:	48 8b 55 e0          	mov    -0x20(%rbp),%rdx
    bdb6:	48 8b 45 e8          	mov    -0x18(%rbp),%rax
    bdba:	48 89 d6             	mov    %rdx,%rsi
    bdbd:	48 89 c7             	mov    %rax,%rdi
    bdc0:	e8 73 a1 ff ff       	call   5f38 <_ZNSt8__detail15_Hashtable_baseIcSt4pairIKciENS_10_Select1stESt8equal_toIcESt4hashIcENS_18_Mod_range_hashingENS_20_Default_ranged_hashENS_17_Hashtable_traitsILb0ELb0ELb1EEEE9_S_equalsEmRKNS_21_Hash_node_code_cacheILb0EEE>
    bdc5:	84 c0                	test   %al,%al
    bdc7:	74 22                	je     bdeb <_ZNKSt8__detail15_Hashtable_baseIcSt4pairIKciENS_10_Select1stESt8equal_toIcESt4hashIcENS_18_Mod_range_hashingENS_20_Default_ranged_hashENS_17_Hashtable_traitsILb0ELb0ELb1EEEE9_M_equalsERS2_mRKNS_16_Hash_node_valueIS3_Lb0EEE+0x51>
    bdc9:	48 8b 55 e0          	mov    -0x20(%rbp),%rdx
    bdcd:	48 8b 4d f0          	mov    -0x10(%rbp),%rcx
    bdd1:	48 8b 45 f8          	mov    -0x8(%rbp),%rax
    bdd5:	48 89 ce             	mov    %rcx,%rsi
    bdd8:	48 89 c7             	mov    %rax,%rdi
    bddb:	e8 78 02 00 00       	call   c058 <_ZNKSt8__detail15_Hashtable_baseIcSt4pairIKciENS_10_Select1stESt8equal_toIcESt4hashIcENS_18_Mod_range_hashingENS_20_Default_ranged_hashENS_17_Hashtable_traitsILb0ELb0ELb1EEEE13_M_key_equalsERS2_RKNS_16_Hash_node_valueIS3_Lb0EEE>
    bde0:	84 c0                	test   %al,%al
    bde2:	74 07                	je     bdeb <_ZNKSt8__detail15_Hashtable_baseIcSt4pairIKciENS_10_Select1stESt8equal_toIcESt4hashIcENS_18_Mod_range_hashingENS_20_Default_ranged_hashENS_17_Hashtable_traitsILb0ELb0ELb1EEEE9_M_equalsERS2_mRKNS_16_Hash_node_valueIS3_Lb0EEE+0x51>
    bde4:	b8 01 00 00 00       	mov    $0x1,%eax
    bde9:	eb 05                	jmp    bdf0 <_ZNKSt8__detail15_Hashtable_baseIcSt4pairIKciENS_10_Select1stESt8equal_toIcESt4hashIcENS_18_Mod_range_hashingENS_20_Default_ranged_hashENS_17_Hashtable_traitsILb0ELb0ELb1EEEE9_M_equalsERS2_mRKNS_16_Hash_node_valueIS3_Lb0EEE+0x56>
    bdeb:	b8 00 00 00 00       	mov    $0x0,%eax
    bdf0:	c9                   	leave
    bdf1:	c3                   	ret

000000000000bdf2 <_ZNSt10_Head_baseILm0ERKcLb0EEC1ES1_>:
    bdf2:	55                   	push   %rbp
    bdf3:	48 89 e5             	mov    %rsp,%rbp
    bdf6:	48 89 7d f8          	mov    %rdi,-0x8(%rbp)
    bdfa:	48 89 75 f0          	mov    %rsi,-0x10(%rbp)
    bdfe:	48 8b 45 f8          	mov    -0x8(%rbp),%rax
    be02:	48 8b 55 f0          	mov    -0x10(%rbp),%rdx
    be06:	48 89 10             	mov    %rdx,(%rax)
    be09:	90                   	nop
    be0a:	5d                   	pop    %rbp
    be0b:	c3                   	ret

000000000000be0c <_ZNKSt12_Vector_baseI7board_tSaIS0_EE19_M_get_Tp_allocatorEv>:
    be0c:	55                   	push   %rbp
    be0d:	48 89 e5             	mov    %rsp,%rbp
    be10:	48 89 7d f8          	mov    %rdi,-0x8(%rbp)
    be14:	48 8b 45 f8          	mov    -0x8(%rbp),%rax
    be18:	5d                   	pop    %rbp
    be19:	c3                   	ret

000000000000be1a <_ZNSt15__new_allocatorI7board_tE8allocateEmPKv>:
    be1a:	55                   	push   %rbp
    be1b:	48 89 e5             	mov    %rsp,%rbp
    be1e:	48 83 ec 30          	sub    $0x30,%rsp
    be22:	48 89 7d e8          	mov    %rdi,-0x18(%rbp)
    be26:	48 89 75 e0          	mov    %rsi,-0x20(%rbp)
    be2a:	48 89 55 d8          	mov    %rdx,-0x28(%rbp)
    be2e:	48 8b 45 e8          	mov    -0x18(%rbp),%rax
    be32:	48 89 45 f8          	mov    %rax,-0x8(%rbp)
    be36:	48 b8 2c ef 1c 6a 29 	movabs $0x7f296a1cef2c,%rax
    be3d:	7f 00 00 
    be40:	48 3b 45 e0          	cmp    -0x20(%rbp),%rax
    be44:	0f 92 c0             	setb   %al
    be47:	0f b6 c0             	movzbl %al,%eax
    be4a:	48 85 c0             	test   %rax,%rax
    be4d:	0f 95 c0             	setne  %al
    be50:	84 c0                	test   %al,%al
    be52:	74 1a                	je     be6e <_ZNSt15__new_allocatorI7board_tE8allocateEmPKv+0x54>
    be54:	48 b8 58 de 39 d4 52 	movabs $0xfe52d439de58,%rax
    be5b:	fe 00 00 
    be5e:	48 3b 45 e0          	cmp    -0x20(%rbp),%rax
    be62:	73 05                	jae    be69 <_ZNSt15__new_allocatorI7board_tE8allocateEmPKv+0x4f>
    be64:	e8 47 73 ff ff       	call   31b0 <_ZSt28__throw_bad_array_new_lengthv@plt>
    be69:	e8 22 72 ff ff       	call   3090 <_ZSt17__throw_bad_allocv@plt>
    be6e:	48 8b 45 e0          	mov    -0x20(%rbp),%rax
    be72:	48 69 c0 b0 01 01 00 	imul   $0x101b0,%rax,%rax
    be79:	48 89 c7             	mov    %rax,%rdi
    be7c:	e8 af 73 ff ff       	call   3230 <_Znwm@plt>
    be81:	90                   	nop
    be82:	c9                   	leave
    be83:	c3                   	ret

000000000000be84 <_ZSt12__niter_baseIP7board_tET_S2_>:
    be84:	55                   	push   %rbp
    be85:	48 89 e5             	mov    %rsp,%rbp
    be88:	48 89 7d f8          	mov    %rdi,-0x8(%rbp)
    be8c:	48 8b 45 f8          	mov    -0x8(%rbp),%rax
    be90:	5d                   	pop    %rbp
    be91:	c3                   	ret

000000000000be92 <_ZSt14__relocate_a_1IP7board_tS1_SaIS0_EET0_T_S4_S3_RT1_>:
    be92:	55                   	push   %rbp
    be93:	48 89 e5             	mov    %rsp,%rbp
    be96:	53                   	push   %rbx
    be97:	48 83 ec 38          	sub    $0x38,%rsp
    be9b:	48 89 7d d8          	mov    %rdi,-0x28(%rbp)
    be9f:	48 89 75 d0          	mov    %rsi,-0x30(%rbp)
    bea3:	48 89 55 c8          	mov    %rdx,-0x38(%rbp)
    bea7:	48 89 4d c0          	mov    %rcx,-0x40(%rbp)
    beab:	48 8b 45 c8          	mov    -0x38(%rbp),%rax
    beaf:	48 89 45 e8          	mov    %rax,-0x18(%rbp)
    beb3:	eb 40                	jmp    bef5 <_ZSt14__relocate_a_1IP7board_tS1_SaIS0_EET0_T_S4_S3_RT1_+0x63>
    beb5:	48 8b 45 d8          	mov    -0x28(%rbp),%rax
    beb9:	48 89 c7             	mov    %rax,%rdi
    bebc:	e8 57 00 00 00       	call   bf18 <_ZSt11__addressofI7board_tEPT_RS1_>
    bec1:	48 89 c3             	mov    %rax,%rbx
    bec4:	48 8b 45 e8          	mov    -0x18(%rbp),%rax
    bec8:	48 89 c7             	mov    %rax,%rdi
    becb:	e8 48 00 00 00       	call   bf18 <_ZSt11__addressofI7board_tEPT_RS1_>
    bed0:	48 89 c1             	mov    %rax,%rcx
    bed3:	48 8b 45 c0          	mov    -0x40(%rbp),%rax
    bed7:	48 89 c2             	mov    %rax,%rdx
    beda:	48 89 de             	mov    %rbx,%rsi
    bedd:	48 89 cf             	mov    %rcx,%rdi
    bee0:	e8 17 02 00 00       	call   c0fc <_ZSt19__relocate_object_aI7board_tS0_SaIS0_EEvPT_PT0_RT1_>
    bee5:	48 81 45 d8 b0 01 01 	addq   $0x101b0,-0x28(%rbp)
    beec:	00 
    beed:	48 81 45 e8 b0 01 01 	addq   $0x101b0,-0x18(%rbp)
    bef4:	00 
    bef5:	48 8b 45 d8          	mov    -0x28(%rbp),%rax
    bef9:	48 3b 45 d0          	cmp    -0x30(%rbp),%rax
    befd:	75 b6                	jne    beb5 <_ZSt14__relocate_a_1IP7board_tS1_SaIS0_EET0_T_S4_S3_RT1_+0x23>
    beff:	48 8b 45 e8          	mov    -0x18(%rbp),%rax
    bf03:	48 8b 5d f8          	mov    -0x8(%rbp),%rbx
    bf07:	c9                   	leave
    bf08:	c3                   	ret

000000000000bf09 <_ZNSt12_Destroy_auxILb1EE9__destroyIP7board_tEEvT_S4_>:
    bf09:	55                   	push   %rbp
    bf0a:	48 89 e5             	mov    %rsp,%rbp
    bf0d:	48 89 7d f8          	mov    %rdi,-0x8(%rbp)
    bf11:	48 89 75 f0          	mov    %rsi,-0x10(%rbp)
    bf15:	90                   	nop
    bf16:	5d                   	pop    %rbp
    bf17:	c3                   	ret

000000000000bf18 <_ZSt11__addressofI7board_tEPT_RS1_>:
    bf18:	55                   	push   %rbp
    bf19:	48 89 e5             	mov    %rsp,%rbp
    bf1c:	48 89 7d f8          	mov    %rdi,-0x8(%rbp)
    bf20:	48 8b 45 f8          	mov    -0x8(%rbp),%rax
    bf24:	5d                   	pop    %rbp
    bf25:	c3                   	ret

000000000000bf26 <_ZN6undo_tC1Ev>:
    bf26:	55                   	push   %rbp
    bf27:	48 89 e5             	mov    %rsp,%rbp
    bf2a:	48 89 7d f8          	mov    %rdi,-0x8(%rbp)
    bf2e:	48 8b 45 f8          	mov    -0x8(%rbp),%rax
    bf32:	c7 00 00 00 00 00    	movl   $0x0,(%rax)
    bf38:	48 8b 45 f8          	mov    -0x8(%rbp),%rax
    bf3c:	c7 40 08 40 00 00 00 	movl   $0x40,0x8(%rax)
    bf43:	48 8b 45 f8          	mov    -0x8(%rbp),%rax
    bf47:	c7 40 18 00 00 00 00 	movl   $0x0,0x18(%rax)
    bf4e:	90                   	nop
    bf4f:	5d                   	pop    %rbp
    bf50:	c3                   	ret
    bf51:	90                   	nop

000000000000bf52 <_ZN7board_tC1Ev>:
    bf52:	55                   	push   %rbp
    bf53:	48 89 e5             	mov    %rsp,%rbp
    bf56:	41 54                	push   %r12
    bf58:	53                   	push   %rbx
    bf59:	48 83 ec 10          	sub    $0x10,%rsp
    bf5d:	48 89 7d e8          	mov    %rdi,-0x18(%rbp)
    bf61:	48 8b 45 e8          	mov    -0x18(%rbp),%rax
    bf65:	c7 80 88 01 00 00 01 	movl   $0x1,0x188(%rax)
    bf6c:	00 00 00 
    bf6f:	48 8b 45 e8          	mov    -0x18(%rbp),%rax
    bf73:	c7 80 8c 01 00 00 00 	movl   $0x0,0x18c(%rax)
    bf7a:	00 00 00 
    bf7d:	48 8b 45 e8          	mov    -0x18(%rbp),%rax
    bf81:	c7 80 90 01 00 00 00 	movl   $0x0,0x190(%rax)
    bf88:	00 00 00 
    bf8b:	48 8b 45 e8          	mov    -0x18(%rbp),%rax
    bf8f:	c7 80 94 01 00 00 0f 	movl   $0xf,0x194(%rax)
    bf96:	00 00 00 
    bf99:	48 8b 45 e8          	mov    -0x18(%rbp),%rax
    bf9d:	c7 80 98 01 00 00 00 	movl   $0x0,0x198(%rax)
    bfa4:	00 00 00 
    bfa7:	48 8b 45 e8          	mov    -0x18(%rbp),%rax
    bfab:	c7 80 9c 01 00 00 40 	movl   $0x40,0x19c(%rax)
    bfb2:	00 00 00 
    bfb5:	48 8b 45 e8          	mov    -0x18(%rbp),%rax
    bfb9:	c7 80 a0 01 00 00 3c 	movl   $0x3c,0x1a0(%rax)
    bfc0:	00 00 00 
    bfc3:	48 8b 45 e8          	mov    -0x18(%rbp),%rax
    bfc7:	c7 80 a4 01 00 00 04 	movl   $0x4,0x1a4(%rax)
    bfce:	00 00 00 
    bfd1:	48 8b 45 e8          	mov    -0x18(%rbp),%rax
    bfd5:	48 c7 80 a8 01 00 00 	movq   $0x0,0x1a8(%rax)
    bfdc:	00 00 00 00 
    bfe0:	48 8b 45 e8          	mov    -0x18(%rbp),%rax
    bfe4:	48 05 b0 01 00 00    	add    $0x1b0,%rax
    bfea:	bb ff 07 00 00       	mov    $0x7ff,%ebx
    bfef:	49 89 c4             	mov    %rax,%r12
    bff2:	eb 0f                	jmp    c003 <_ZN7board_tC1Ev+0xb1>
    bff4:	4c 89 e7             	mov    %r12,%rdi
    bff7:	e8 2a ff ff ff       	call   bf26 <_ZN6undo_tC1Ev>
    bffc:	48 ff cb             	dec    %rbx
    bfff:	49 83 c4 20          	add    $0x20,%r12
    c003:	48 85 db             	test   %rbx,%rbx
    c006:	79 ec                	jns    bff4 <_ZN7board_tC1Ev+0xa2>
    c008:	90                   	nop
    c009:	90                   	nop
    c00a:	48 83 c4 10          	add    $0x10,%rsp
    c00e:	5b                   	pop    %rbx
    c00f:	41 5c                	pop    %r12
    c011:	5d                   	pop    %rbp
    c012:	c3                   	ret

000000000000c013 <_ZSt10_ConstructI7board_tJEEvPT_DpOT0_>:
    c013:	55                   	push   %rbp
    c014:	48 89 e5             	mov    %rsp,%rbp
    c017:	53                   	push   %rbx
    c018:	48 83 ec 18          	sub    $0x18,%rsp
    c01c:	48 89 7d e8          	mov    %rdi,-0x18(%rbp)
    c020:	48 8b 45 e8          	mov    -0x18(%rbp),%rax
    c024:	48 89 c6             	mov    %rax,%rsi
    c027:	bf b0 01 01 00       	mov    $0x101b0,%edi
    c02c:	e8 e9 80 ff ff       	call   411a <_ZnwmPv>
    c031:	48 89 c3             	mov    %rax,%rbx
    c034:	48 89 d8             	mov    %rbx,%rax
    c037:	ba b0 01 01 00       	mov    $0x101b0,%edx
    c03c:	be 00 00 00 00       	mov    $0x0,%esi
    c041:	48 89 c7             	mov    %rax,%rdi
    c044:	e8 c7 70 ff ff       	call   3110 <memset@plt>
    c049:	48 89 df             	mov    %rbx,%rdi
    c04c:	e8 01 ff ff ff       	call   bf52 <_ZN7board_tC1Ev>
    c051:	90                   	nop
    c052:	48 8b 5d f8          	mov    -0x8(%rbp),%rbx
    c056:	c9                   	leave
    c057:	c3                   	ret

000000000000c058 <_ZNKSt8__detail15_Hashtable_baseIcSt4pairIKciENS_10_Select1stESt8equal_toIcESt4hashIcENS_18_Mod_range_hashingENS_20_Default_ranged_hashENS_17_Hashtable_traitsILb0ELb0ELb1EEEE13_M_key_equalsERS2_RKNS_16_Hash_node_valueIS3_Lb0EEE>:
    c058:	55                   	push   %rbp
    c059:	48 89 e5             	mov    %rsp,%rbp
    c05c:	53                   	push   %rbx
    c05d:	48 83 ec 38          	sub    $0x38,%rsp
    c061:	48 89 7d d8          	mov    %rdi,-0x28(%rbp)
    c065:	48 89 75 d0          	mov    %rsi,-0x30(%rbp)
    c069:	48 89 55 c8          	mov    %rdx,-0x38(%rbp)
    c06d:	64 48 8b 04 25 28 00 	mov    %fs:0x28,%rax
    c074:	00 00 
    c076:	48 89 45 e8          	mov    %rax,-0x18(%rbp)
    c07a:	31 c0                	xor    %eax,%eax
    c07c:	48 8b 45 d8          	mov    -0x28(%rbp),%rax
    c080:	48 89 c7             	mov    %rax,%rdi
    c083:	e8 44 97 ff ff       	call   57cc <_ZNKSt8__detail15_Hashtable_baseIcSt4pairIKciENS_10_Select1stESt8equal_toIcESt4hashIcENS_18_Mod_range_hashingENS_20_Default_ranged_hashENS_17_Hashtable_traitsILb0ELb0ELb1EEEE5_M_eqEv>
    c088:	48 89 c3             	mov    %rax,%rbx
    c08b:	48 8b 45 c8          	mov    -0x38(%rbp),%rax
    c08f:	48 89 c7             	mov    %rax,%rdi
    c092:	e8 4f 97 ff ff       	call   57e6 <_ZNKSt8__detail21_Hash_node_value_baseISt4pairIKciEE4_M_vEv>
    c097:	48 89 c2             	mov    %rax,%rdx
    c09a:	48 8d 45 e7          	lea    -0x19(%rbp),%rax
    c09e:	48 89 d6             	mov    %rdx,%rsi
    c0a1:	48 89 c7             	mov    %rax,%rdi
    c0a4:	e8 d7 8e ff ff       	call   4f80 <_ZNKSt8__detail10_Select1stclIRKSt4pairIKciEEEONS0_10__1st_typeIT_E4typeEOS8_>
    c0a9:	48 89 c2             	mov    %rax,%rdx
    c0ac:	48 8b 45 d0          	mov    -0x30(%rbp),%rax
    c0b0:	48 89 c6             	mov    %rax,%rsi
    c0b3:	48 89 df             	mov    %rbx,%rdi
    c0b6:	e8 45 97 ff ff       	call   5800 <_ZNKSt8equal_toIcEclERKcS2_>
    c0bb:	48 8b 55 e8          	mov    -0x18(%rbp),%rdx
    c0bf:	64 48 2b 14 25 28 00 	sub    %fs:0x28,%rdx
    c0c6:	00 00 
    c0c8:	74 05                	je     c0cf <_ZNKSt8__detail15_Hashtable_baseIcSt4pairIKciENS_10_Select1stESt8equal_toIcESt4hashIcENS_18_Mod_range_hashingENS_20_Default_ranged_hashENS_17_Hashtable_traitsILb0ELb0ELb1EEEE13_M_key_equalsERS2_RKNS_16_Hash_node_valueIS3_Lb0EEE+0x77>
    c0ca:	e8 d1 71 ff ff       	call   32a0 <__stack_chk_fail@plt>
    c0cf:	48 8b 5d f8          	mov    -0x8(%rbp),%rbx
    c0d3:	c9                   	leave
    c0d4:	c3                   	ret
    c0d5:	90                   	nop

000000000000c0d6 <_ZNSt5tupleIJRKcEEC1EOS2_>:
    c0d6:	55                   	push   %rbp
    c0d7:	48 89 e5             	mov    %rsp,%rbp
    c0da:	48 83 ec 10          	sub    $0x10,%rsp
    c0de:	48 89 7d f8          	mov    %rdi,-0x8(%rbp)
    c0e2:	48 89 75 f0          	mov    %rsi,-0x10(%rbp)
    c0e6:	48 8b 45 f8          	mov    -0x8(%rbp),%rax
    c0ea:	48 8b 55 f0          	mov    -0x10(%rbp),%rdx
    c0ee:	48 89 d6             	mov    %rdx,%rsi
    c0f1:	48 89 c7             	mov    %rax,%rdi
    c0f4:	e8 bf 00 00 00       	call   c1b8 <_ZNSt11_Tuple_implILm0EJRKcEEC1EOS2_>
    c0f9:	90                   	nop
    c0fa:	c9                   	leave
    c0fb:	c3                   	ret

000000000000c0fc <_ZSt19__relocate_object_aI7board_tS0_SaIS0_EEvPT_PT0_RT1_>:
    c0fc:	55                   	push   %rbp
    c0fd:	48 89 e5             	mov    %rsp,%rbp
    c100:	53                   	push   %rbx
    c101:	48 83 ec 78          	sub    $0x78,%rsp
    c105:	48 89 7d 98          	mov    %rdi,-0x68(%rbp)
    c109:	48 89 75 90          	mov    %rsi,-0x70(%rbp)
    c10d:	48 89 55 88          	mov    %rdx,-0x78(%rbp)
    c111:	48 8b 45 90          	mov    -0x70(%rbp),%rax
    c115:	48 89 c7             	mov    %rax,%rdi
    c118:	e8 e3 00 00 00       	call   c200 <_ZSt4moveIR7board_tEONSt16remove_referenceIT_E4typeEOS3_>
    c11d:	48 8b 55 88          	mov    -0x78(%rbp),%rdx
    c121:	48 89 55 c0          	mov    %rdx,-0x40(%rbp)
    c125:	48 8b 55 98          	mov    -0x68(%rbp),%rdx
    c129:	48 89 55 c8          	mov    %rdx,-0x38(%rbp)
    c12d:	48 89 45 d0          	mov    %rax,-0x30(%rbp)
    c131:	48 8b 45 d0          	mov    -0x30(%rbp),%rax
    c135:	48 89 c7             	mov    %rax,%rdi
    c138:	e8 10 01 00 00       	call   c24d <_ZSt7forwardI7board_tEOT_RNSt16remove_referenceIS1_E4typeE>
    c13d:	48 8b 55 c0          	mov    -0x40(%rbp),%rdx
    c141:	48 89 55 d8          	mov    %rdx,-0x28(%rbp)
    c145:	48 8b 55 c8          	mov    -0x38(%rbp),%rdx
    c149:	48 89 55 e0          	mov    %rdx,-0x20(%rbp)
    c14d:	48 89 45 e8          	mov    %rax,-0x18(%rbp)
    c151:	48 8b 45 e0          	mov    -0x20(%rbp),%rax
    c155:	48 89 c6             	mov    %rax,%rsi
    c158:	bf b0 01 01 00       	mov    $0x101b0,%edi
    c15d:	e8 b8 7f ff ff       	call   411a <_ZnwmPv>
    c162:	48 89 c3             	mov    %rax,%rbx
    c165:	48 8b 45 e8          	mov    -0x18(%rbp),%rax
    c169:	48 89 c7             	mov    %rax,%rdi
    c16c:	e8 dc 00 00 00       	call   c24d <_ZSt7forwardI7board_tEOT_RNSt16remove_referenceIS1_E4typeE>
    c171:	48 89 d9             	mov    %rbx,%rcx
    c174:	ba b0 01 01 00       	mov    $0x101b0,%edx
    c179:	48 89 c6             	mov    %rax,%rsi
    c17c:	48 89 cf             	mov    %rcx,%rdi
    c17f:	e8 4c 70 ff ff       	call   31d0 <memcpy@plt>
    c184:	90                   	nop
    c185:	90                   	nop
    c186:	48 8b 45 90          	mov    -0x70(%rbp),%rax
    c18a:	48 89 c7             	mov    %rax,%rdi
    c18d:	e8 86 fd ff ff       	call   bf18 <_ZSt11__addressofI7board_tEPT_RS1_>
    c192:	48 8b 55 88          	mov    -0x78(%rbp),%rdx
    c196:	48 89 55 a0          	mov    %rdx,-0x60(%rbp)
    c19a:	48 89 45 a8          	mov    %rax,-0x58(%rbp)
    c19e:	48 8b 45 a0          	mov    -0x60(%rbp),%rax
    c1a2:	48 89 45 b0          	mov    %rax,-0x50(%rbp)
    c1a6:	48 8b 45 a8          	mov    -0x58(%rbp),%rax
    c1aa:	48 89 45 b8          	mov    %rax,-0x48(%rbp)
    c1ae:	90                   	nop
    c1af:	90                   	nop
    c1b0:	90                   	nop
    c1b1:	48 8b 5d f8          	mov    -0x8(%rbp),%rbx
    c1b5:	c9                   	leave
    c1b6:	c3                   	ret
    c1b7:	90                   	nop

000000000000c1b8 <_ZNSt11_Tuple_implILm0EJRKcEEC1EOS2_>:
    c1b8:	55                   	push   %rbp
    c1b9:	48 89 e5             	mov    %rsp,%rbp
    c1bc:	48 89 7d f8          	mov    %rdi,-0x8(%rbp)
    c1c0:	48 89 75 f0          	mov    %rsi,-0x10(%rbp)
    c1c4:	48 8b 45 f8          	mov    -0x8(%rbp),%rax
    c1c8:	48 8b 55 f0          	mov    -0x10(%rbp),%rdx
    c1cc:	48 8b 12             	mov    (%rdx),%rdx
    c1cf:	48 89 10             	mov    %rdx,(%rax)
    c1d2:	90                   	nop
    c1d3:	5d                   	pop    %rbp
    c1d4:	c3                   	ret
    c1d5:	90                   	nop

000000000000c1d6 <_ZNSt4pairIKciEC1IJRS0_EJEEESt21piecewise_construct_tSt5tupleIJDpT_EES5_IJDpT0_EE>:
    c1d6:	55                   	push   %rbp
    c1d7:	48 89 e5             	mov    %rsp,%rbp
    c1da:	48 83 ec 20          	sub    $0x20,%rsp
    c1de:	48 89 7d f8          	mov    %rdi,-0x8(%rbp)
    c1e2:	48 89 75 f0          	mov    %rsi,-0x10(%rbp)
    c1e6:	48 8d 45 ef          	lea    -0x11(%rbp),%rax
    c1ea:	48 8b 75 f0          	mov    -0x10(%rbp),%rsi
    c1ee:	48 8b 4d f8          	mov    -0x8(%rbp),%rcx
    c1f2:	48 89 c2             	mov    %rax,%rdx
    c1f5:	48 89 cf             	mov    %rcx,%rdi
    c1f8:	e8 11 00 00 00       	call   c20e <_ZNSt4pairIKciEC1IJRS0_EJLm0EEJEJEEERSt5tupleIJDpT_EERS4_IJDpT1_EESt12_Index_tupleIJXspT0_EEESD_IJXspT2_EEE>
    c1fd:	90                   	nop
    c1fe:	c9                   	leave
    c1ff:	c3                   	ret

000000000000c200 <_ZSt4moveIR7board_tEONSt16remove_referenceIT_E4typeEOS3_>:
    c200:	55                   	push   %rbp
    c201:	48 89 e5             	mov    %rsp,%rbp
    c204:	48 89 7d f8          	mov    %rdi,-0x8(%rbp)
    c208:	48 8b 45 f8          	mov    -0x8(%rbp),%rax
    c20c:	5d                   	pop    %rbp
    c20d:	c3                   	ret

000000000000c20e <_ZNSt4pairIKciEC1IJRS0_EJLm0EEJEJEEERSt5tupleIJDpT_EERS4_IJDpT1_EESt12_Index_tupleIJXspT0_EEESD_IJXspT2_EEE>:
    c20e:	55                   	push   %rbp
    c20f:	48 89 e5             	mov    %rsp,%rbp
    c212:	48 83 ec 20          	sub    $0x20,%rsp
    c216:	48 89 7d f8          	mov    %rdi,-0x8(%rbp)
    c21a:	48 89 75 f0          	mov    %rsi,-0x10(%rbp)
    c21e:	48 89 55 e8          	mov    %rdx,-0x18(%rbp)
    c222:	48 8b 45 f0          	mov    -0x10(%rbp),%rax
    c226:	48 89 c7             	mov    %rax,%rdi
    c229:	e8 2d 00 00 00       	call   c25b <_ZSt3getILm0EJRKcEERNSt13tuple_elementIXT_ESt5tupleIJDpT0_EEE4typeERS6_>
    c22e:	48 89 c7             	mov    %rax,%rdi
    c231:	e8 7b 93 ff ff       	call   55b1 <_ZSt7forwardIRKcEOT_RNSt16remove_referenceIS2_E4typeE>
    c236:	0f b6 00             	movzbl (%rax),%eax
    c239:	48 8b 55 f8          	mov    -0x8(%rbp),%rdx
    c23d:	88 02                	mov    %al,(%rdx)
    c23f:	48 8b 45 f8          	mov    -0x8(%rbp),%rax
    c243:	c7 40 04 00 00 00 00 	movl   $0x0,0x4(%rax)
    c24a:	90                   	nop
    c24b:	c9                   	leave
    c24c:	c3                   	ret

000000000000c24d <_ZSt7forwardI7board_tEOT_RNSt16remove_referenceIS1_E4typeE>:
    c24d:	55                   	push   %rbp
    c24e:	48 89 e5             	mov    %rsp,%rbp
    c251:	48 89 7d f8          	mov    %rdi,-0x8(%rbp)
    c255:	48 8b 45 f8          	mov    -0x8(%rbp),%rax
    c259:	5d                   	pop    %rbp
    c25a:	c3                   	ret

000000000000c25b <_ZSt3getILm0EJRKcEERNSt13tuple_elementIXT_ESt5tupleIJDpT0_EEE4typeERS6_>:
    c25b:	55                   	push   %rbp
    c25c:	48 89 e5             	mov    %rsp,%rbp
    c25f:	48 83 ec 10          	sub    $0x10,%rsp
    c263:	48 89 7d f8          	mov    %rdi,-0x8(%rbp)
    c267:	48 8b 45 f8          	mov    -0x8(%rbp),%rax
    c26b:	48 89 c7             	mov    %rax,%rdi
    c26e:	e8 02 00 00 00       	call   c275 <_ZSt12__get_helperILm0ERKcJEERT0_RSt11_Tuple_implIXT_EJS2_DpT1_EE>
    c273:	c9                   	leave
    c274:	c3                   	ret

000000000000c275 <_ZSt12__get_helperILm0ERKcJEERT0_RSt11_Tuple_implIXT_EJS2_DpT1_EE>:
    c275:	55                   	push   %rbp
    c276:	48 89 e5             	mov    %rsp,%rbp
    c279:	48 83 ec 10          	sub    $0x10,%rsp
    c27d:	48 89 7d f8          	mov    %rdi,-0x8(%rbp)
    c281:	48 8b 45 f8          	mov    -0x8(%rbp),%rax
    c285:	48 89 c7             	mov    %rax,%rdi
    c288:	e8 02 00 00 00       	call   c28f <_ZNSt11_Tuple_implILm0EJRKcEE7_M_headERS2_>
    c28d:	c9                   	leave
    c28e:	c3                   	ret

000000000000c28f <_ZNSt11_Tuple_implILm0EJRKcEE7_M_headERS2_>:
    c28f:	55                   	push   %rbp
    c290:	48 89 e5             	mov    %rsp,%rbp
    c293:	48 83 ec 10          	sub    $0x10,%rsp
    c297:	48 89 7d f8          	mov    %rdi,-0x8(%rbp)
    c29b:	48 8b 45 f8          	mov    -0x8(%rbp),%rax
    c29f:	48 89 c7             	mov    %rax,%rdi
    c2a2:	e8 02 00 00 00       	call   c2a9 <_ZNSt10_Head_baseILm0ERKcLb0EE7_M_headERS2_>
    c2a7:	c9                   	leave
    c2a8:	c3                   	ret

000000000000c2a9 <_ZNSt10_Head_baseILm0ERKcLb0EE7_M_headERS2_>:
    c2a9:	55                   	push   %rbp
    c2aa:	48 89 e5             	mov    %rsp,%rbp
    c2ad:	48 89 7d f8          	mov    %rdi,-0x8(%rbp)
    c2b1:	48 8b 45 f8          	mov    -0x8(%rbp),%rax
    c2b5:	48 8b 00             	mov    (%rax),%rax
    c2b8:	5d                   	pop    %rbp
    c2b9:	c3                   	ret

000000000000c2ba <_ZNSt6vectorI7board_tSaIS0_EED1Ev>:
    c2ba:	55                   	push   %rbp
    c2bb:	48 89 e5             	mov    %rsp,%rbp
    c2be:	48 83 ec 30          	sub    $0x30,%rsp
    c2c2:	48 89 7d d8          	mov    %rdi,-0x28(%rbp)
    c2c6:	48 8b 45 d8          	mov    -0x28(%rbp),%rax
    c2ca:	48 89 c7             	mov    %rax,%rdi
    c2cd:	e8 92 f1 ff ff       	call   b464 <_ZNSt12_Vector_baseI7board_tSaIS0_EE19_M_get_Tp_allocatorEv>
    c2d2:	48 8b 55 d8          	mov    -0x28(%rbp),%rdx
    c2d6:	48 8b 52 08          	mov    0x8(%rdx),%rdx
    c2da:	48 8b 4d d8          	mov    -0x28(%rbp),%rcx
    c2de:	48 8b 09             	mov    (%rcx),%rcx
    c2e1:	48 89 4d e8          	mov    %rcx,-0x18(%rbp)
    c2e5:	48 89 55 f0          	mov    %rdx,-0x10(%rbp)
    c2e9:	48 89 45 f8          	mov    %rax,-0x8(%rbp)
    c2ed:	48 8b 55 f0          	mov    -0x10(%rbp),%rdx
    c2f1:	48 8b 45 e8          	mov    -0x18(%rbp),%rax
    c2f5:	48 89 d6             	mov    %rdx,%rsi
    c2f8:	48 89 c7             	mov    %rax,%rdi
    c2fb:	e8 fb f9 ff ff       	call   bcfb <_ZSt8_DestroyIP7board_tEvT_S2_>
    c300:	90                   	nop
    c301:	48 8b 45 d8          	mov    -0x28(%rbp),%rax
    c305:	48 89 c7             	mov    %rax,%rdi
    c308:	e8 d9 ea ff ff       	call   ade6 <_ZNSt12_Vector_baseI7board_tSaIS0_EED1Ev>
    c30d:	90                   	nop
    c30e:	c9                   	leave
    c30f:	c3                   	ret

000000000000c310 <main>:
    c310:	55                   	push   %rbp
    c311:	48 89 e5             	mov    %rsp,%rbp
    c314:	48 83 ec 10          	sub    $0x10,%rsp
    c318:	89 7d fc             	mov    %edi,-0x4(%rbp)
    c31b:	48 89 75 f0          	mov    %rsi,-0x10(%rbp)
    c31f:	48 8d 05 02 5d 00 00 	lea    0x5d02(%rip),%rax        # 12028 <_ZL9BORDER_SQ+0x8>
    c326:	48 89 c6             	mov    %rax,%rsi
    c329:	48 8d 05 10 c3 00 00 	lea    0xc310(%rip),%rax        # 18640 <_ZSt4cout@GLIBCXX_3.4>
    c330:	48 89 c7             	mov    %rax,%rdi
    c333:	e8 e8 6e ff ff       	call   3220 <_ZStlsISt11char_traitsIcEERSt13basic_ostreamIcT_ES5_PKc@plt>
    c338:	48 89 c2             	mov    %rax,%rdx
    c33b:	48 8d 05 ed 5c 00 00 	lea    0x5ced(%rip),%rax        # 1202f <_ZL9BORDER_SQ+0xf>
    c342:	48 89 c6             	mov    %rax,%rsi
    c345:	48 89 d7             	mov    %rdx,%rdi
    c348:	e8 d3 6e ff ff       	call   3220 <_ZStlsISt11char_traitsIcEERSt13basic_ostreamIcT_ES5_PKc@plt>
    c34d:	48 89 c2             	mov    %rax,%rdx
    c350:	48 8d 05 dd 5c 00 00 	lea    0x5cdd(%rip),%rax        # 12034 <_ZL9BORDER_SQ+0x14>
    c357:	48 89 c6             	mov    %rax,%rsi
    c35a:	48 89 d7             	mov    %rdx,%rdi
    c35d:	e8 be 6e ff ff       	call   3220 <_ZStlsISt11char_traitsIcEERSt13basic_ostreamIcT_ES5_PKc@plt>
    c362:	48 8b 15 47 bc 00 00 	mov    0xbc47(%rip),%rdx        # 17fb0 <_ZSt4endlIcSt11char_traitsIcEERSt13basic_ostreamIT_T0_ES6_@GLIBCXX_3.4>
    c369:	48 89 d6             	mov    %rdx,%rsi
    c36c:	48 89 c7             	mov    %rax,%rdi
    c36f:	e8 dc 6e ff ff       	call   3250 <_ZNSolsEPFRSoS_E@plt>
    c374:	48 8d 05 c6 5c 00 00 	lea    0x5cc6(%rip),%rax        # 12041 <_ZL9BORDER_SQ+0x21>
    c37b:	48 89 c6             	mov    %rax,%rsi
    c37e:	48 8d 05 bb c2 00 00 	lea    0xc2bb(%rip),%rax        # 18640 <_ZSt4cout@GLIBCXX_3.4>
    c385:	48 89 c7             	mov    %rax,%rdi
    c388:	e8 93 6e ff ff       	call   3220 <_ZStlsISt11char_traitsIcEERSt13basic_ostreamIcT_ES5_PKc@plt>
    c38d:	48 89 c2             	mov    %rax,%rdx
    c390:	48 8d 05 b4 5c 00 00 	lea    0x5cb4(%rip),%rax        # 1204b <_ZL9BORDER_SQ+0x2b>
    c397:	48 89 c6             	mov    %rax,%rsi
    c39a:	48 89 d7             	mov    %rdx,%rdi
    c39d:	e8 7e 6e ff ff       	call   3220 <_ZStlsISt11char_traitsIcEERSt13basic_ostreamIcT_ES5_PKc@plt>
    c3a2:	48 8b 15 07 bc 00 00 	mov    0xbc07(%rip),%rdx        # 17fb0 <_ZSt4endlIcSt11char_traitsIcEERSt13basic_ostreamIT_T0_ES6_@GLIBCXX_3.4>
    c3a9:	48 89 d6             	mov    %rdx,%rsi
    c3ac:	48 89 c7             	mov    %rax,%rdi
    c3af:	e8 9c 6e ff ff       	call   3250 <_ZNSolsEPFRSoS_E@plt>
    c3b4:	e8 34 9e ff ff       	call   61ed <_Z15init_eval_masksv>
    c3b9:	e8 61 a4 ff ff       	call   681f <_Z9init_keysv>
    c3be:	e8 76 71 ff ff       	call   3539 <_Z17init_leap_attacksv>
    c3c3:	e8 8b 76 ff ff       	call   3a53 <_Z23init_bishop_occupanciesv>
    c3c8:	e8 ab 77 ff ff       	call   3b78 <_Z21init_rook_occupanciesv>
    c3cd:	e8 45 02 00 00       	call   c617 <_Z11init_magicsILi3EEvv>
    c3d2:	e8 95 05 00 00       	call   c96c <_Z11init_magicsILi4EEvv>
    c3d7:	e8 22 7b ff ff       	call   3efe <_Z19init_slider_attacksv>
    c3dc:	48 8b 55 f0          	mov    -0x10(%rbp),%rdx
    c3e0:	8b 45 fc             	mov    -0x4(%rbp),%eax
    c3e3:	48 89 d6             	mov    %rdx,%rsi
    c3e6:	89 c7                	mov    %eax,%edi
    c3e8:	e8 07 2f 00 00       	call   f2f4 <_Z4loopiPPc>
    c3ed:	b8 00 00 00 00       	mov    $0x0,%eax
    c3f2:	c9                   	leave
    c3f3:	c3                   	ret

000000000000c3f4 <_Z41__static_initialization_and_destruction_0v>:
    c3f4:	55                   	push   %rbp
    c3f5:	48 89 e5             	mov    %rsp,%rbp
    c3f8:	41 52                	push   %r10
    c3fa:	53                   	push   %rbx
    c3fb:	48 83 c4 80          	add    $0xffffffffffffff80,%rsp
    c3ff:	4c 8d 55 10          	lea    0x10(%rbp),%r10
    c403:	64 48 8b 0c 25 28 00 	mov    %fs:0x28,%rcx
    c40a:	00 00 
    c40c:	48 89 4d e8          	mov    %rcx,-0x18(%rbp)
    c410:	31 c9                	xor    %ecx,%ecx
    c412:	48 8d 0d 9f 04 0e 00 	lea    0xe049f(%rip),%rcx        # ec8b8 <_ZGV13char_to_piece>
    c419:	0f b6 09             	movzbl (%rcx),%ecx
    c41c:	84 c9                	test   %cl,%cl
    c41e:	0f 85 71 01 00 00    	jne    c595 <_Z41__static_initialization_and_destruction_0v+0x1a1>
    c424:	48 8d 0d 8d 04 0e 00 	lea    0xe048d(%rip),%rcx        # ec8b8 <_ZGV13char_to_piece>
    c42b:	c6 01 01             	movb   $0x1,(%rcx)
    c42e:	c5 f9 ef c0          	vpxor  %xmm0,%xmm0,%xmm0
    c432:	c5 fe 7f 45 80       	vmovdqu %ymm0,-0x80(%rbp)
    c437:	c5 fe 7f 45 a0       	vmovdqu %ymm0,-0x60(%rbp)
    c43c:	c5 fe 7f 45 c0       	vmovdqu %ymm0,-0x40(%rbp)
    c441:	c5 f9 d6 45 e0       	vmovq  %xmm0,-0x20(%rbp)
    c446:	c6 45 80 30          	movb   $0x30,-0x80(%rbp)
    c44a:	c6 45 88 50          	movb   $0x50,-0x78(%rbp)
    c44e:	c7 45 8c 01 00 00 00 	movl   $0x1,-0x74(%rbp)
    c455:	c6 45 90 52          	movb   $0x52,-0x70(%rbp)
    c459:	c7 45 94 04 00 00 00 	movl   $0x4,-0x6c(%rbp)
    c460:	c6 45 98 4e          	movb   $0x4e,-0x68(%rbp)
    c464:	c7 45 9c 02 00 00 00 	movl   $0x2,-0x64(%rbp)
    c46b:	c6 45 a0 42          	movb   $0x42,-0x60(%rbp)
    c46f:	c7 45 a4 03 00 00 00 	movl   $0x3,-0x5c(%rbp)
    c476:	c6 45 a8 51          	movb   $0x51,-0x58(%rbp)
    c47a:	c7 45 ac 05 00 00 00 	movl   $0x5,-0x54(%rbp)
    c481:	c6 45 b0 4b          	movb   $0x4b,-0x50(%rbp)
    c485:	c7 45 b4 06 00 00 00 	movl   $0x6,-0x4c(%rbp)
    c48c:	c6 45 b8 70          	movb   $0x70,-0x48(%rbp)
    c490:	c7 45 bc 09 00 00 00 	movl   $0x9,-0x44(%rbp)
    c497:	c6 45 c0 6e          	movb   $0x6e,-0x40(%rbp)
    c49b:	c7 45 c4 0a 00 00 00 	movl   $0xa,-0x3c(%rbp)
    c4a2:	c6 45 c8 72          	movb   $0x72,-0x38(%rbp)
    c4a6:	c7 45 cc 0c 00 00 00 	movl   $0xc,-0x34(%rbp)
    c4ad:	c6 45 d0 62          	movb   $0x62,-0x30(%rbp)
    c4b1:	c7 45 d4 0b 00 00 00 	movl   $0xb,-0x2c(%rbp)
    c4b8:	c6 45 d8 71          	movb   $0x71,-0x28(%rbp)
    c4bc:	c7 45 dc 0d 00 00 00 	movl   $0xd,-0x24(%rbp)
    c4c3:	c6 45 e0 6b          	movb   $0x6b,-0x20(%rbp)
    c4c7:	c7 45 e4 0e 00 00 00 	movl   $0xe,-0x1c(%rbp)
    c4ce:	48 8d 4d 80          	lea    -0x80(%rbp),%rcx
    c4d2:	48 89 c8             	mov    %rcx,%rax
    c4d5:	ba 0d 00 00 00       	mov    $0xd,%edx
    c4da:	48 8d 8d 77 ff ff ff 	lea    -0x89(%rbp),%rcx
    c4e1:	48 89 8d 78 ff ff ff 	mov    %rcx,-0x88(%rbp)
    c4e8:	90                   	nop
    c4e9:	90                   	nop
    c4ea:	48 8d b5 76 ff ff ff 	lea    -0x8a(%rbp),%rsi
    c4f1:	48 8d 8d 75 ff ff ff 	lea    -0x8b(%rbp),%rcx
    c4f8:	49 89 c0             	mov    %rax,%r8
    c4fb:	49 89 d1             	mov    %rdx,%r9
    c4fe:	4c 89 c7             	mov    %r8,%rdi
    c501:	48 83 ec 08          	sub    $0x8,%rsp
    c505:	48 8d 85 77 ff ff ff 	lea    -0x89(%rbp),%rax
    c50c:	50                   	push   %rax
    c50d:	49 89 f1             	mov    %rsi,%r9
    c510:	49 89 c8             	mov    %rcx,%r8
    c513:	b9 00 00 00 00       	mov    $0x0,%ecx
    c518:	48 89 fe             	mov    %rdi,%rsi
    c51b:	48 8d 05 5e 03 0e 00 	lea    0xe035e(%rip),%rax        # ec880 <char_to_piece>
    c522:	48 89 c7             	mov    %rax,%rdi
    c525:	e8 92 7d ff ff       	call   42bc <_ZNSt13unordered_mapIciSt4hashIcESt8equal_toIcESaISt4pairIKciEEEC1ESt16initializer_listIS6_EmRKS1_RKS3_RKS7_>
    c52a:	48 83 c4 10          	add    $0x10,%rsp
    c52e:	48 8d 85 77 ff ff ff 	lea    -0x89(%rbp),%rax
    c535:	48 89 c7             	mov    %rax,%rdi
    c538:	e8 eb 7d ff ff       	call   4328 <_ZNSt15__new_allocatorISt4pairIKciEED1Ev>
    c53d:	90                   	nop
    c53e:	48 8d 05 c3 bc 00 00 	lea    0xbcc3(%rip),%rax        # 18208 <__dso_handle>
    c545:	48 89 c2             	mov    %rax,%rdx
    c548:	48 8d 05 31 03 0e 00 	lea    0xe0331(%rip),%rax        # ec880 <char_to_piece>
    c54f:	48 89 c6             	mov    %rax,%rsi
    c552:	48 8d 05 5b 9b ff ff 	lea    -0x64a5(%rip),%rax        # 60b4 <_ZNSt13unordered_mapIciSt4hashIcESt8equal_toIcESaISt4pairIKciEEED1Ev>
    c559:	48 89 c7             	mov    %rax,%rdi
    c55c:	e8 9f 6c ff ff       	call   3200 <__cxa_atexit@plt>
    c561:	eb 32                	jmp    c595 <_Z41__static_initialization_and_destruction_0v+0x1a1>
    c563:	48 89 c3             	mov    %rax,%rbx
    c566:	48 8d 85 77 ff ff ff 	lea    -0x89(%rbp),%rax
    c56d:	48 89 c7             	mov    %rax,%rdi
    c570:	e8 b3 7d ff ff       	call   4328 <_ZNSt15__new_allocatorISt4pairIKciEED1Ev>
    c575:	90                   	nop
    c576:	48 89 d8             	mov    %rbx,%rax
    c579:	48 8b 55 e8          	mov    -0x18(%rbp),%rdx
    c57d:	64 48 2b 14 25 28 00 	sub    %fs:0x28,%rdx
    c584:	00 00 
    c586:	74 05                	je     c58d <_Z41__static_initialization_and_destruction_0v+0x199>
    c588:	e8 13 6d ff ff       	call   32a0 <__stack_chk_fail@plt>
    c58d:	48 89 c7             	mov    %rax,%rdi
    c590:	e8 3b 6e ff ff       	call   33d0 <_Unwind_Resume@plt>
    c595:	90                   	nop
    c596:	48 8b 45 e8          	mov    -0x18(%rbp),%rax
    c59a:	64 48 2b 04 25 28 00 	sub    %fs:0x28,%rax
    c5a1:	00 00 
    c5a3:	74 05                	je     c5aa <_Z41__static_initialization_and_destruction_0v+0x1b6>
    c5a5:	e8 f6 6c ff ff       	call   32a0 <__stack_chk_fail@plt>
    c5aa:	48 8d 65 f0          	lea    -0x10(%rbp),%rsp
    c5ae:	5b                   	pop    %rbx
    c5af:	41 5a                	pop    %r10
    c5b1:	5d                   	pop    %rbp
    c5b2:	c3                   	ret

000000000000c5b3 <_GLOBAL__sub_I_main>:
    c5b3:	55                   	push   %rbp
    c5b4:	48 89 e5             	mov    %rsp,%rbp
    c5b7:	e8 38 fe ff ff       	call   c3f4 <_Z41__static_initialization_and_destruction_0v>
    c5bc:	5d                   	pop    %rbp
    c5bd:	c3                   	ret

000000000000c5be <_Z13sparse_uint64v>:
    c5be:	55                   	push   %rbp
    c5bf:	48 89 e5             	mov    %rsp,%rbp
    c5c2:	53                   	push   %rbx
    c5c3:	48 83 ec 08          	sub    $0x8,%rsp
    c5c7:	e8 49 2b 00 00       	call   f115 <_Z11rand_uint64v>
    c5cc:	48 89 c3             	mov    %rax,%rbx
    c5cf:	e8 41 2b 00 00       	call   f115 <_Z11rand_uint64v>
    c5d4:	48 21 c3             	and    %rax,%rbx
    c5d7:	e8 39 2b 00 00       	call   f115 <_Z11rand_uint64v>
    c5dc:	48 21 d8             	and    %rbx,%rax
    c5df:	48 8b 5d f8          	mov    -0x8(%rbp),%rbx
    c5e3:	c9                   	leave
    c5e4:	c3                   	ret
    c5e5:	90                   	nop

000000000000c5e6 <_ZN7magic_t3keyEm>:
    c5e6:	55                   	push   %rbp
    c5e7:	48 89 e5             	mov    %rsp,%rbp
    c5ea:	48 89 7d f8          	mov    %rdi,-0x8(%rbp)
    c5ee:	48 89 75 f0          	mov    %rsi,-0x10(%rbp)
    c5f2:	48 8b 45 f8          	mov    -0x8(%rbp),%rax
    c5f6:	48 8b 00             	mov    (%rax),%rax
    c5f9:	48 23 45 f0          	and    -0x10(%rbp),%rax
    c5fd:	48 8b 55 f8          	mov    -0x8(%rbp),%rdx
    c601:	48 8b 52 10          	mov    0x10(%rdx),%rdx
    c605:	48 0f af d0          	imul   %rax,%rdx
    c609:	48 8b 45 f8          	mov    -0x8(%rbp),%rax
    c60d:	8b 40 18             	mov    0x18(%rax),%eax
    c610:	c4 e2 fb f7 c2       	shrx   %rax,%rdx,%rax
    c615:	5d                   	pop    %rbp
    c616:	c3                   	ret

000000000000c617 <_Z11init_magicsILi3EEvv>:
    c617:	55                   	push   %rbp
    c618:	48 89 e5             	mov    %rsp,%rbp
    c61b:	48 81 ec 40 80 01 00 	sub    $0x18040,%rsp
    c622:	64 48 8b 04 25 28 00 	mov    %fs:0x28,%rax
    c629:	00 00 
    c62b:	48 89 45 f8          	mov    %rax,-0x8(%rbp)
    c62f:	31 c0                	xor    %eax,%eax
    c631:	48 c7 85 d0 7f fe ff 	movq   $0x0,-0x18030(%rbp)
    c638:	00 00 00 00 
    c63c:	48 c7 85 d8 7f fe ff 	movq   $0x0,-0x18028(%rbp)
    c643:	00 00 00 00 
    c647:	c7 85 c8 7f fe ff 00 	movl   $0x0,-0x18038(%rbp)
    c64e:	00 00 00 
    c651:	e9 d9 02 00 00       	jmp    c92f <_Z11init_magicsILi3EEvv+0x318>
    c656:	8b 85 c8 7f fe ff    	mov    -0x18038(%rbp),%eax
    c65c:	48 98                	cltq
    c65e:	48 c1 e0 05          	shl    $0x5,%rax
    c662:	48 89 c2             	mov    %rax,%rdx
    c665:	48 8d 05 14 f2 0d 00 	lea    0xdf214(%rip),%rax        # eb880 <bishop_magics>
    c66c:	48 01 d0             	add    %rdx,%rax
    c66f:	48 89 85 e8 7f fe ff 	mov    %rax,-0x18018(%rbp)
    c676:	8b 85 c8 7f fe ff    	mov    -0x18038(%rbp),%eax
    c67c:	48 98                	cltq
    c67e:	48 8d 14 c5 00 00 00 	lea    0x0(,%rax,8),%rdx
    c685:	00 
    c686:	48 8d 05 f3 c9 00 00 	lea    0xc9f3(%rip),%rax        # 19080 <bishop_occupancies>
    c68d:	48 01 d0             	add    %rdx,%rax
    c690:	48 8b 10             	mov    (%rax),%rdx
    c693:	48 8b 85 e8 7f fe ff 	mov    -0x18018(%rbp),%rax
    c69a:	48 89 10             	mov    %rdx,(%rax)
    c69d:	48 8b 85 e8 7f fe ff 	mov    -0x18018(%rbp),%rax
    c6a4:	48 8b 00             	mov    (%rax),%rax
    c6a7:	f3 48 0f b8 c0       	popcnt %rax,%rax
    c6ac:	89 c2                	mov    %eax,%edx
    c6ae:	b8 40 00 00 00       	mov    $0x40,%eax
    c6b3:	29 d0                	sub    %edx,%eax
    c6b5:	89 c2                	mov    %eax,%edx
    c6b7:	48 8b 85 e8 7f fe ff 	mov    -0x18018(%rbp),%rax
    c6be:	89 50 18             	mov    %edx,0x18(%rax)
    c6c1:	83 bd c8 7f fe ff 00 	cmpl   $0x0,-0x18038(%rbp)
    c6c8:	74 2e                	je     c6f8 <_Z11init_magicsILi3EEvv+0xe1>
    c6ca:	8b 85 c8 7f fe ff    	mov    -0x18038(%rbp),%eax
    c6d0:	48 98                	cltq
    c6d2:	48 c1 e0 05          	shl    $0x5,%rax
    c6d6:	48 8d 50 e0          	lea    -0x20(%rax),%rdx
    c6da:	48 8d 05 9f f1 0d 00 	lea    0xdf19f(%rip),%rax        # eb880 <bishop_magics>
    c6e1:	48 01 d0             	add    %rdx,%rax
    c6e4:	48 8b 50 08          	mov    0x8(%rax),%rdx
    c6e8:	48 8b 85 d8 7f fe ff 	mov    -0x18028(%rbp),%rax
    c6ef:	48 c1 e0 03          	shl    $0x3,%rax
    c6f3:	48 01 d0             	add    %rdx,%rax
    c6f6:	eb 07                	jmp    c6ff <_Z11init_magicsILi3EEvv+0xe8>
    c6f8:	48 8d 05 81 cd 00 00 	lea    0xcd81(%rip),%rax        # 19480 <bishop_attacks>
    c6ff:	48 8b 95 e8 7f fe ff 	mov    -0x18018(%rbp),%rdx
    c706:	48 89 42 08          	mov    %rax,0x8(%rdx)
    c70a:	48 c7 85 d0 7f fe ff 	movq   $0x0,-0x18030(%rbp)
    c711:	00 00 00 00 
    c715:	48 c7 85 d8 7f fe ff 	movq   $0x0,-0x18028(%rbp)
    c71c:	00 00 00 00 
    c720:	48 8b 85 d8 7f fe ff 	mov    -0x18028(%rbp),%rax
    c727:	48 8b 95 d0 7f fe ff 	mov    -0x18030(%rbp),%rdx
    c72e:	48 89 94 c5 f0 7f fe 	mov    %rdx,-0x18010(%rbp,%rax,8)
    c735:	ff 
    c736:	48 8b 95 d0 7f fe ff 	mov    -0x18030(%rbp),%rdx
    c73d:	8b 85 c8 7f fe ff    	mov    -0x18038(%rbp),%eax
    c743:	48 89 d6             	mov    %rdx,%rsi
    c746:	89 c7                	mov    %eax,%edi
    c748:	e8 65 75 ff ff       	call   3cb2 <_Z16generate_attacksILi3EEmim>
    c74d:	48 8b 95 d8 7f fe ff 	mov    -0x18028(%rbp),%rdx
    c754:	48 89 84 d5 f0 ff fe 	mov    %rax,-0x10010(%rbp,%rdx,8)
    c75b:	ff 
    c75c:	48 8b 85 e8 7f fe ff 	mov    -0x18018(%rbp),%rax
    c763:	48 8b 00             	mov    (%rax),%rax
    c766:	48 8b 95 d0 7f fe ff 	mov    -0x18030(%rbp),%rdx
    c76d:	48 29 c2             	sub    %rax,%rdx
    c770:	48 8b 85 e8 7f fe ff 	mov    -0x18018(%rbp),%rax
    c777:	48 8b 00             	mov    (%rax),%rax
    c77a:	48 21 d0             	and    %rdx,%rax
    c77d:	48 89 85 d0 7f fe ff 	mov    %rax,-0x18030(%rbp)
    c784:	48 ff 85 d8 7f fe ff 	incq   -0x18028(%rbp)
    c78b:	48 83 bd d0 7f fe ff 	cmpq   $0x0,-0x18030(%rbp)
    c792:	00 
    c793:	75 8b                	jne    c720 <_Z11init_magicsILi3EEvv+0x109>
    c795:	c6 85 c7 7f fe ff 00 	movb   $0x0,-0x18039(%rbp)
    c79c:	e9 08 01 00 00       	jmp    c8a9 <_Z11init_magicsILi3EEvv+0x292>
    c7a1:	e8 18 fe ff ff       	call   c5be <_Z13sparse_uint64v>
    c7a6:	48 8b 95 e8 7f fe ff 	mov    -0x18018(%rbp),%rdx
    c7ad:	48 89 42 10          	mov    %rax,0x10(%rdx)
    c7b1:	c6 85 c7 7f fe ff 01 	movb   $0x1,-0x18039(%rbp)
    c7b8:	48 8d 85 f0 7f ff ff 	lea    -0x8010(%rbp),%rax
    c7bf:	ba 00 80 00 00       	mov    $0x8000,%edx
    c7c4:	be 00 00 00 00       	mov    $0x0,%esi
    c7c9:	48 89 c7             	mov    %rax,%rdi
    c7cc:	e8 3f 69 ff ff       	call   3110 <memset@plt>
    c7d1:	48 c7 85 e0 7f fe ff 	movq   $0x0,-0x18020(%rbp)
    c7d8:	00 00 00 00 
    c7dc:	e9 b4 00 00 00       	jmp    c895 <_Z11init_magicsILi3EEvv+0x27e>
    c7e1:	48 8b 85 e0 7f fe ff 	mov    -0x18020(%rbp),%rax
    c7e8:	48 8b 94 c5 f0 7f fe 	mov    -0x18010(%rbp,%rax,8),%rdx
    c7ef:	ff 
    c7f0:	48 8b 85 e8 7f fe ff 	mov    -0x18018(%rbp),%rax
    c7f7:	48 89 d6             	mov    %rdx,%rsi
    c7fa:	48 89 c7             	mov    %rax,%rdi
    c7fd:	e8 e4 fd ff ff       	call   c5e6 <_ZN7magic_t3keyEm>
    c802:	89 85 cc 7f fe ff    	mov    %eax,-0x18034(%rbp)
    c808:	8b 85 cc 7f fe ff    	mov    -0x18034(%rbp),%eax
    c80e:	48 8b 84 c5 f0 7f ff 	mov    -0x8010(%rbp,%rax,8),%rax
    c815:	ff 
    c816:	48 85 c0             	test   %rax,%rax
    c819:	75 48                	jne    c863 <_Z11init_magicsILi3EEvv+0x24c>
    c81b:	48 8b 85 e0 7f fe ff 	mov    -0x18020(%rbp),%rax
    c822:	48 8b 94 c5 f0 ff fe 	mov    -0x10010(%rbp,%rax,8),%rdx
    c829:	ff 
    c82a:	8b 85 cc 7f fe ff    	mov    -0x18034(%rbp),%eax
    c830:	48 89 94 c5 f0 7f ff 	mov    %rdx,-0x8010(%rbp,%rax,8)
    c837:	ff 
    c838:	48 8b 85 e8 7f fe ff 	mov    -0x18018(%rbp),%rax
    c83f:	48 8b 50 08          	mov    0x8(%rax),%rdx
    c843:	8b 85 cc 7f fe ff    	mov    -0x18034(%rbp),%eax
    c849:	48 c1 e0 03          	shl    $0x3,%rax
    c84d:	48 01 c2             	add    %rax,%rdx
    c850:	8b 85 cc 7f fe ff    	mov    -0x18034(%rbp),%eax
    c856:	48 8b 84 c5 f0 7f ff 	mov    -0x8010(%rbp,%rax,8),%rax
    c85d:	ff 
    c85e:	48 89 02             	mov    %rax,(%rdx)
    c861:	eb 2b                	jmp    c88e <_Z11init_magicsILi3EEvv+0x277>
    c863:	8b 85 cc 7f fe ff    	mov    -0x18034(%rbp),%eax
    c869:	48 8b 94 c5 f0 7f ff 	mov    -0x8010(%rbp,%rax,8),%rdx
    c870:	ff 
    c871:	48 8b 85 e0 7f fe ff 	mov    -0x18020(%rbp),%rax
    c878:	48 8b 84 c5 f0 ff fe 	mov    -0x10010(%rbp,%rax,8),%rax
    c87f:	ff 
    c880:	48 39 c2             	cmp    %rax,%rdx
    c883:	74 09                	je     c88e <_Z11init_magicsILi3EEvv+0x277>
    c885:	c6 85 c7 7f fe ff 00 	movb   $0x0,-0x18039(%rbp)
    c88c:	eb 1b                	jmp    c8a9 <_Z11init_magicsILi3EEvv+0x292>
    c88e:	48 ff 85 e0 7f fe ff 	incq   -0x18020(%rbp)
    c895:	48 8b 85 e0 7f fe ff 	mov    -0x18020(%rbp),%rax
    c89c:	48 3b 85 d8 7f fe ff 	cmp    -0x18028(%rbp),%rax
    c8a3:	0f 82 38 ff ff ff    	jb     c7e1 <_Z11init_magicsILi3EEvv+0x1ca>
    c8a9:	0f b6 85 c7 7f fe ff 	movzbl -0x18039(%rbp),%eax
    c8b0:	83 f0 01             	xor    $0x1,%eax
    c8b3:	84 c0                	test   %al,%al
    c8b5:	0f 85 e6 fe ff ff    	jne    c7a1 <_Z11init_magicsILi3EEvv+0x18a>
    c8bb:	48 8d 05 5c dc ff ff 	lea    -0x23a4(%rip),%rax        # a51e <_ZSt3hexRSt8ios_base>
    c8c2:	48 89 c6             	mov    %rax,%rsi
    c8c5:	48 8d 05 74 bd 00 00 	lea    0xbd74(%rip),%rax        # 18640 <_ZSt4cout@GLIBCXX_3.4>
    c8cc:	48 89 c7             	mov    %rax,%rdi
    c8cf:	e8 ac 67 ff ff       	call   3080 <_ZNSolsEPFRSt8ios_baseS0_E@plt>
    c8d4:	48 89 c2             	mov    %rax,%rdx
    c8d7:	48 8b 85 e8 7f fe ff 	mov    -0x18018(%rbp),%rax
    c8de:	48 8b 40 10          	mov    0x10(%rax),%rax
    c8e2:	48 89 c6             	mov    %rax,%rsi
    c8e5:	48 89 d7             	mov    %rdx,%rdi
    c8e8:	e8 83 67 ff ff       	call   3070 <_ZNSolsEm@plt>
    c8ed:	48 89 c2             	mov    %rax,%rdx
    c8f0:	48 8d 05 ff db ff ff 	lea    -0x2401(%rip),%rax        # a4f6 <_ZSt3decRSt8ios_base>
    c8f7:	48 89 c6             	mov    %rax,%rsi
    c8fa:	48 89 d7             	mov    %rdx,%rdi
    c8fd:	e8 7e 67 ff ff       	call   3080 <_ZNSolsEPFRSt8ios_baseS0_E@plt>
    c902:	48 89 c2             	mov    %rax,%rdx
    c905:	48 8d 05 58 57 00 00 	lea    0x5758(%rip),%rax        # 12064 <_ZL9BORDER_SQ+0x44>
    c90c:	48 89 c6             	mov    %rax,%rsi
    c90f:	48 89 d7             	mov    %rdx,%rdi
    c912:	e8 09 69 ff ff       	call   3220 <_ZStlsISt11char_traitsIcEERSt13basic_ostreamIcT_ES5_PKc@plt>
    c917:	48 8b 15 92 b6 00 00 	mov    0xb692(%rip),%rdx        # 17fb0 <_ZSt4endlIcSt11char_traitsIcEERSt13basic_ostreamIT_T0_ES6_@GLIBCXX_3.4>
    c91e:	48 89 d6             	mov    %rdx,%rsi
    c921:	48 89 c7             	mov    %rax,%rdi
    c924:	e8 27 69 ff ff       	call   3250 <_ZNSolsEPFRSoS_E@plt>
    c929:	ff 85 c8 7f fe ff    	incl   -0x18038(%rbp)
    c92f:	83 bd c8 7f fe ff 3f 	cmpl   $0x3f,-0x18038(%rbp)
    c936:	0f 8e 1a fd ff ff    	jle    c656 <_Z11init_magicsILi3EEvv+0x3f>
    c93c:	48 8b 05 6d b6 00 00 	mov    0xb66d(%rip),%rax        # 17fb0 <_ZSt4endlIcSt11char_traitsIcEERSt13basic_ostreamIT_T0_ES6_@GLIBCXX_3.4>
    c943:	48 89 c6             	mov    %rax,%rsi
    c946:	48 8d 05 f3 bc 00 00 	lea    0xbcf3(%rip),%rax        # 18640 <_ZSt4cout@GLIBCXX_3.4>
    c94d:	48 89 c7             	mov    %rax,%rdi
    c950:	e8 fb 68 ff ff       	call   3250 <_ZNSolsEPFRSoS_E@plt>
    c955:	90                   	nop
    c956:	48 8b 45 f8          	mov    -0x8(%rbp),%rax
    c95a:	64 48 2b 04 25 28 00 	sub    %fs:0x28,%rax
    c961:	00 00 
    c963:	74 05                	je     c96a <_Z11init_magicsILi3EEvv+0x353>
    c965:	e8 36 69 ff ff       	call   32a0 <__stack_chk_fail@plt>
    c96a:	c9                   	leave
    c96b:	c3                   	ret

000000000000c96c <_Z11init_magicsILi4EEvv>:
    c96c:	55                   	push   %rbp
    c96d:	48 89 e5             	mov    %rsp,%rbp
    c970:	48 81 ec 40 80 01 00 	sub    $0x18040,%rsp
    c977:	64 48 8b 04 25 28 00 	mov    %fs:0x28,%rax
    c97e:	00 00 
    c980:	48 89 45 f8          	mov    %rax,-0x8(%rbp)
    c984:	31 c0                	xor    %eax,%eax
    c986:	48 c7 85 d0 7f fe ff 	movq   $0x0,-0x18030(%rbp)
    c98d:	00 00 00 00 
    c991:	48 c7 85 d8 7f fe ff 	movq   $0x0,-0x18028(%rbp)
    c998:	00 00 00 00 
    c99c:	c7 85 c8 7f fe ff 00 	movl   $0x0,-0x18038(%rbp)
    c9a3:	00 00 00 
    c9a6:	e9 d9 02 00 00       	jmp    cc84 <_Z11init_magicsILi4EEvv+0x318>
    c9ab:	8b 85 c8 7f fe ff    	mov    -0x18038(%rbp),%eax
    c9b1:	48 98                	cltq
    c9b3:	48 c1 e0 05          	shl    $0x5,%rax
    c9b7:	48 89 c2             	mov    %rax,%rdx
    c9ba:	48 8d 05 bf f6 0d 00 	lea    0xdf6bf(%rip),%rax        # ec080 <rook_magics>
    c9c1:	48 01 d0             	add    %rdx,%rax
    c9c4:	48 89 85 e8 7f fe ff 	mov    %rax,-0x18018(%rbp)
    c9cb:	8b 85 c8 7f fe ff    	mov    -0x18038(%rbp),%eax
    c9d1:	48 98                	cltq
    c9d3:	48 8d 14 c5 00 00 00 	lea    0x0(,%rax,8),%rdx
    c9da:	00 
    c9db:	48 8d 05 9e c8 00 00 	lea    0xc89e(%rip),%rax        # 19280 <rook_occupancies>
    c9e2:	48 01 d0             	add    %rdx,%rax
    c9e5:	48 8b 10             	mov    (%rax),%rdx
    c9e8:	48 8b 85 e8 7f fe ff 	mov    -0x18018(%rbp),%rax
    c9ef:	48 89 10             	mov    %rdx,(%rax)
    c9f2:	48 8b 85 e8 7f fe ff 	mov    -0x18018(%rbp),%rax
    c9f9:	48 8b 00             	mov    (%rax),%rax
    c9fc:	f3 48 0f b8 c0       	popcnt %rax,%rax
    ca01:	89 c2                	mov    %eax,%edx
    ca03:	b8 40 00 00 00       	mov    $0x40,%eax
    ca08:	29 d0                	sub    %edx,%eax
    ca0a:	89 c2                	mov    %eax,%edx
    ca0c:	48 8b 85 e8 7f fe ff 	mov    -0x18018(%rbp),%rax
    ca13:	89 50 18             	mov    %edx,0x18(%rax)
    ca16:	83 bd c8 7f fe ff 00 	cmpl   $0x0,-0x18038(%rbp)
    ca1d:	74 2e                	je     ca4d <_Z11init_magicsILi4EEvv+0xe1>
    ca1f:	8b 85 c8 7f fe ff    	mov    -0x18038(%rbp),%eax
    ca25:	48 98                	cltq
    ca27:	48 c1 e0 05          	shl    $0x5,%rax
    ca2b:	48 8d 50 e0          	lea    -0x20(%rax),%rdx
    ca2f:	48 8d 05 4a f6 0d 00 	lea    0xdf64a(%rip),%rax        # ec080 <rook_magics>
    ca36:	48 01 d0             	add    %rdx,%rax
    ca39:	48 8b 50 08          	mov    0x8(%rax),%rdx
    ca3d:	48 8b 85 d8 7f fe ff 	mov    -0x18028(%rbp),%rax
    ca44:	48 c1 e0 03          	shl    $0x3,%rax
    ca48:	48 01 d0             	add    %rdx,%rax
    ca4b:	eb 07                	jmp    ca54 <_Z11init_magicsILi4EEvv+0xe8>
    ca4d:	48 8d 05 2c 6e 01 00 	lea    0x16e2c(%rip),%rax        # 23880 <rook_attacks>
    ca54:	48 8b 95 e8 7f fe ff 	mov    -0x18018(%rbp),%rdx
    ca5b:	48 89 42 08          	mov    %rax,0x8(%rdx)
    ca5f:	48 c7 85 d0 7f fe ff 	movq   $0x0,-0x18030(%rbp)
    ca66:	00 00 00 00 
    ca6a:	48 c7 85 d8 7f fe ff 	movq   $0x0,-0x18028(%rbp)
    ca71:	00 00 00 00 
    ca75:	48 8b 85 d8 7f fe ff 	mov    -0x18028(%rbp),%rax
    ca7c:	48 8b 95 d0 7f fe ff 	mov    -0x18030(%rbp),%rdx
    ca83:	48 89 94 c5 f0 7f fe 	mov    %rdx,-0x18010(%rbp,%rax,8)
    ca8a:	ff 
    ca8b:	48 8b 95 d0 7f fe ff 	mov    -0x18030(%rbp),%rdx
    ca92:	8b 85 c8 7f fe ff    	mov    -0x18038(%rbp),%eax
    ca98:	48 89 d6             	mov    %rdx,%rsi
    ca9b:	89 c7                	mov    %eax,%edi
    ca9d:	e8 36 73 ff ff       	call   3dd8 <_Z16generate_attacksILi4EEmim>
    caa2:	48 8b 95 d8 7f fe ff 	mov    -0x18028(%rbp),%rdx
    caa9:	48 89 84 d5 f0 ff fe 	mov    %rax,-0x10010(%rbp,%rdx,8)
    cab0:	ff 
    cab1:	48 8b 85 e8 7f fe ff 	mov    -0x18018(%rbp),%rax
    cab8:	48 8b 00             	mov    (%rax),%rax
    cabb:	48 8b 95 d0 7f fe ff 	mov    -0x18030(%rbp),%rdx
    cac2:	48 29 c2             	sub    %rax,%rdx
    cac5:	48 8b 85 e8 7f fe ff 	mov    -0x18018(%rbp),%rax
    cacc:	48 8b 00             	mov    (%rax),%rax
    cacf:	48 21 d0             	and    %rdx,%rax
    cad2:	48 89 85 d0 7f fe ff 	mov    %rax,-0x18030(%rbp)
    cad9:	48 ff 85 d8 7f fe ff 	incq   -0x18028(%rbp)
    cae0:	48 83 bd d0 7f fe ff 	cmpq   $0x0,-0x18030(%rbp)
    cae7:	00 
    cae8:	75 8b                	jne    ca75 <_Z11init_magicsILi4EEvv+0x109>
    caea:	c6 85 c7 7f fe ff 00 	movb   $0x0,-0x18039(%rbp)
    caf1:	e9 08 01 00 00       	jmp    cbfe <_Z11init_magicsILi4EEvv+0x292>
    caf6:	e8 c3 fa ff ff       	call   c5be <_Z13sparse_uint64v>
    cafb:	48 8b 95 e8 7f fe ff 	mov    -0x18018(%rbp),%rdx
    cb02:	48 89 42 10          	mov    %rax,0x10(%rdx)
    cb06:	c6 85 c7 7f fe ff 01 	movb   $0x1,-0x18039(%rbp)
    cb0d:	48 8d 85 f0 7f ff ff 	lea    -0x8010(%rbp),%rax
    cb14:	ba 00 80 00 00       	mov    $0x8000,%edx
    cb19:	be 00 00 00 00       	mov    $0x0,%esi
    cb1e:	48 89 c7             	mov    %rax,%rdi
    cb21:	e8 ea 65 ff ff       	call   3110 <memset@plt>
    cb26:	48 c7 85 e0 7f fe ff 	movq   $0x0,-0x18020(%rbp)
    cb2d:	00 00 00 00 
    cb31:	e9 b4 00 00 00       	jmp    cbea <_Z11init_magicsILi4EEvv+0x27e>
    cb36:	48 8b 85 e0 7f fe ff 	mov    -0x18020(%rbp),%rax
    cb3d:	48 8b 94 c5 f0 7f fe 	mov    -0x18010(%rbp,%rax,8),%rdx
    cb44:	ff 
    cb45:	48 8b 85 e8 7f fe ff 	mov    -0x18018(%rbp),%rax
    cb4c:	48 89 d6             	mov    %rdx,%rsi
    cb4f:	48 89 c7             	mov    %rax,%rdi
    cb52:	e8 8f fa ff ff       	call   c5e6 <_ZN7magic_t3keyEm>
    cb57:	89 85 cc 7f fe ff    	mov    %eax,-0x18034(%rbp)
    cb5d:	8b 85 cc 7f fe ff    	mov    -0x18034(%rbp),%eax
    cb63:	48 8b 84 c5 f0 7f ff 	mov    -0x8010(%rbp,%rax,8),%rax
    cb6a:	ff 
    cb6b:	48 85 c0             	test   %rax,%rax
    cb6e:	75 48                	jne    cbb8 <_Z11init_magicsILi4EEvv+0x24c>
    cb70:	48 8b 85 e0 7f fe ff 	mov    -0x18020(%rbp),%rax
    cb77:	48 8b 94 c5 f0 ff fe 	mov    -0x10010(%rbp,%rax,8),%rdx
    cb7e:	ff 
    cb7f:	8b 85 cc 7f fe ff    	mov    -0x18034(%rbp),%eax
    cb85:	48 89 94 c5 f0 7f ff 	mov    %rdx,-0x8010(%rbp,%rax,8)
    cb8c:	ff 
    cb8d:	48 8b 85 e8 7f fe ff 	mov    -0x18018(%rbp),%rax
    cb94:	48 8b 50 08          	mov    0x8(%rax),%rdx
    cb98:	8b 85 cc 7f fe ff    	mov    -0x18034(%rbp),%eax
    cb9e:	48 c1 e0 03          	shl    $0x3,%rax
    cba2:	48 01 c2             	add    %rax,%rdx
    cba5:	8b 85 cc 7f fe ff    	mov    -0x18034(%rbp),%eax
    cbab:	48 8b 84 c5 f0 7f ff 	mov    -0x8010(%rbp,%rax,8),%rax
    cbb2:	ff 
    cbb3:	48 89 02             	mov    %rax,(%rdx)
    cbb6:	eb 2b                	jmp    cbe3 <_Z11init_magicsILi4EEvv+0x277>
    cbb8:	8b 85 cc 7f fe ff    	mov    -0x18034(%rbp),%eax
    cbbe:	48 8b 94 c5 f0 7f ff 	mov    -0x8010(%rbp,%rax,8),%rdx
    cbc5:	ff 
    cbc6:	48 8b 85 e0 7f fe ff 	mov    -0x18020(%rbp),%rax
    cbcd:	48 8b 84 c5 f0 ff fe 	mov    -0x10010(%rbp,%rax,8),%rax
    cbd4:	ff 
    cbd5:	48 39 c2             	cmp    %rax,%rdx
    cbd8:	74 09                	je     cbe3 <_Z11init_magicsILi4EEvv+0x277>
    cbda:	c6 85 c7 7f fe ff 00 	movb   $0x0,-0x18039(%rbp)
    cbe1:	eb 1b                	jmp    cbfe <_Z11init_magicsILi4EEvv+0x292>
    cbe3:	48 ff 85 e0 7f fe ff 	incq   -0x18020(%rbp)
    cbea:	48 8b 85 e0 7f fe ff 	mov    -0x18020(%rbp),%rax
    cbf1:	48 3b 85 d8 7f fe ff 	cmp    -0x18028(%rbp),%rax
    cbf8:	0f 82 38 ff ff ff    	jb     cb36 <_Z11init_magicsILi4EEvv+0x1ca>
    cbfe:	0f b6 85 c7 7f fe ff 	movzbl -0x18039(%rbp),%eax
    cc05:	83 f0 01             	xor    $0x1,%eax
    cc08:	84 c0                	test   %al,%al
    cc0a:	0f 85 e6 fe ff ff    	jne    caf6 <_Z11init_magicsILi4EEvv+0x18a>
    cc10:	48 8d 05 07 d9 ff ff 	lea    -0x26f9(%rip),%rax        # a51e <_ZSt3hexRSt8ios_base>
    cc17:	48 89 c6             	mov    %rax,%rsi
    cc1a:	48 8d 05 1f ba 00 00 	lea    0xba1f(%rip),%rax        # 18640 <_ZSt4cout@GLIBCXX_3.4>
    cc21:	48 89 c7             	mov    %rax,%rdi
    cc24:	e8 57 64 ff ff       	call   3080 <_ZNSolsEPFRSt8ios_baseS0_E@plt>
    cc29:	48 89 c2             	mov    %rax,%rdx
    cc2c:	48 8b 85 e8 7f fe ff 	mov    -0x18018(%rbp),%rax
    cc33:	48 8b 40 10          	mov    0x10(%rax),%rax
    cc37:	48 89 c6             	mov    %rax,%rsi
    cc3a:	48 89 d7             	mov    %rdx,%rdi
    cc3d:	e8 2e 64 ff ff       	call   3070 <_ZNSolsEm@plt>
    cc42:	48 89 c2             	mov    %rax,%rdx
    cc45:	48 8d 05 aa d8 ff ff 	lea    -0x2756(%rip),%rax        # a4f6 <_ZSt3decRSt8ios_base>
    cc4c:	48 89 c6             	mov    %rax,%rsi
    cc4f:	48 89 d7             	mov    %rdx,%rdi
    cc52:	e8 29 64 ff ff       	call   3080 <_ZNSolsEPFRSt8ios_baseS0_E@plt>
    cc57:	48 89 c2             	mov    %rax,%rdx
    cc5a:	48 8d 05 03 54 00 00 	lea    0x5403(%rip),%rax        # 12064 <_ZL9BORDER_SQ+0x44>
    cc61:	48 89 c6             	mov    %rax,%rsi
    cc64:	48 89 d7             	mov    %rdx,%rdi
    cc67:	e8 b4 65 ff ff       	call   3220 <_ZStlsISt11char_traitsIcEERSt13basic_ostreamIcT_ES5_PKc@plt>
    cc6c:	48 8b 15 3d b3 00 00 	mov    0xb33d(%rip),%rdx        # 17fb0 <_ZSt4endlIcSt11char_traitsIcEERSt13basic_ostreamIT_T0_ES6_@GLIBCXX_3.4>
    cc73:	48 89 d6             	mov    %rdx,%rsi
    cc76:	48 89 c7             	mov    %rax,%rdi
    cc79:	e8 d2 65 ff ff       	call   3250 <_ZNSolsEPFRSoS_E@plt>
    cc7e:	ff 85 c8 7f fe ff    	incl   -0x18038(%rbp)
    cc84:	83 bd c8 7f fe ff 3f 	cmpl   $0x3f,-0x18038(%rbp)
    cc8b:	0f 8e 1a fd ff ff    	jle    c9ab <_Z11init_magicsILi4EEvv+0x3f>
    cc91:	48 8b 05 18 b3 00 00 	mov    0xb318(%rip),%rax        # 17fb0 <_ZSt4endlIcSt11char_traitsIcEERSt13basic_ostreamIT_T0_ES6_@GLIBCXX_3.4>
    cc98:	48 89 c6             	mov    %rax,%rsi
    cc9b:	48 8d 05 9e b9 00 00 	lea    0xb99e(%rip),%rax        # 18640 <_ZSt4cout@GLIBCXX_3.4>
    cca2:	48 89 c7             	mov    %rax,%rdi
    cca5:	e8 a6 65 ff ff       	call   3250 <_ZNSolsEPFRSoS_E@plt>
    ccaa:	90                   	nop
    ccab:	48 8b 45 f8          	mov    -0x8(%rbp),%rax
    ccaf:	64 48 2b 04 25 28 00 	sub    %fs:0x28,%rax
    ccb6:	00 00 
    ccb8:	74 05                	je     ccbf <_Z11init_magicsILi4EEvv+0x353>
    ccba:	e8 e1 65 ff ff       	call   32a0 <__stack_chk_fail@plt>
    ccbf:	c9                   	leave
    ccc0:	c3                   	ret

000000000000ccc1 <_Z19generate_promotionsP7board_tP10movelist_t>:
    ccc1:	55                   	push   %rbp
    ccc2:	48 89 e5             	mov    %rsp,%rbp
    ccc5:	53                   	push   %rbx
    ccc6:	48 83 ec 78          	sub    $0x78,%rsp
    ccca:	48 89 7d 88          	mov    %rdi,-0x78(%rbp)
    ccce:	48 89 75 80          	mov    %rsi,-0x80(%rbp)
    ccd2:	64 48 8b 04 25 28 00 	mov    %fs:0x28,%rax
    ccd9:	00 00 
    ccdb:	48 89 45 e8          	mov    %rax,-0x18(%rbp)
    ccdf:	31 c0                	xor    %eax,%eax
    cce1:	48 8b 45 88          	mov    -0x78(%rbp),%rax
    cce5:	48 05 88 01 00 00    	add    $0x188,%rax
    cceb:	48 89 45 c0          	mov    %rax,-0x40(%rbp)
    ccef:	48 8b 45 c0          	mov    -0x40(%rbp),%rax
    ccf3:	8b 00                	mov    (%rax),%eax
    ccf5:	85 c0                	test   %eax,%eax
    ccf7:	74 07                	je     cd00 <_Z19generate_promotionsP7board_tP10movelist_t+0x3f>
    ccf9:	b8 01 00 00 00       	mov    $0x1,%eax
    ccfe:	eb 05                	jmp    cd05 <_Z19generate_promotionsP7board_tP10movelist_t+0x44>
    cd00:	b8 09 00 00 00       	mov    $0x9,%eax
    cd05:	48 8b 55 88          	mov    -0x78(%rbp),%rdx
    cd09:	48 98                	cltq
    cd0b:	48 8b 1c c2          	mov    (%rdx,%rax,8),%rbx
    cd0f:	48 8b 45 c0          	mov    -0x40(%rbp),%rax
    cd13:	8b 00                	mov    (%rax),%eax
    cd15:	89 c7                	mov    %eax,%edi
    cd17:	e8 79 14 00 00       	call   e195 <_Z9PROMOTINGi>
    cd1c:	48 21 d8             	and    %rbx,%rax
    cd1f:	48 89 45 c8          	mov    %rax,-0x38(%rbp)
    cd23:	48 8b 45 c0          	mov    -0x40(%rbp),%rax
    cd27:	8b 00                	mov    (%rax),%eax
    cd29:	83 f0 01             	xor    $0x1,%eax
    cd2c:	89 c2                	mov    %eax,%edx
    cd2e:	48 8b 45 88          	mov    -0x78(%rbp),%rax
    cd32:	48 63 d2             	movslq %edx,%rdx
    cd35:	48 83 c2 2c          	add    $0x2c,%rdx
    cd39:	48 8b 44 d0 18       	mov    0x18(%rax,%rdx,8),%rax
    cd3e:	48 89 45 d0          	mov    %rax,-0x30(%rbp)
    cd42:	48 8b 45 c8          	mov    -0x38(%rbp),%rax
    cd46:	48 89 45 b0          	mov    %rax,-0x50(%rbp)
    cd4a:	48 c7 45 b8 00 00 00 	movq   $0x0,-0x48(%rbp)
    cd51:	00 
    cd52:	e9 d9 00 00 00       	jmp    ce30 <_Z19generate_promotionsP7board_tP10movelist_t+0x16f>
    cd57:	48 8b 45 c0          	mov    -0x40(%rbp),%rax
    cd5b:	8b 00                	mov    (%rax),%eax
    cd5d:	85 c0                	test   %eax,%eax
    cd5f:	74 0e                	je     cd6f <_Z19generate_promotionsP7board_tP10movelist_t+0xae>
    cd61:	48 8b 45 b0          	mov    -0x50(%rbp),%rax
    cd65:	48 89 c7             	mov    %rax,%rdi
    cd68:	e8 c6 74 ff ff       	call   4233 <_Z8ne_shiftm>
    cd6d:	eb 0c                	jmp    cd7b <_Z19generate_promotionsP7board_tP10movelist_t+0xba>
    cd6f:	48 8b 45 b0          	mov    -0x50(%rbp),%rax
    cd73:	48 89 c7             	mov    %rax,%rdi
    cd76:	e8 da 74 ff ff       	call   4255 <_Z8se_shiftm>
    cd7b:	48 89 45 b8          	mov    %rax,-0x48(%rbp)
    cd7f:	48 8b 45 c0          	mov    -0x40(%rbp),%rax
    cd83:	8b 00                	mov    (%rax),%eax
    cd85:	85 c0                	test   %eax,%eax
    cd87:	74 0e                	je     cd97 <_Z19generate_promotionsP7board_tP10movelist_t+0xd6>
    cd89:	48 8b 45 b0          	mov    -0x50(%rbp),%rax
    cd8d:	48 89 c7             	mov    %rax,%rdi
    cd90:	e8 04 75 ff ff       	call   4299 <_Z8nw_shiftm>
    cd95:	eb 0c                	jmp    cda3 <_Z19generate_promotionsP7board_tP10movelist_t+0xe2>
    cd97:	48 8b 45 b0          	mov    -0x50(%rbp),%rax
    cd9b:	48 89 c7             	mov    %rax,%rdi
    cd9e:	e8 d4 74 ff ff       	call   4277 <_Z8sw_shiftm>
    cda3:	48 8b 55 b8          	mov    -0x48(%rbp),%rdx
    cda7:	48 09 d0             	or     %rdx,%rax
    cdaa:	48 89 45 b8          	mov    %rax,-0x48(%rbp)
    cdae:	48 8b 45 b8          	mov    -0x48(%rbp),%rax
    cdb2:	48 23 45 d0          	and    -0x30(%rbp),%rax
    cdb6:	48 89 45 b8          	mov    %rax,-0x48(%rbp)
    cdba:	48 8d 45 b0          	lea    -0x50(%rbp),%rax
    cdbe:	48 89 c7             	mov    %rax,%rdi
    cdc1:	e8 51 93 ff ff       	call   6117 <_Z16bit_drop_forwardRm>
    cdc6:	89 45 a8             	mov    %eax,-0x58(%rbp)
    cdc9:	eb 5c                	jmp    ce27 <_Z19generate_promotionsP7board_tP10movelist_t+0x166>
    cdcb:	48 8d 45 b8          	lea    -0x48(%rbp),%rax
    cdcf:	48 89 c7             	mov    %rax,%rdi
    cdd2:	e8 40 93 ff ff       	call   6117 <_Z16bit_drop_forwardRm>
    cdd7:	89 45 ac             	mov    %eax,-0x54(%rbp)
    cdda:	c7 45 a0 03 00 00 00 	movl   $0x3,-0x60(%rbp)
    cde1:	eb 3e                	jmp    ce21 <_Z19generate_promotionsP7board_tP10movelist_t+0x160>
    cde3:	48 8b 55 80          	mov    -0x80(%rbp),%rdx
    cde7:	8b 45 a0             	mov    -0x60(%rbp),%eax
    cdea:	c1 e0 0c             	shl    $0xc,%eax
    cded:	25 00 b0 00 00       	and    $0xb000,%eax
    cdf2:	80 cc 40             	or     $0x40,%ah
    cdf5:	89 c1                	mov    %eax,%ecx
    cdf7:	8b 45 a8             	mov    -0x58(%rbp),%eax
    cdfa:	c1 e0 06             	shl    $0x6,%eax
    cdfd:	25 c0 0f 00 00       	and    $0xfc0,%eax
    ce02:	09 c1                	or     %eax,%ecx
    ce04:	8b 45 ac             	mov    -0x54(%rbp),%eax
    ce07:	83 e0 3f             	and    $0x3f,%eax
    ce0a:	09 c8                	or     %ecx,%eax
    ce0c:	89 45 9c             	mov    %eax,-0x64(%rbp)
    ce0f:	48 8d 45 9c          	lea    -0x64(%rbp),%rax
    ce13:	48 89 c6             	mov    %rax,%rsi
    ce16:	48 89 d7             	mov    %rdx,%rdi
    ce19:	e8 fe 0f 00 00       	call   de1c <_ZN10movelist_t9push_backERKj>
    ce1e:	ff 4d a0             	decl   -0x60(%rbp)
    ce21:	83 7d a0 07          	cmpl   $0x7,-0x60(%rbp)
    ce25:	7f bc                	jg     cde3 <_Z19generate_promotionsP7board_tP10movelist_t+0x122>
    ce27:	48 8b 45 b8          	mov    -0x48(%rbp),%rax
    ce2b:	48 85 c0             	test   %rax,%rax
    ce2e:	75 9b                	jne    cdcb <_Z19generate_promotionsP7board_tP10movelist_t+0x10a>
    ce30:	48 8b 45 b0          	mov    -0x50(%rbp),%rax
    ce34:	48 85 c0             	test   %rax,%rax
    ce37:	0f 85 1a ff ff ff    	jne    cd57 <_Z19generate_promotionsP7board_tP10movelist_t+0x96>
    ce3d:	48 8b 45 88          	mov    -0x78(%rbp),%rax
    ce41:	48 89 c7             	mov    %rax,%rdi
    ce44:	e8 a2 13 00 00       	call   e1eb <_Z10all_piecesPK7board_t>
    ce49:	48 f7 d0             	not    %rax
    ce4c:	48 89 45 d8          	mov    %rax,-0x28(%rbp)
    ce50:	48 c7 45 e0 00 00 00 	movq   $0x0,-0x20(%rbp)
    ce57:	00 
    ce58:	48 8b 45 c8          	mov    -0x38(%rbp),%rax
    ce5c:	48 89 45 b0          	mov    %rax,-0x50(%rbp)
    ce60:	e9 9e 00 00 00       	jmp    cf03 <_Z19generate_promotionsP7board_tP10movelist_t+0x242>
    ce65:	48 8b 45 c0          	mov    -0x40(%rbp),%rax
    ce69:	8b 00                	mov    (%rax),%eax
    ce6b:	85 c0                	test   %eax,%eax
    ce6d:	74 0e                	je     ce7d <_Z19generate_promotionsP7board_tP10movelist_t+0x1bc>
    ce6f:	48 8b 45 b0          	mov    -0x50(%rbp),%rax
    ce73:	48 89 c7             	mov    %rax,%rdi
    ce76:	e8 54 73 ff ff       	call   41cf <_Z7n_shiftm>
    ce7b:	eb 0c                	jmp    ce89 <_Z19generate_promotionsP7board_tP10movelist_t+0x1c8>
    ce7d:	48 8b 45 b0          	mov    -0x50(%rbp),%rax
    ce81:	48 89 c7             	mov    %rax,%rdi
    ce84:	e8 58 73 ff ff       	call   41e1 <_Z7s_shiftm>
    ce89:	48 89 45 e0          	mov    %rax,-0x20(%rbp)
    ce8d:	48 8b 45 d8          	mov    -0x28(%rbp),%rax
    ce91:	48 21 45 e0          	and    %rax,-0x20(%rbp)
    ce95:	48 8d 45 b0          	lea    -0x50(%rbp),%rax
    ce99:	48 89 c7             	mov    %rax,%rdi
    ce9c:	e8 76 92 ff ff       	call   6117 <_Z16bit_drop_forwardRm>
    cea1:	89 45 a8             	mov    %eax,-0x58(%rbp)
    cea4:	eb 56                	jmp    cefc <_Z19generate_promotionsP7board_tP10movelist_t+0x23b>
    cea6:	48 8d 45 b0          	lea    -0x50(%rbp),%rax
    ceaa:	48 89 c7             	mov    %rax,%rdi
    cead:	e8 65 92 ff ff       	call   6117 <_Z16bit_drop_forwardRm>
    ceb2:	89 45 ac             	mov    %eax,-0x54(%rbp)
    ceb5:	c7 45 a4 03 00 00 00 	movl   $0x3,-0x5c(%rbp)
    cebc:	eb 38                	jmp    cef6 <_Z19generate_promotionsP7board_tP10movelist_t+0x235>
    cebe:	48 8b 55 80          	mov    -0x80(%rbp),%rdx
    cec2:	8b 45 a4             	mov    -0x5c(%rbp),%eax
    cec5:	c1 e0 0c             	shl    $0xc,%eax
    cec8:	0f b7 c0             	movzwl %ax,%eax
    cecb:	8b 4d a8             	mov    -0x58(%rbp),%ecx
    cece:	c1 e1 06             	shl    $0x6,%ecx
    ced1:	81 e1 c0 0f 00 00    	and    $0xfc0,%ecx
    ced7:	09 c1                	or     %eax,%ecx
    ced9:	8b 45 ac             	mov    -0x54(%rbp),%eax
    cedc:	83 e0 3f             	and    $0x3f,%eax
    cedf:	09 c8                	or     %ecx,%eax
    cee1:	89 45 9c             	mov    %eax,-0x64(%rbp)
    cee4:	48 8d 45 9c          	lea    -0x64(%rbp),%rax
    cee8:	48 89 c6             	mov    %rax,%rsi
    ceeb:	48 89 d7             	mov    %rdx,%rdi
    ceee:	e8 29 0f 00 00       	call   de1c <_ZN10movelist_t9push_backERKj>
    cef3:	ff 4d a4             	decl   -0x5c(%rbp)
    cef6:	83 7d a4 07          	cmpl   $0x7,-0x5c(%rbp)
    cefa:	7f c2                	jg     cebe <_Z19generate_promotionsP7board_tP10movelist_t+0x1fd>
    cefc:	48 83 7d e0 00       	cmpq   $0x0,-0x20(%rbp)
    cf01:	75 a3                	jne    cea6 <_Z19generate_promotionsP7board_tP10movelist_t+0x1e5>
    cf03:	48 8b 45 b0          	mov    -0x50(%rbp),%rax
    cf07:	48 85 c0             	test   %rax,%rax
    cf0a:	0f 85 55 ff ff ff    	jne    ce65 <_Z19generate_promotionsP7board_tP10movelist_t+0x1a4>
    cf10:	90                   	nop
    cf11:	48 8b 45 e8          	mov    -0x18(%rbp),%rax
    cf15:	64 48 2b 04 25 28 00 	sub    %fs:0x28,%rax
    cf1c:	00 00 
    cf1e:	74 05                	je     cf25 <_Z19generate_promotionsP7board_tP10movelist_t+0x264>
    cf20:	e8 7b 63 ff ff       	call   32a0 <__stack_chk_fail@plt>
    cf25:	48 8b 5d f8          	mov    -0x8(%rbp),%rbx
    cf29:	c9                   	leave
    cf2a:	c3                   	ret

000000000000cf2b <_Z16generate_castlesP7board_tP10movelist_t>:
    cf2b:	55                   	push   %rbp
    cf2c:	48 89 e5             	mov    %rsp,%rbp
    cf2f:	48 83 ec 30          	sub    $0x30,%rsp
    cf33:	48 89 7d d8          	mov    %rdi,-0x28(%rbp)
    cf37:	48 89 75 d0          	mov    %rsi,-0x30(%rbp)
    cf3b:	64 48 8b 04 25 28 00 	mov    %fs:0x28,%rax
    cf42:	00 00 
    cf44:	48 89 45 f8          	mov    %rax,-0x8(%rbp)
    cf48:	31 c0                	xor    %eax,%eax
    cf4a:	48 8b 45 d8          	mov    -0x28(%rbp),%rax
    cf4e:	48 05 88 01 00 00    	add    $0x188,%rax
    cf54:	48 89 45 e8          	mov    %rax,-0x18(%rbp)
    cf58:	48 8b 45 d8          	mov    -0x28(%rbp),%rax
    cf5c:	48 89 c7             	mov    %rax,%rdi
    cf5f:	e8 87 12 00 00       	call   e1eb <_Z10all_piecesPK7board_t>
    cf64:	48 89 45 f0          	mov    %rax,-0x10(%rbp)
    cf68:	48 8b 45 e8          	mov    -0x18(%rbp),%rax
    cf6c:	8b 00                	mov    (%rax),%eax
    cf6e:	83 f8 01             	cmp    $0x1,%eax
    cf71:	0f 85 03 01 00 00    	jne    d07a <_Z16generate_castlesP7board_tP10movelist_t+0x14f>
    cf77:	48 8b 45 d8          	mov    -0x28(%rbp),%rax
    cf7b:	8b 80 94 01 00 00    	mov    0x194(%rax),%eax
    cf81:	83 e0 01             	and    $0x1,%eax
    cf84:	85 c0                	test   %eax,%eax
    cf86:	74 49                	je     cfd1 <_Z16generate_castlesP7board_tP10movelist_t+0xa6>
    cf88:	48 8b 45 f0          	mov    -0x10(%rbp),%rax
    cf8c:	83 e0 60             	and    $0x60,%eax
    cf8f:	48 85 c0             	test   %rax,%rax
    cf92:	75 3d                	jne    cfd1 <_Z16generate_castlesP7board_tP10movelist_t+0xa6>
    cf94:	48 8b 45 d8          	mov    -0x28(%rbp),%rax
    cf98:	ba 00 00 00 00       	mov    $0x0,%edx
    cf9d:	be 04 00 00 00       	mov    $0x4,%esi
    cfa2:	48 89 c7             	mov    %rax,%rdi
    cfa5:	e8 87 07 00 00       	call   d731 <_Z11is_attackedP7board_tii>
    cfaa:	48 85 c0             	test   %rax,%rax
    cfad:	75 22                	jne    cfd1 <_Z16generate_castlesP7board_tP10movelist_t+0xa6>
    cfaf:	48 8b 45 d8          	mov    -0x28(%rbp),%rax
    cfb3:	ba 00 00 00 00       	mov    $0x0,%edx
    cfb8:	be 05 00 00 00       	mov    $0x5,%esi
    cfbd:	48 89 c7             	mov    %rax,%rdi
    cfc0:	e8 6c 07 00 00       	call   d731 <_Z11is_attackedP7board_tii>
    cfc5:	48 85 c0             	test   %rax,%rax
    cfc8:	75 07                	jne    cfd1 <_Z16generate_castlesP7board_tP10movelist_t+0xa6>
    cfca:	b8 01 00 00 00       	mov    $0x1,%eax
    cfcf:	eb 05                	jmp    cfd6 <_Z16generate_castlesP7board_tP10movelist_t+0xab>
    cfd1:	b8 00 00 00 00       	mov    $0x0,%eax
    cfd6:	84 c0                	test   %al,%al
    cfd8:	74 1a                	je     cff4 <_Z16generate_castlesP7board_tP10movelist_t+0xc9>
    cfda:	48 8b 55 d0          	mov    -0x30(%rbp),%rdx
    cfde:	c7 45 e4 06 21 00 00 	movl   $0x2106,-0x1c(%rbp)
    cfe5:	48 8d 45 e4          	lea    -0x1c(%rbp),%rax
    cfe9:	48 89 c6             	mov    %rax,%rsi
    cfec:	48 89 d7             	mov    %rdx,%rdi
    cfef:	e8 28 0e 00 00       	call   de1c <_ZN10movelist_t9push_backERKj>
    cff4:	48 8b 45 d8          	mov    -0x28(%rbp),%rax
    cff8:	8b 80 94 01 00 00    	mov    0x194(%rax),%eax
    cffe:	83 e0 02             	and    $0x2,%eax
    d001:	85 c0                	test   %eax,%eax
    d003:	74 49                	je     d04e <_Z16generate_castlesP7board_tP10movelist_t+0x123>
    d005:	48 8b 45 f0          	mov    -0x10(%rbp),%rax
    d009:	83 e0 0e             	and    $0xe,%eax
    d00c:	48 85 c0             	test   %rax,%rax
    d00f:	75 3d                	jne    d04e <_Z16generate_castlesP7board_tP10movelist_t+0x123>
    d011:	48 8b 45 d8          	mov    -0x28(%rbp),%rax
    d015:	ba 00 00 00 00       	mov    $0x0,%edx
    d01a:	be 02 00 00 00       	mov    $0x2,%esi
    d01f:	48 89 c7             	mov    %rax,%rdi
    d022:	e8 0a 07 00 00       	call   d731 <_Z11is_attackedP7board_tii>
    d027:	48 85 c0             	test   %rax,%rax
    d02a:	75 22                	jne    d04e <_Z16generate_castlesP7board_tP10movelist_t+0x123>
    d02c:	48 8b 45 d8          	mov    -0x28(%rbp),%rax
    d030:	ba 00 00 00 00       	mov    $0x0,%edx
    d035:	be 01 00 00 00       	mov    $0x1,%esi
    d03a:	48 89 c7             	mov    %rax,%rdi
    d03d:	e8 ef 06 00 00       	call   d731 <_Z11is_attackedP7board_tii>
    d042:	48 85 c0             	test   %rax,%rax
    d045:	75 07                	jne    d04e <_Z16generate_castlesP7board_tP10movelist_t+0x123>
    d047:	b8 01 00 00 00       	mov    $0x1,%eax
    d04c:	eb 05                	jmp    d053 <_Z16generate_castlesP7board_tP10movelist_t+0x128>
    d04e:	b8 00 00 00 00       	mov    $0x0,%eax
    d053:	84 c0                	test   %al,%al
    d055:	0f 84 27 01 00 00    	je     d182 <_Z16generate_castlesP7board_tP10movelist_t+0x257>
    d05b:	48 8b 55 d0          	mov    -0x30(%rbp),%rdx
    d05f:	c7 45 e4 02 31 00 00 	movl   $0x3102,-0x1c(%rbp)
    d066:	48 8d 45 e4          	lea    -0x1c(%rbp),%rax
    d06a:	48 89 c6             	mov    %rax,%rsi
    d06d:	48 89 d7             	mov    %rdx,%rdi
    d070:	e8 a7 0d 00 00       	call   de1c <_ZN10movelist_t9push_backERKj>
    d075:	e9 08 01 00 00       	jmp    d182 <_Z16generate_castlesP7board_tP10movelist_t+0x257>
    d07a:	48 8b 45 d8          	mov    -0x28(%rbp),%rax
    d07e:	8b 80 94 01 00 00    	mov    0x194(%rax),%eax
    d084:	83 e0 04             	and    $0x4,%eax
    d087:	85 c0                	test   %eax,%eax
    d089:	74 50                	je     d0db <_Z16generate_castlesP7board_tP10movelist_t+0x1b0>
    d08b:	48 b8 00 00 00 00 00 	movabs $0x6000000000000000,%rax
    d092:	00 00 60 
    d095:	48 23 45 f0          	and    -0x10(%rbp),%rax
    d099:	48 85 c0             	test   %rax,%rax
    d09c:	75 3d                	jne    d0db <_Z16generate_castlesP7board_tP10movelist_t+0x1b0>
    d09e:	48 8b 45 d8          	mov    -0x28(%rbp),%rax
    d0a2:	ba 01 00 00 00       	mov    $0x1,%edx
    d0a7:	be 3c 00 00 00       	mov    $0x3c,%esi
    d0ac:	48 89 c7             	mov    %rax,%rdi
    d0af:	e8 7d 06 00 00       	call   d731 <_Z11is_attackedP7board_tii>
    d0b4:	48 85 c0             	test   %rax,%rax
    d0b7:	75 22                	jne    d0db <_Z16generate_castlesP7board_tP10movelist_t+0x1b0>
    d0b9:	48 8b 45 d8          	mov    -0x28(%rbp),%rax
    d0bd:	ba 01 00 00 00       	mov    $0x1,%edx
    d0c2:	be 3d 00 00 00       	mov    $0x3d,%esi
    d0c7:	48 89 c7             	mov    %rax,%rdi
    d0ca:	e8 62 06 00 00       	call   d731 <_Z11is_attackedP7board_tii>
    d0cf:	48 85 c0             	test   %rax,%rax
    d0d2:	75 07                	jne    d0db <_Z16generate_castlesP7board_tP10movelist_t+0x1b0>
    d0d4:	b8 01 00 00 00       	mov    $0x1,%eax
    d0d9:	eb 05                	jmp    d0e0 <_Z16generate_castlesP7board_tP10movelist_t+0x1b5>
    d0db:	b8 00 00 00 00       	mov    $0x0,%eax
    d0e0:	84 c0                	test   %al,%al
    d0e2:	74 1a                	je     d0fe <_Z16generate_castlesP7board_tP10movelist_t+0x1d3>
    d0e4:	48 8b 55 d0          	mov    -0x30(%rbp),%rdx
    d0e8:	c7 45 e4 3e 2f 00 00 	movl   $0x2f3e,-0x1c(%rbp)
    d0ef:	48 8d 45 e4          	lea    -0x1c(%rbp),%rax
    d0f3:	48 89 c6             	mov    %rax,%rsi
    d0f6:	48 89 d7             	mov    %rdx,%rdi
    d0f9:	e8 1e 0d 00 00       	call   de1c <_ZN10movelist_t9push_backERKj>
    d0fe:	48 8b 45 d8          	mov    -0x28(%rbp),%rax
    d102:	8b 80 94 01 00 00    	mov    0x194(%rax),%eax
    d108:	83 e0 08             	and    $0x8,%eax
    d10b:	85 c0                	test   %eax,%eax
    d10d:	74 50                	je     d15f <_Z16generate_castlesP7board_tP10movelist_t+0x234>
    d10f:	48 b8 00 00 00 00 00 	movabs $0xe00000000000000,%rax
    d116:	00 00 0e 
    d119:	48 23 45 f0          	and    -0x10(%rbp),%rax
    d11d:	48 85 c0             	test   %rax,%rax
    d120:	75 3d                	jne    d15f <_Z16generate_castlesP7board_tP10movelist_t+0x234>
    d122:	48 8b 45 d8          	mov    -0x28(%rbp),%rax
    d126:	ba 01 00 00 00       	mov    $0x1,%edx
    d12b:	be 3a 00 00 00       	mov    $0x3a,%esi
    d130:	48 89 c7             	mov    %rax,%rdi
    d133:	e8 f9 05 00 00       	call   d731 <_Z11is_attackedP7board_tii>
    d138:	48 85 c0             	test   %rax,%rax
    d13b:	75 22                	jne    d15f <_Z16generate_castlesP7board_tP10movelist_t+0x234>
    d13d:	48 8b 45 d8          	mov    -0x28(%rbp),%rax
    d141:	ba 01 00 00 00       	mov    $0x1,%edx
    d146:	be 39 00 00 00       	mov    $0x39,%esi
    d14b:	48 89 c7             	mov    %rax,%rdi
    d14e:	e8 de 05 00 00       	call   d731 <_Z11is_attackedP7board_tii>
    d153:	48 85 c0             	test   %rax,%rax
    d156:	75 07                	jne    d15f <_Z16generate_castlesP7board_tP10movelist_t+0x234>
    d158:	b8 01 00 00 00       	mov    $0x1,%eax
    d15d:	eb 05                	jmp    d164 <_Z16generate_castlesP7board_tP10movelist_t+0x239>
    d15f:	b8 00 00 00 00       	mov    $0x0,%eax
    d164:	84 c0                	test   %al,%al
    d166:	74 1a                	je     d182 <_Z16generate_castlesP7board_tP10movelist_t+0x257>
    d168:	48 8b 55 d0          	mov    -0x30(%rbp),%rdx
    d16c:	c7 45 e4 3a 3f 00 00 	movl   $0x3f3a,-0x1c(%rbp)
    d173:	48 8d 45 e4          	lea    -0x1c(%rbp),%rax
    d177:	48 89 c6             	mov    %rax,%rsi
    d17a:	48 89 d7             	mov    %rdx,%rdi
    d17d:	e8 9a 0c 00 00       	call   de1c <_ZN10movelist_t9push_backERKj>
    d182:	90                   	nop
    d183:	48 8b 45 f8          	mov    -0x8(%rbp),%rax
    d187:	64 48 2b 04 25 28 00 	sub    %fs:0x28,%rax
    d18e:	00 00 
    d190:	74 05                	je     d197 <_Z16generate_castlesP7board_tP10movelist_t+0x26c>
    d192:	e8 09 61 ff ff       	call   32a0 <__stack_chk_fail@plt>
    d197:	c9                   	leave
    d198:	c3                   	ret

000000000000d199 <_Z14generate_quietP7board_tP10movelist_t>:
    d199:	55                   	push   %rbp
    d19a:	48 89 e5             	mov    %rsp,%rbp
    d19d:	53                   	push   %rbx
    d19e:	48 83 ec 58          	sub    $0x58,%rsp
    d1a2:	48 89 7d a8          	mov    %rdi,-0x58(%rbp)
    d1a6:	48 89 75 a0          	mov    %rsi,-0x60(%rbp)
    d1aa:	64 48 8b 04 25 28 00 	mov    %fs:0x28,%rax
    d1b1:	00 00 
    d1b3:	48 89 45 e8          	mov    %rax,-0x18(%rbp)
    d1b7:	31 c0                	xor    %eax,%eax
    d1b9:	48 8b 45 a0          	mov    -0x60(%rbp),%rax
    d1bd:	48 89 c7             	mov    %rax,%rdi
    d1c0:	e8 33 0c 00 00       	call   ddf8 <_ZNK10movelist_t4sizeEv>
    d1c5:	89 45 b4             	mov    %eax,-0x4c(%rbp)
    d1c8:	48 8b 45 a8          	mov    -0x58(%rbp),%rax
    d1cc:	48 05 88 01 00 00    	add    $0x188,%rax
    d1d2:	48 89 45 d0          	mov    %rax,-0x30(%rbp)
    d1d6:	48 8b 45 d0          	mov    -0x30(%rbp),%rax
    d1da:	8b 00                	mov    (%rax),%eax
    d1dc:	85 c0                	test   %eax,%eax
    d1de:	74 07                	je     d1e7 <_Z14generate_quietP7board_tP10movelist_t+0x4e>
    d1e0:	b8 08 00 00 00       	mov    $0x8,%eax
    d1e5:	eb 05                	jmp    d1ec <_Z14generate_quietP7board_tP10movelist_t+0x53>
    d1e7:	b8 f8 ff ff ff       	mov    $0xfffffff8,%eax
    d1ec:	89 45 b8             	mov    %eax,-0x48(%rbp)
    d1ef:	48 8b 45 d0          	mov    -0x30(%rbp),%rax
    d1f3:	8b 00                	mov    (%rax),%eax
    d1f5:	85 c0                	test   %eax,%eax
    d1f7:	74 07                	je     d200 <_Z14generate_quietP7board_tP10movelist_t+0x67>
    d1f9:	b8 01 00 00 00       	mov    $0x1,%eax
    d1fe:	eb 05                	jmp    d205 <_Z14generate_quietP7board_tP10movelist_t+0x6c>
    d200:	b8 09 00 00 00       	mov    $0x9,%eax
    d205:	48 8b 55 a8          	mov    -0x58(%rbp),%rdx
    d209:	48 98                	cltq
    d20b:	48 8b 1c c2          	mov    (%rdx,%rax,8),%rbx
    d20f:	48 8b 45 d0          	mov    -0x30(%rbp),%rax
    d213:	8b 00                	mov    (%rax),%eax
    d215:	89 c7                	mov    %eax,%edi
    d217:	e8 57 0f 00 00       	call   e173 <_Z13NOT_PROMOTINGi>
    d21c:	48 21 d8             	and    %rbx,%rax
    d21f:	48 89 45 d8          	mov    %rax,-0x28(%rbp)
    d223:	48 8b 45 a8          	mov    -0x58(%rbp),%rax
    d227:	48 89 c7             	mov    %rax,%rdi
    d22a:	e8 bc 0f 00 00       	call   e1eb <_Z10all_piecesPK7board_t>
    d22f:	48 f7 d0             	not    %rax
    d232:	48 89 45 e0          	mov    %rax,-0x20(%rbp)
    d236:	48 8b 45 d0          	mov    -0x30(%rbp),%rax
    d23a:	8b 00                	mov    (%rax),%eax
    d23c:	85 c0                	test   %eax,%eax
    d23e:	74 0e                	je     d24e <_Z14generate_quietP7board_tP10movelist_t+0xb5>
    d240:	48 8b 45 d8          	mov    -0x28(%rbp),%rax
    d244:	48 89 c7             	mov    %rax,%rdi
    d247:	e8 83 6f ff ff       	call   41cf <_Z7n_shiftm>
    d24c:	eb 0c                	jmp    d25a <_Z14generate_quietP7board_tP10movelist_t+0xc1>
    d24e:	48 8b 45 d8          	mov    -0x28(%rbp),%rax
    d252:	48 89 c7             	mov    %rax,%rdi
    d255:	e8 87 6f ff ff       	call   41e1 <_Z7s_shiftm>
    d25a:	48 89 45 c0          	mov    %rax,-0x40(%rbp)
    d25e:	48 8b 45 c0          	mov    -0x40(%rbp),%rax
    d262:	48 23 45 e0          	and    -0x20(%rbp),%rax
    d266:	48 89 45 c0          	mov    %rax,-0x40(%rbp)
    d26a:	48 8b 45 d0          	mov    -0x30(%rbp),%rax
    d26e:	8b 00                	mov    (%rax),%eax
    d270:	85 c0                	test   %eax,%eax
    d272:	74 20                	je     d294 <_Z14generate_quietP7board_tP10movelist_t+0xfb>
    d274:	be 01 00 00 00       	mov    $0x1,%esi
    d279:	bf 03 00 00 00       	mov    $0x3,%edi
    d27e:	e8 32 0f 00 00       	call   e1b5 <_Z10RANK_TO_BBii>
    d283:	48 8b 55 c0          	mov    -0x40(%rbp),%rdx
    d287:	48 21 d0             	and    %rdx,%rax
    d28a:	48 89 c7             	mov    %rax,%rdi
    d28d:	e8 3d 6f ff ff       	call   41cf <_Z7n_shiftm>
    d292:	eb 1e                	jmp    d2b2 <_Z14generate_quietP7board_tP10movelist_t+0x119>
    d294:	be 01 00 00 00       	mov    $0x1,%esi
    d299:	bf 06 00 00 00       	mov    $0x6,%edi
    d29e:	e8 12 0f 00 00       	call   e1b5 <_Z10RANK_TO_BBii>
    d2a3:	48 8b 55 c0          	mov    -0x40(%rbp),%rdx
    d2a7:	48 21 d0             	and    %rdx,%rax
    d2aa:	48 89 c7             	mov    %rax,%rdi
    d2ad:	e8 2f 6f ff ff       	call   41e1 <_Z7s_shiftm>
    d2b2:	48 89 45 c8          	mov    %rax,-0x38(%rbp)
    d2b6:	48 8b 45 c8          	mov    -0x38(%rbp),%rax
    d2ba:	48 23 45 e0          	and    -0x20(%rbp),%rax
    d2be:	48 89 45 c8          	mov    %rax,-0x38(%rbp)
    d2c2:	eb 3d                	jmp    d301 <_Z14generate_quietP7board_tP10movelist_t+0x168>
    d2c4:	48 8d 45 c0          	lea    -0x40(%rbp),%rax
    d2c8:	48 89 c7             	mov    %rax,%rdi
    d2cb:	e8 47 8e ff ff       	call   6117 <_Z16bit_drop_forwardRm>
    d2d0:	89 45 bc             	mov    %eax,-0x44(%rbp)
    d2d3:	48 8b 55 a0          	mov    -0x60(%rbp),%rdx
    d2d7:	8b 45 bc             	mov    -0x44(%rbp),%eax
    d2da:	2b 45 b8             	sub    -0x48(%rbp),%eax
    d2dd:	c1 e0 06             	shl    $0x6,%eax
    d2e0:	25 c0 0f 00 00       	and    $0xfc0,%eax
    d2e5:	89 c1                	mov    %eax,%ecx
    d2e7:	8b 45 bc             	mov    -0x44(%rbp),%eax
    d2ea:	83 e0 3f             	and    $0x3f,%eax
    d2ed:	09 c8                	or     %ecx,%eax
    d2ef:	89 45 b0             	mov    %eax,-0x50(%rbp)
    d2f2:	48 8d 45 b0          	lea    -0x50(%rbp),%rax
    d2f6:	48 89 c6             	mov    %rax,%rsi
    d2f9:	48 89 d7             	mov    %rdx,%rdi
    d2fc:	e8 1b 0b 00 00       	call   de1c <_ZN10movelist_t9push_backERKj>
    d301:	48 8b 45 c0          	mov    -0x40(%rbp),%rax
    d305:	48 85 c0             	test   %rax,%rax
    d308:	75 ba                	jne    d2c4 <_Z14generate_quietP7board_tP10movelist_t+0x12b>
    d30a:	eb 43                	jmp    d34f <_Z14generate_quietP7board_tP10movelist_t+0x1b6>
    d30c:	48 8d 45 c8          	lea    -0x38(%rbp),%rax
    d310:	48 89 c7             	mov    %rax,%rdi
    d313:	e8 ff 8d ff ff       	call   6117 <_Z16bit_drop_forwardRm>
    d318:	89 45 bc             	mov    %eax,-0x44(%rbp)
    d31b:	48 8b 55 a0          	mov    -0x60(%rbp),%rdx
    d31f:	8b 45 bc             	mov    -0x44(%rbp),%eax
    d322:	2b 45 b8             	sub    -0x48(%rbp),%eax
    d325:	2b 45 b8             	sub    -0x48(%rbp),%eax
    d328:	c1 e0 06             	shl    $0x6,%eax
    d32b:	25 c0 0f 00 00       	and    $0xfc0,%eax
    d330:	80 cc 10             	or     $0x10,%ah
    d333:	89 c1                	mov    %eax,%ecx
    d335:	8b 45 bc             	mov    -0x44(%rbp),%eax
    d338:	83 e0 3f             	and    $0x3f,%eax
    d33b:	09 c8                	or     %ecx,%eax
    d33d:	89 45 b0             	mov    %eax,-0x50(%rbp)
    d340:	48 8d 45 b0          	lea    -0x50(%rbp),%rax
    d344:	48 89 c6             	mov    %rax,%rsi
    d347:	48 89 d7             	mov    %rdx,%rdi
    d34a:	e8 cd 0a 00 00       	call   de1c <_ZN10movelist_t9push_backERKj>
    d34f:	48 8b 45 c8          	mov    -0x38(%rbp),%rax
    d353:	48 85 c0             	test   %rax,%rax
    d356:	75 b4                	jne    d30c <_Z14generate_quietP7board_tP10movelist_t+0x173>
    d358:	48 8b 55 a0          	mov    -0x60(%rbp),%rdx
    d35c:	48 8b 45 a8          	mov    -0x58(%rbp),%rax
    d360:	48 89 d6             	mov    %rdx,%rsi
    d363:	48 89 c7             	mov    %rax,%rdi
    d366:	e8 e4 0f 00 00       	call   e34f <_Z24generate_quiet_moves_forILi2EEvP7board_tP10movelist_t>
    d36b:	48 8b 55 a0          	mov    -0x60(%rbp),%rdx
    d36f:	48 8b 45 a8          	mov    -0x58(%rbp),%rax
    d373:	48 89 d6             	mov    %rdx,%rsi
    d376:	48 89 c7             	mov    %rax,%rdi
    d379:	e8 cf 10 00 00       	call   e44d <_Z24generate_quiet_moves_forILi6EEvP7board_tP10movelist_t>
    d37e:	48 8b 55 a0          	mov    -0x60(%rbp),%rdx
    d382:	48 8b 45 a8          	mov    -0x58(%rbp),%rax
    d386:	48 89 d6             	mov    %rdx,%rsi
    d389:	48 89 c7             	mov    %rax,%rdi
    d38c:	e8 ba 11 00 00       	call   e54b <_Z24generate_quiet_moves_forILi4EEvP7board_tP10movelist_t>
    d391:	48 8b 55 a0          	mov    -0x60(%rbp),%rdx
    d395:	48 8b 45 a8          	mov    -0x58(%rbp),%rax
    d399:	48 89 d6             	mov    %rdx,%rsi
    d39c:	48 89 c7             	mov    %rax,%rdi
    d39f:	e8 af 12 00 00       	call   e653 <_Z24generate_quiet_moves_forILi3EEvP7board_tP10movelist_t>
    d3a4:	48 8b 55 a0          	mov    -0x60(%rbp),%rdx
    d3a8:	48 8b 45 a8          	mov    -0x58(%rbp),%rax
    d3ac:	48 89 d6             	mov    %rdx,%rsi
    d3af:	48 89 c7             	mov    %rax,%rdi
    d3b2:	e8 a4 13 00 00       	call   e75b <_Z24generate_quiet_moves_forILi5EEvP7board_tP10movelist_t>
    d3b7:	48 8b 55 a0          	mov    -0x60(%rbp),%rdx
    d3bb:	48 8b 45 a8          	mov    -0x58(%rbp),%rax
    d3bf:	48 89 d6             	mov    %rdx,%rsi
    d3c2:	48 89 c7             	mov    %rax,%rdi
    d3c5:	e8 61 fb ff ff       	call   cf2b <_Z16generate_castlesP7board_tP10movelist_t>
    d3ca:	48 8b 45 a0          	mov    -0x60(%rbp),%rax
    d3ce:	48 89 c7             	mov    %rax,%rdi
    d3d1:	e8 22 0a 00 00       	call   ddf8 <_ZNK10movelist_t4sizeEv>
    d3d6:	89 c2                	mov    %eax,%edx
    d3d8:	8b 45 b4             	mov    -0x4c(%rbp),%eax
    d3db:	29 c2                	sub    %eax,%edx
    d3dd:	89 d0                	mov    %edx,%eax
    d3df:	48 8b 55 e8          	mov    -0x18(%rbp),%rdx
    d3e3:	64 48 2b 14 25 28 00 	sub    %fs:0x28,%rdx
    d3ea:	00 00 
    d3ec:	74 05                	je     d3f3 <_Z14generate_quietP7board_tP10movelist_t+0x25a>
    d3ee:	e8 ad 5e ff ff       	call   32a0 <__stack_chk_fail@plt>
    d3f3:	48 8b 5d f8          	mov    -0x8(%rbp),%rbx
    d3f7:	c9                   	leave
    d3f8:	c3                   	ret

000000000000d3f9 <_Z14generate_noisyP7board_tP10movelist_t>:
    d3f9:	55                   	push   %rbp
    d3fa:	48 89 e5             	mov    %rsp,%rbp
    d3fd:	53                   	push   %rbx
    d3fe:	48 83 ec 68          	sub    $0x68,%rsp
    d402:	48 89 7d 98          	mov    %rdi,-0x68(%rbp)
    d406:	48 89 75 90          	mov    %rsi,-0x70(%rbp)
    d40a:	64 48 8b 04 25 28 00 	mov    %fs:0x28,%rax
    d411:	00 00 
    d413:	48 89 45 e8          	mov    %rax,-0x18(%rbp)
    d417:	31 c0                	xor    %eax,%eax
    d419:	48 8b 45 90          	mov    -0x70(%rbp),%rax
    d41d:	48 89 c7             	mov    %rax,%rdi
    d420:	e8 d3 09 00 00       	call   ddf8 <_ZNK10movelist_t4sizeEv>
    d425:	89 45 a8             	mov    %eax,-0x58(%rbp)
    d428:	48 8b 45 98          	mov    -0x68(%rbp),%rax
    d42c:	48 05 88 01 00 00    	add    $0x188,%rax
    d432:	48 89 45 d0          	mov    %rax,-0x30(%rbp)
    d436:	48 8b 45 d0          	mov    -0x30(%rbp),%rax
    d43a:	8b 00                	mov    (%rax),%eax
    d43c:	83 f0 01             	xor    $0x1,%eax
    d43f:	89 45 ac             	mov    %eax,-0x54(%rbp)
    d442:	48 8b 45 98          	mov    -0x68(%rbp),%rax
    d446:	8b 55 ac             	mov    -0x54(%rbp),%edx
    d449:	48 63 d2             	movslq %edx,%rdx
    d44c:	48 83 c2 2c          	add    $0x2c,%rdx
    d450:	48 8b 44 d0 18       	mov    0x18(%rax,%rdx,8),%rax
    d455:	48 89 45 d8          	mov    %rax,-0x28(%rbp)
    d459:	48 8b 45 d0          	mov    -0x30(%rbp),%rax
    d45d:	8b 00                	mov    (%rax),%eax
    d45f:	85 c0                	test   %eax,%eax
    d461:	74 07                	je     d46a <_Z14generate_noisyP7board_tP10movelist_t+0x71>
    d463:	b8 08 00 00 00       	mov    $0x8,%eax
    d468:	eb 05                	jmp    d46f <_Z14generate_noisyP7board_tP10movelist_t+0x76>
    d46a:	b8 f8 ff ff ff       	mov    $0xfffffff8,%eax
    d46f:	89 45 b0             	mov    %eax,-0x50(%rbp)
    d472:	48 8b 45 d0          	mov    -0x30(%rbp),%rax
    d476:	8b 00                	mov    (%rax),%eax
    d478:	85 c0                	test   %eax,%eax
    d47a:	74 07                	je     d483 <_Z14generate_noisyP7board_tP10movelist_t+0x8a>
    d47c:	b8 01 00 00 00       	mov    $0x1,%eax
    d481:	eb 05                	jmp    d488 <_Z14generate_noisyP7board_tP10movelist_t+0x8f>
    d483:	b8 09 00 00 00       	mov    $0x9,%eax
    d488:	48 8b 55 98          	mov    -0x68(%rbp),%rdx
    d48c:	48 98                	cltq
    d48e:	48 8b 04 c2          	mov    (%rdx,%rax,8),%rax
    d492:	48 89 45 e0          	mov    %rax,-0x20(%rbp)
    d496:	48 8b 45 d0          	mov    -0x30(%rbp),%rax
    d49a:	8b 00                	mov    (%rax),%eax
    d49c:	85 c0                	test   %eax,%eax
    d49e:	74 0e                	je     d4ae <_Z14generate_noisyP7board_tP10movelist_t+0xb5>
    d4a0:	48 8b 45 e0          	mov    -0x20(%rbp),%rax
    d4a4:	48 89 c7             	mov    %rax,%rdi
    d4a7:	e8 87 6d ff ff       	call   4233 <_Z8ne_shiftm>
    d4ac:	eb 0c                	jmp    d4ba <_Z14generate_noisyP7board_tP10movelist_t+0xc1>
    d4ae:	48 8b 45 e0          	mov    -0x20(%rbp),%rax
    d4b2:	48 89 c7             	mov    %rax,%rdi
    d4b5:	e8 9b 6d ff ff       	call   4255 <_Z8se_shiftm>
    d4ba:	48 89 45 b8          	mov    %rax,-0x48(%rbp)
    d4be:	48 8b 45 b8          	mov    -0x48(%rbp),%rax
    d4c2:	48 23 45 d8          	and    -0x28(%rbp),%rax
    d4c6:	48 89 45 b8          	mov    %rax,-0x48(%rbp)
    d4ca:	eb 42                	jmp    d50e <_Z14generate_noisyP7board_tP10movelist_t+0x115>
    d4cc:	48 8d 45 b8          	lea    -0x48(%rbp),%rax
    d4d0:	48 89 c7             	mov    %rax,%rdi
    d4d3:	e8 3f 8c ff ff       	call   6117 <_Z16bit_drop_forwardRm>
    d4d8:	89 45 b4             	mov    %eax,-0x4c(%rbp)
    d4db:	48 8b 55 90          	mov    -0x70(%rbp),%rdx
    d4df:	8b 45 b4             	mov    -0x4c(%rbp),%eax
    d4e2:	2b 45 b0             	sub    -0x50(%rbp),%eax
    d4e5:	ff c8                	dec    %eax
    d4e7:	c1 e0 06             	shl    $0x6,%eax
    d4ea:	25 c0 0f 00 00       	and    $0xfc0,%eax
    d4ef:	80 cc 40             	or     $0x40,%ah
    d4f2:	89 c1                	mov    %eax,%ecx
    d4f4:	8b 45 b4             	mov    -0x4c(%rbp),%eax
    d4f7:	83 e0 3f             	and    $0x3f,%eax
    d4fa:	09 c8                	or     %ecx,%eax
    d4fc:	89 45 c8             	mov    %eax,-0x38(%rbp)
    d4ff:	48 8d 45 c8          	lea    -0x38(%rbp),%rax
    d503:	48 89 c6             	mov    %rax,%rsi
    d506:	48 89 d7             	mov    %rdx,%rdi
    d509:	e8 0e 09 00 00       	call   de1c <_ZN10movelist_t9push_backERKj>
    d50e:	48 8b 45 b8          	mov    -0x48(%rbp),%rax
    d512:	48 85 c0             	test   %rax,%rax
    d515:	75 b5                	jne    d4cc <_Z14generate_noisyP7board_tP10movelist_t+0xd3>
    d517:	48 8b 45 d0          	mov    -0x30(%rbp),%rax
    d51b:	8b 00                	mov    (%rax),%eax
    d51d:	85 c0                	test   %eax,%eax
    d51f:	74 0e                	je     d52f <_Z14generate_noisyP7board_tP10movelist_t+0x136>
    d521:	48 8b 45 e0          	mov    -0x20(%rbp),%rax
    d525:	48 89 c7             	mov    %rax,%rdi
    d528:	e8 6c 6d ff ff       	call   4299 <_Z8nw_shiftm>
    d52d:	eb 0c                	jmp    d53b <_Z14generate_noisyP7board_tP10movelist_t+0x142>
    d52f:	48 8b 45 e0          	mov    -0x20(%rbp),%rax
    d533:	48 89 c7             	mov    %rax,%rdi
    d536:	e8 3c 6d ff ff       	call   4277 <_Z8sw_shiftm>
    d53b:	48 89 45 c0          	mov    %rax,-0x40(%rbp)
    d53f:	48 8b 45 c0          	mov    -0x40(%rbp),%rax
    d543:	48 23 45 d8          	and    -0x28(%rbp),%rax
    d547:	48 89 45 c0          	mov    %rax,-0x40(%rbp)
    d54b:	eb 42                	jmp    d58f <_Z14generate_noisyP7board_tP10movelist_t+0x196>
    d54d:	48 8d 45 c0          	lea    -0x40(%rbp),%rax
    d551:	48 89 c7             	mov    %rax,%rdi
    d554:	e8 be 8b ff ff       	call   6117 <_Z16bit_drop_forwardRm>
    d559:	89 45 b4             	mov    %eax,-0x4c(%rbp)
    d55c:	48 8b 55 90          	mov    -0x70(%rbp),%rdx
    d560:	8b 45 b4             	mov    -0x4c(%rbp),%eax
    d563:	2b 45 b0             	sub    -0x50(%rbp),%eax
    d566:	ff c0                	inc    %eax
    d568:	c1 e0 06             	shl    $0x6,%eax
    d56b:	25 c0 0f 00 00       	and    $0xfc0,%eax
    d570:	80 cc 40             	or     $0x40,%ah
    d573:	89 c1                	mov    %eax,%ecx
    d575:	8b 45 b4             	mov    -0x4c(%rbp),%eax
    d578:	83 e0 3f             	and    $0x3f,%eax
    d57b:	09 c8                	or     %ecx,%eax
    d57d:	89 45 c8             	mov    %eax,-0x38(%rbp)
    d580:	48 8d 45 c8          	lea    -0x38(%rbp),%rax
    d584:	48 89 c6             	mov    %rax,%rsi
    d587:	48 89 d7             	mov    %rdx,%rdi
    d58a:	e8 8d 08 00 00       	call   de1c <_ZN10movelist_t9push_backERKj>
    d58f:	48 8b 45 c0          	mov    -0x40(%rbp),%rax
    d593:	48 85 c0             	test   %rax,%rax
    d596:	75 b5                	jne    d54d <_Z14generate_noisyP7board_tP10movelist_t+0x154>
    d598:	83 7d ac 00          	cmpl   $0x0,-0x54(%rbp)
    d59c:	74 20                	je     d5be <_Z14generate_noisyP7board_tP10movelist_t+0x1c5>
    d59e:	48 8b 45 e0          	mov    -0x20(%rbp),%rax
    d5a2:	48 89 c7             	mov    %rax,%rdi
    d5a5:	e8 89 6c ff ff       	call   4233 <_Z8ne_shiftm>
    d5aa:	48 89 c3             	mov    %rax,%rbx
    d5ad:	48 8b 45 e0          	mov    -0x20(%rbp),%rax
    d5b1:	48 89 c7             	mov    %rax,%rdi
    d5b4:	e8 e0 6c ff ff       	call   4299 <_Z8nw_shiftm>
    d5b9:	48 09 d8             	or     %rbx,%rax
    d5bc:	eb 1e                	jmp    d5dc <_Z14generate_noisyP7board_tP10movelist_t+0x1e3>
    d5be:	48 8b 45 e0          	mov    -0x20(%rbp),%rax
    d5c2:	48 89 c7             	mov    %rax,%rdi
    d5c5:	e8 8b 6c ff ff       	call   4255 <_Z8se_shiftm>
    d5ca:	48 89 c3             	mov    %rax,%rbx
    d5cd:	48 8b 45 e0          	mov    -0x20(%rbp),%rax
    d5d1:	48 89 c7             	mov    %rax,%rdi
    d5d4:	e8 9e 6c ff ff       	call   4277 <_Z8sw_shiftm>
    d5d9:	48 09 d8             	or     %rbx,%rax
    d5dc:	48 89 45 c8          	mov    %rax,-0x38(%rbp)
    d5e0:	48 8b 45 c8          	mov    -0x38(%rbp),%rax
    d5e4:	48 23 45 e0          	and    -0x20(%rbp),%rax
    d5e8:	48 89 45 c8          	mov    %rax,-0x38(%rbp)
    d5ec:	48 8b 45 c8          	mov    -0x38(%rbp),%rax
    d5f0:	48 85 c0             	test   %rax,%rax
    d5f3:	0f 95 c0             	setne  %al
    d5f6:	84 c0                	test   %al,%al
    d5f8:	74 49                	je     d643 <_Z14generate_noisyP7board_tP10movelist_t+0x24a>
    d5fa:	eb 3e                	jmp    d63a <_Z14generate_noisyP7board_tP10movelist_t+0x241>
    d5fc:	48 8b 5d 90          	mov    -0x70(%rbp),%rbx
    d600:	48 8d 45 c8          	lea    -0x38(%rbp),%rax
    d604:	48 89 c7             	mov    %rax,%rdi
    d607:	e8 0b 8b ff ff       	call   6117 <_Z16bit_drop_forwardRm>
    d60c:	c1 e0 06             	shl    $0x6,%eax
    d60f:	25 c0 0f 00 00       	and    $0xfc0,%eax
    d614:	80 cc 50             	or     $0x50,%ah
    d617:	89 c2                	mov    %eax,%edx
    d619:	48 8b 45 98          	mov    -0x68(%rbp),%rax
    d61d:	8b 80 9c 01 00 00    	mov    0x19c(%rax),%eax
    d623:	83 e0 3f             	and    $0x3f,%eax
    d626:	09 d0                	or     %edx,%eax
    d628:	89 45 a4             	mov    %eax,-0x5c(%rbp)
    d62b:	48 8d 45 a4          	lea    -0x5c(%rbp),%rax
    d62f:	48 89 c6             	mov    %rax,%rsi
    d632:	48 89 df             	mov    %rbx,%rdi
    d635:	e8 e2 07 00 00       	call   de1c <_ZN10movelist_t9push_backERKj>
    d63a:	48 8b 45 c8          	mov    -0x38(%rbp),%rax
    d63e:	48 85 c0             	test   %rax,%rax
    d641:	75 b9                	jne    d5fc <_Z14generate_noisyP7board_tP10movelist_t+0x203>
    d643:	48 8b 55 90          	mov    -0x70(%rbp),%rdx
    d647:	48 8b 45 98          	mov    -0x68(%rbp),%rax
    d64b:	48 89 d6             	mov    %rdx,%rsi
    d64e:	48 89 c7             	mov    %rax,%rdi
    d651:	e8 6b f6 ff ff       	call   ccc1 <_Z19generate_promotionsP7board_tP10movelist_t>
    d656:	48 8b 55 90          	mov    -0x70(%rbp),%rdx
    d65a:	48 8b 45 98          	mov    -0x68(%rbp),%rax
    d65e:	48 89 d6             	mov    %rdx,%rsi
    d661:	48 89 c7             	mov    %rax,%rdi
    d664:	e8 fa 11 00 00       	call   e863 <_Z24generate_noisy_moves_forILi2EEvP7board_tP10movelist_t>
    d669:	48 8b 55 90          	mov    -0x70(%rbp),%rdx
    d66d:	48 8b 45 98          	mov    -0x68(%rbp),%rax
    d671:	48 89 d6             	mov    %rdx,%rsi
    d674:	48 89 c7             	mov    %rax,%rdi
    d677:	e8 fe 12 00 00       	call   e97a <_Z24generate_noisy_moves_forILi6EEvP7board_tP10movelist_t>
    d67c:	48 8b 55 90          	mov    -0x70(%rbp),%rdx
    d680:	48 8b 45 98          	mov    -0x68(%rbp),%rax
    d684:	48 89 d6             	mov    %rdx,%rsi
    d687:	48 89 c7             	mov    %rax,%rdi
    d68a:	e8 02 14 00 00       	call   ea91 <_Z24generate_noisy_moves_forILi5EEvP7board_tP10movelist_t>
    d68f:	48 8b 55 90          	mov    -0x70(%rbp),%rdx
    d693:	48 8b 45 98          	mov    -0x68(%rbp),%rax
    d697:	48 89 d6             	mov    %rdx,%rsi
    d69a:	48 89 c7             	mov    %rax,%rdi
    d69d:	e8 11 15 00 00       	call   ebb3 <_Z24generate_noisy_moves_forILi4EEvP7board_tP10movelist_t>
    d6a2:	48 8b 55 90          	mov    -0x70(%rbp),%rdx
    d6a6:	48 8b 45 98          	mov    -0x68(%rbp),%rax
    d6aa:	48 89 d6             	mov    %rdx,%rsi
    d6ad:	48 89 c7             	mov    %rax,%rdi
    d6b0:	e8 20 16 00 00       	call   ecd5 <_Z24generate_noisy_moves_forILi3EEvP7board_tP10movelist_t>
    d6b5:	48 8b 45 90          	mov    -0x70(%rbp),%rax
    d6b9:	48 89 c7             	mov    %rax,%rdi
    d6bc:	e8 37 07 00 00       	call   ddf8 <_ZNK10movelist_t4sizeEv>
    d6c1:	89 c2                	mov    %eax,%edx
    d6c3:	8b 45 a8             	mov    -0x58(%rbp),%eax
    d6c6:	29 c2                	sub    %eax,%edx
    d6c8:	89 d0                	mov    %edx,%eax
    d6ca:	48 8b 55 e8          	mov    -0x18(%rbp),%rdx
    d6ce:	64 48 2b 14 25 28 00 	sub    %fs:0x28,%rdx
    d6d5:	00 00 
    d6d7:	74 05                	je     d6de <_Z14generate_noisyP7board_tP10movelist_t+0x2e5>
    d6d9:	e8 c2 5b ff ff       	call   32a0 <__stack_chk_fail@plt>
    d6de:	48 8b 5d f8          	mov    -0x8(%rbp),%rbx
    d6e2:	c9                   	leave
    d6e3:	c3                   	ret

000000000000d6e4 <_Z14generate_movesP7board_tP10movelist_t>:
    d6e4:	55                   	push   %rbp
    d6e5:	48 89 e5             	mov    %rsp,%rbp
    d6e8:	53                   	push   %rbx
    d6e9:	48 83 ec 18          	sub    $0x18,%rsp
    d6ed:	48 89 7d e8          	mov    %rdi,-0x18(%rbp)
    d6f1:	48 89 75 e0          	mov    %rsi,-0x20(%rbp)
    d6f5:	48 8b 45 e0          	mov    -0x20(%rbp),%rax
    d6f9:	48 89 c7             	mov    %rax,%rdi
    d6fc:	e8 09 08 00 00       	call   df0a <_ZN10movelist_t5clearEv>
    d701:	48 8b 55 e0          	mov    -0x20(%rbp),%rdx
    d705:	48 8b 45 e8          	mov    -0x18(%rbp),%rax
    d709:	48 89 d6             	mov    %rdx,%rsi
    d70c:	48 89 c7             	mov    %rax,%rdi
    d70f:	e8 85 fa ff ff       	call   d199 <_Z14generate_quietP7board_tP10movelist_t>
    d714:	89 c3                	mov    %eax,%ebx
    d716:	48 8b 55 e0          	mov    -0x20(%rbp),%rdx
    d71a:	48 8b 45 e8          	mov    -0x18(%rbp),%rax
    d71e:	48 89 d6             	mov    %rdx,%rsi
    d721:	48 89 c7             	mov    %rax,%rdi
    d724:	e8 d0 fc ff ff       	call   d3f9 <_Z14generate_noisyP7board_tP10movelist_t>
    d729:	01 d8                	add    %ebx,%eax
    d72b:	48 8b 5d f8          	mov    -0x8(%rbp),%rbx
    d72f:	c9                   	leave
    d730:	c3                   	ret

000000000000d731 <_Z11is_attackedP7board_tii>:
    d731:	55                   	push   %rbp
    d732:	48 89 e5             	mov    %rsp,%rbp
    d735:	48 83 ec 30          	sub    $0x30,%rsp
    d739:	48 89 7d d8          	mov    %rdi,-0x28(%rbp)
    d73d:	89 75 d4             	mov    %esi,-0x2c(%rbp)
    d740:	89 55 d0             	mov    %edx,-0x30(%rbp)
    d743:	48 8b 45 d8          	mov    -0x28(%rbp),%rax
    d747:	48 89 c7             	mov    %rax,%rdi
    d74a:	e8 e5 c2 ff ff       	call   9a34 <_Z5checkPK7board_t>
    d74f:	83 f0 01             	xor    $0x1,%eax
    d752:	84 c0                	test   %al,%al
    d754:	0f 84 9b 00 00 00    	je     d7f5 <_Z11is_attackedP7board_tii+0xc4>
    d75a:	48 8d 05 c7 4b 00 00 	lea    0x4bc7(%rip),%rax        # 12328 <_ZZ16generate_castlesP7board_tP10movelist_tE5BQ_BB+0x8>
    d761:	48 89 c6             	mov    %rax,%rsi
    d764:	48 8d 05 98 49 00 00 	lea    0x4998(%rip),%rax        # 12103 <_ZL14piece_to_ascii+0x23>
    d76b:	48 89 c7             	mov    %rax,%rdi
    d76e:	b8 00 00 00 00       	mov    $0x0,%eax
    d773:	e8 d8 58 ff ff       	call   3050 <printf@plt>
    d778:	48 8d 05 91 49 00 00 	lea    0x4991(%rip),%rax        # 12110 <_ZL14piece_to_ascii+0x30>
    d77f:	48 89 c6             	mov    %rax,%rsi
    d782:	48 8d 05 93 49 00 00 	lea    0x4993(%rip),%rax        # 1211c <_ZL14piece_to_ascii+0x3c>
    d789:	48 89 c7             	mov    %rax,%rdi
    d78c:	b8 00 00 00 00       	mov    $0x0,%eax
    d791:	e8 ba 58 ff ff       	call   3050 <printf@plt>
    d796:	48 8d 05 86 49 00 00 	lea    0x4986(%rip),%rax        # 12123 <_ZL14piece_to_ascii+0x43>
    d79d:	48 89 c6             	mov    %rax,%rsi
    d7a0:	48 8d 05 85 49 00 00 	lea    0x4985(%rip),%rax        # 1212c <_ZL14piece_to_ascii+0x4c>
    d7a7:	48 89 c7             	mov    %rax,%rdi
    d7aa:	b8 00 00 00 00       	mov    $0x0,%eax
    d7af:	e8 9c 58 ff ff       	call   3050 <printf@plt>
    d7b4:	48 8d 05 7a 4b 00 00 	lea    0x4b7a(%rip),%rax        # 12335 <_ZZ16generate_castlesP7board_tP10movelist_tE5BQ_BB+0x15>
    d7bb:	48 89 c6             	mov    %rax,%rsi
    d7be:	48 8d 05 7a 49 00 00 	lea    0x497a(%rip),%rax        # 1213f <_ZL14piece_to_ascii+0x5f>
    d7c5:	48 89 c7             	mov    %rax,%rdi
    d7c8:	b8 00 00 00 00       	mov    $0x0,%eax
    d7cd:	e8 7e 58 ff ff       	call   3050 <printf@plt>
    d7d2:	be 39 01 00 00       	mov    $0x139,%esi
    d7d7:	48 8d 05 6d 49 00 00 	lea    0x496d(%rip),%rax        # 1214b <_ZL14piece_to_ascii+0x6b>
    d7de:	48 89 c7             	mov    %rax,%rdi
    d7e1:	b8 00 00 00 00       	mov    $0x0,%eax
    d7e6:	e8 65 58 ff ff       	call   3050 <printf@plt>
    d7eb:	bf 01 00 00 00       	mov    $0x1,%edi
    d7f0:	e8 db 5a ff ff       	call   32d0 <exit@plt>
    d7f5:	48 c7 45 e8 00 00 00 	movq   $0x0,-0x18(%rbp)
    d7fc:	00 
    d7fd:	8b 45 d0             	mov    -0x30(%rbp),%eax
    d800:	89 c6                	mov    %eax,%esi
    d802:	bf 09 00 00 00       	mov    $0x9,%edi
    d807:	e8 db cb ff ff       	call   a3e7 <_Z10set_colourii>
    d80c:	89 45 e4             	mov    %eax,-0x1c(%rbp)
    d80f:	48 8b 55 d8          	mov    -0x28(%rbp),%rdx
    d813:	8b 45 e4             	mov    -0x1c(%rbp),%eax
    d816:	48 98                	cltq
    d818:	48 8b 04 c2          	mov    (%rdx,%rax,8),%rax
    d81c:	48 89 45 f0          	mov    %rax,-0x10(%rbp)
    d820:	83 7d d0 00          	cmpl   $0x0,-0x30(%rbp)
    d824:	74 22                	je     d848 <_Z11is_attackedP7board_tii+0x117>
    d826:	48 8b 45 f0          	mov    -0x10(%rbp),%rax
    d82a:	48 89 c7             	mov    %rax,%rdi
    d82d:	e8 01 6a ff ff       	call   4233 <_Z8ne_shiftm>
    d832:	48 09 45 e8          	or     %rax,-0x18(%rbp)
    d836:	48 8b 45 f0          	mov    -0x10(%rbp),%rax
    d83a:	48 89 c7             	mov    %rax,%rdi
    d83d:	e8 57 6a ff ff       	call   4299 <_Z8nw_shiftm>
    d842:	48 09 45 e8          	or     %rax,-0x18(%rbp)
    d846:	eb 20                	jmp    d868 <_Z11is_attackedP7board_tii+0x137>
    d848:	48 8b 45 f0          	mov    -0x10(%rbp),%rax
    d84c:	48 89 c7             	mov    %rax,%rdi
    d84f:	e8 01 6a ff ff       	call   4255 <_Z8se_shiftm>
    d854:	48 09 45 e8          	or     %rax,-0x18(%rbp)
    d858:	48 8b 45 f0          	mov    -0x10(%rbp),%rax
    d85c:	48 89 c7             	mov    %rax,%rdi
    d85f:	e8 13 6a ff ff       	call   4277 <_Z8sw_shiftm>
    d864:	48 09 45 e8          	or     %rax,-0x18(%rbp)
    d868:	8b 45 d4             	mov    -0x2c(%rbp),%eax
    d86b:	48 8b 55 e8          	mov    -0x18(%rbp),%rdx
    d86f:	c4 e2 fb f7 c2       	shrx   %rax,%rdx,%rax
    d874:	83 e0 01             	and    $0x1,%eax
    d877:	48 85 c0             	test   %rax,%rax
    d87a:	74 09                	je     d885 <_Z11is_attackedP7board_tii+0x154>
    d87c:	48 8b 45 e8          	mov    -0x18(%rbp),%rax
    d880:	e9 8c 01 00 00       	jmp    da11 <_Z11is_attackedP7board_tii+0x2e0>
    d885:	8b 45 d0             	mov    -0x30(%rbp),%eax
    d888:	89 c6                	mov    %eax,%esi
    d88a:	bf 02 00 00 00       	mov    $0x2,%edi
    d88f:	e8 53 cb ff ff       	call   a3e7 <_Z10set_colourii>
    d894:	89 45 e4             	mov    %eax,-0x1c(%rbp)
    d897:	8b 45 d4             	mov    -0x2c(%rbp),%eax
    d89a:	89 c7                	mov    %eax,%edi
    d89c:	e8 6d 09 00 00       	call   e20e <_Z7attacksILi2EEmi>
    d8a1:	48 89 c1             	mov    %rax,%rcx
    d8a4:	48 8b 55 d8          	mov    -0x28(%rbp),%rdx
    d8a8:	8b 45 e4             	mov    -0x1c(%rbp),%eax
    d8ab:	48 98                	cltq
    d8ad:	48 8b 04 c2          	mov    (%rdx,%rax,8),%rax
    d8b1:	48 21 c8             	and    %rcx,%rax
    d8b4:	48 89 45 e8          	mov    %rax,-0x18(%rbp)
    d8b8:	48 83 7d e8 00       	cmpq   $0x0,-0x18(%rbp)
    d8bd:	0f 95 c0             	setne  %al
    d8c0:	84 c0                	test   %al,%al
    d8c2:	74 09                	je     d8cd <_Z11is_attackedP7board_tii+0x19c>
    d8c4:	48 8b 45 e8          	mov    -0x18(%rbp),%rax
    d8c8:	e9 44 01 00 00       	jmp    da11 <_Z11is_attackedP7board_tii+0x2e0>
    d8cd:	8b 45 d0             	mov    -0x30(%rbp),%eax
    d8d0:	89 c6                	mov    %eax,%esi
    d8d2:	bf 06 00 00 00       	mov    $0x6,%edi
    d8d7:	e8 0b cb ff ff       	call   a3e7 <_Z10set_colourii>
    d8dc:	89 45 e4             	mov    %eax,-0x1c(%rbp)
    d8df:	8b 45 d4             	mov    -0x2c(%rbp),%eax
    d8e2:	89 c7                	mov    %eax,%edi
    d8e4:	e8 46 09 00 00       	call   e22f <_Z7attacksILi6EEmi>
    d8e9:	48 89 c1             	mov    %rax,%rcx
    d8ec:	48 8b 55 d8          	mov    -0x28(%rbp),%rdx
    d8f0:	8b 45 e4             	mov    -0x1c(%rbp),%eax
    d8f3:	48 98                	cltq
    d8f5:	48 8b 04 c2          	mov    (%rdx,%rax,8),%rax
    d8f9:	48 21 c8             	and    %rcx,%rax
    d8fc:	48 89 45 e8          	mov    %rax,-0x18(%rbp)
    d900:	48 83 7d e8 00       	cmpq   $0x0,-0x18(%rbp)
    d905:	0f 95 c0             	setne  %al
    d908:	84 c0                	test   %al,%al
    d90a:	74 09                	je     d915 <_Z11is_attackedP7board_tii+0x1e4>
    d90c:	48 8b 45 e8          	mov    -0x18(%rbp),%rax
    d910:	e9 fc 00 00 00       	jmp    da11 <_Z11is_attackedP7board_tii+0x2e0>
    d915:	48 8b 45 d8          	mov    -0x28(%rbp),%rax
    d919:	48 89 c7             	mov    %rax,%rdi
    d91c:	e8 ca 08 00 00       	call   e1eb <_Z10all_piecesPK7board_t>
    d921:	48 89 45 f8          	mov    %rax,-0x8(%rbp)
    d925:	8b 45 d0             	mov    -0x30(%rbp),%eax
    d928:	89 c6                	mov    %eax,%esi
    d92a:	bf 03 00 00 00       	mov    $0x3,%edi
    d92f:	e8 b3 ca ff ff       	call   a3e7 <_Z10set_colourii>
    d934:	89 45 e4             	mov    %eax,-0x1c(%rbp)
    d937:	48 8b 55 f8          	mov    -0x8(%rbp),%rdx
    d93b:	8b 45 d4             	mov    -0x2c(%rbp),%eax
    d93e:	48 89 d6             	mov    %rdx,%rsi
    d941:	89 c7                	mov    %eax,%edi
    d943:	e8 af 14 00 00       	call   edf7 <_Z7attacksILi3EEmim>
    d948:	48 89 c1             	mov    %rax,%rcx
    d94b:	48 8b 55 d8          	mov    -0x28(%rbp),%rdx
    d94f:	8b 45 e4             	mov    -0x1c(%rbp),%eax
    d952:	48 98                	cltq
    d954:	48 8b 04 c2          	mov    (%rdx,%rax,8),%rax
    d958:	48 21 c8             	and    %rcx,%rax
    d95b:	48 89 45 e8          	mov    %rax,-0x18(%rbp)
    d95f:	48 83 7d e8 00       	cmpq   $0x0,-0x18(%rbp)
    d964:	0f 95 c0             	setne  %al
    d967:	84 c0                	test   %al,%al
    d969:	74 09                	je     d974 <_Z11is_attackedP7board_tii+0x243>
    d96b:	48 8b 45 e8          	mov    -0x18(%rbp),%rax
    d96f:	e9 9d 00 00 00       	jmp    da11 <_Z11is_attackedP7board_tii+0x2e0>
    d974:	8b 45 d0             	mov    -0x30(%rbp),%eax
    d977:	89 c6                	mov    %eax,%esi
    d979:	bf 04 00 00 00       	mov    $0x4,%edi
    d97e:	e8 64 ca ff ff       	call   a3e7 <_Z10set_colourii>
    d983:	89 45 e4             	mov    %eax,-0x1c(%rbp)
    d986:	48 8b 55 f8          	mov    -0x8(%rbp),%rdx
    d98a:	8b 45 d4             	mov    -0x2c(%rbp),%eax
    d98d:	48 89 d6             	mov    %rdx,%rsi
    d990:	89 c7                	mov    %eax,%edi
    d992:	e8 c9 14 00 00       	call   ee60 <_Z7attacksILi4EEmim>
    d997:	48 89 c1             	mov    %rax,%rcx
    d99a:	48 8b 55 d8          	mov    -0x28(%rbp),%rdx
    d99e:	8b 45 e4             	mov    -0x1c(%rbp),%eax
    d9a1:	48 98                	cltq
    d9a3:	48 8b 04 c2          	mov    (%rdx,%rax,8),%rax
    d9a7:	48 21 c8             	and    %rcx,%rax
    d9aa:	48 89 45 e8          	mov    %rax,-0x18(%rbp)
    d9ae:	48 83 7d e8 00       	cmpq   $0x0,-0x18(%rbp)
    d9b3:	0f 95 c0             	setne  %al
    d9b6:	84 c0                	test   %al,%al
    d9b8:	74 06                	je     d9c0 <_Z11is_attackedP7board_tii+0x28f>
    d9ba:	48 8b 45 e8          	mov    -0x18(%rbp),%rax
    d9be:	eb 51                	jmp    da11 <_Z11is_attackedP7board_tii+0x2e0>
    d9c0:	8b 45 d0             	mov    -0x30(%rbp),%eax
    d9c3:	89 c6                	mov    %eax,%esi
    d9c5:	bf 05 00 00 00       	mov    $0x5,%edi
    d9ca:	e8 18 ca ff ff       	call   a3e7 <_Z10set_colourii>
    d9cf:	89 45 e4             	mov    %eax,-0x1c(%rbp)
    d9d2:	48 8b 55 f8          	mov    -0x8(%rbp),%rdx
    d9d6:	8b 45 d4             	mov    -0x2c(%rbp),%eax
    d9d9:	48 89 d6             	mov    %rdx,%rsi
    d9dc:	89 c7                	mov    %eax,%edi
    d9de:	e8 e6 14 00 00       	call   eec9 <_Z7attacksILi5EEmim>
    d9e3:	48 89 c1             	mov    %rax,%rcx
    d9e6:	48 8b 55 d8          	mov    -0x28(%rbp),%rdx
    d9ea:	8b 45 e4             	mov    -0x1c(%rbp),%eax
    d9ed:	48 98                	cltq
    d9ef:	48 8b 04 c2          	mov    (%rdx,%rax,8),%rax
    d9f3:	48 21 c8             	and    %rcx,%rax
    d9f6:	48 89 45 e8          	mov    %rax,-0x18(%rbp)
    d9fa:	48 83 7d e8 00       	cmpq   $0x0,-0x18(%rbp)
    d9ff:	0f 95 c0             	setne  %al
    da02:	84 c0                	test   %al,%al
    da04:	74 06                	je     da0c <_Z11is_attackedP7board_tii+0x2db>
    da06:	48 8b 45 e8          	mov    -0x18(%rbp),%rax
    da0a:	eb 05                	jmp    da11 <_Z11is_attackedP7board_tii+0x2e0>
    da0c:	b8 00 00 00 00       	mov    $0x0,%eax
    da11:	c9                   	leave
    da12:	c3                   	ret

000000000000da13 <_Z5perftP7board_tib>:
    da13:	55                   	push   %rbp
    da14:	48 89 e5             	mov    %rsp,%rbp
    da17:	41 54                	push   %r12
    da19:	53                   	push   %rbx
    da1a:	48 81 ec 60 20 00 00 	sub    $0x2060,%rsp
    da21:	48 89 bd 98 df ff ff 	mov    %rdi,-0x2068(%rbp)
    da28:	89 b5 94 df ff ff    	mov    %esi,-0x206c(%rbp)
    da2e:	89 d0                	mov    %edx,%eax
    da30:	88 85 90 df ff ff    	mov    %al,-0x2070(%rbp)
    da36:	64 48 8b 04 25 28 00 	mov    %fs:0x28,%rax
    da3d:	00 00 
    da3f:	48 89 45 e8          	mov    %rax,-0x18(%rbp)
    da43:	31 c0                	xor    %eax,%eax
    da45:	83 bd 94 df ff ff 00 	cmpl   $0x0,-0x206c(%rbp)
    da4c:	75 0a                	jne    da58 <_Z5perftP7board_tib+0x45>
    da4e:	b8 01 00 00 00       	mov    $0x1,%eax
    da53:	e9 82 01 00 00       	jmp    dbda <_Z5perftP7board_tib+0x1c7>
    da58:	48 c7 85 b0 df ff ff 	movq   $0x0,-0x2050(%rbp)
    da5f:	00 00 00 00 
    da63:	48 8d 85 e0 df ff ff 	lea    -0x2020(%rbp),%rax
    da6a:	bb 00 00 00 00       	mov    $0x0,%ebx
    da6f:	49 89 c4             	mov    %rax,%r12
    da72:	eb 12                	jmp    da86 <_Z5perftP7board_tib+0x73>
    da74:	4c 89 e7             	mov    %r12,%rdi
    da77:	e8 d4 07 00 00       	call   e250 <_ZN10movelist_tC1Ev>
    da7c:	48 ff cb             	dec    %rbx
    da7f:	49 81 c4 08 20 00 00 	add    $0x2008,%r12
    da86:	48 85 db             	test   %rbx,%rbx
    da89:	79 e9                	jns    da74 <_Z5perftP7board_tib+0x61>
    da8b:	48 8d 85 e0 df ff ff 	lea    -0x2020(%rbp),%rax
    da92:	48 8b 95 98 df ff ff 	mov    -0x2068(%rbp),%rdx
    da99:	48 89 c6             	mov    %rax,%rsi
    da9c:	48 89 d7             	mov    %rdx,%rdi
    da9f:	e8 40 fc ff ff       	call   d6e4 <_Z14generate_movesP7board_tP10movelist_t>
    daa4:	89 85 ac df ff ff    	mov    %eax,-0x2054(%rbp)
    daaa:	c7 85 a8 df ff ff 00 	movl   $0x0,-0x2058(%rbp)
    dab1:	00 00 00 
    dab4:	e9 08 01 00 00       	jmp    dbc1 <_Z5perftP7board_tib+0x1ae>
    dab9:	8b 85 a8 df ff ff    	mov    -0x2058(%rbp),%eax
    dabf:	48 98                	cltq
    dac1:	8b 94 85 e0 df ff ff 	mov    -0x2020(%rbp,%rax,4),%edx
    dac8:	48 8b 85 98 df ff ff 	mov    -0x2068(%rbp),%rax
    dacf:	89 d6                	mov    %edx,%esi
    dad1:	48 89 c7             	mov    %rax,%rdi
    dad4:	e8 25 a4 ff ff       	call   7efe <_Z9make_moveP7board_tj>
    dad9:	83 f0 01             	xor    $0x1,%eax
    dadc:	84 c0                	test   %al,%al
    dade:	0f 85 d6 00 00 00    	jne    dbba <_Z5perftP7board_tib+0x1a7>
    dae4:	8b 85 94 df ff ff    	mov    -0x206c(%rbp),%eax
    daea:	8d 48 ff             	lea    -0x1(%rax),%ecx
    daed:	48 8b 85 98 df ff ff 	mov    -0x2068(%rbp),%rax
    daf4:	ba 00 00 00 00       	mov    $0x0,%edx
    daf9:	89 ce                	mov    %ecx,%esi
    dafb:	48 89 c7             	mov    %rax,%rdi
    dafe:	e8 10 ff ff ff       	call   da13 <_Z5perftP7board_tib>
    db03:	48 89 85 b8 df ff ff 	mov    %rax,-0x2048(%rbp)
    db0a:	80 bd 90 df ff ff 00 	cmpb   $0x0,-0x2070(%rbp)
    db11:	0f 84 84 00 00 00    	je     db9b <_Z5perftP7board_tib+0x188>
    db17:	8b 85 a8 df ff ff    	mov    -0x2058(%rbp),%eax
    db1d:	48 98                	cltq
    db1f:	8b 94 85 e0 df ff ff 	mov    -0x2020(%rbp,%rax,4),%edx
    db26:	48 8d 85 c0 df ff ff 	lea    -0x2040(%rbp),%rax
    db2d:	89 d6                	mov    %edx,%esi
    db2f:	48 89 c7             	mov    %rax,%rdi
    db32:	e8 ed 03 00 00       	call   df24 <_Z11move_to_strB5cxx11j>
    db37:	48 8d 85 c0 df ff ff 	lea    -0x2040(%rbp),%rax
    db3e:	48 89 c6             	mov    %rax,%rsi
    db41:	48 8d 05 f8 aa 00 00 	lea    0xaaf8(%rip),%rax        # 18640 <_ZSt4cout@GLIBCXX_3.4>
    db48:	48 89 c7             	mov    %rax,%rdi
    db4b:	e8 c0 56 ff ff       	call   3210 <_ZStlsIcSt11char_traitsIcESaIcEERSt13basic_ostreamIT_T0_ES7_RKNSt7__cxx1112basic_stringIS4_S5_T1_EE@plt>
    db50:	48 89 c2             	mov    %rax,%rdx
    db53:	48 8d 05 eb 47 00 00 	lea    0x47eb(%rip),%rax        # 12345 <_ZZ16generate_castlesP7board_tP10movelist_tE5BQ_BB+0x25>
    db5a:	48 89 c6             	mov    %rax,%rsi
    db5d:	48 89 d7             	mov    %rdx,%rdi
    db60:	e8 bb 56 ff ff       	call   3220 <_ZStlsISt11char_traitsIcEERSt13basic_ostreamIcT_ES5_PKc@plt>
    db65:	48 89 c2             	mov    %rax,%rdx
    db68:	48 8b 85 b8 df ff ff 	mov    -0x2048(%rbp),%rax
    db6f:	48 89 c6             	mov    %rax,%rsi
    db72:	48 89 d7             	mov    %rdx,%rdi
    db75:	e8 f6 54 ff ff       	call   3070 <_ZNSolsEm@plt>
    db7a:	48 8b 15 2f a4 00 00 	mov    0xa42f(%rip),%rdx        # 17fb0 <_ZSt4endlIcSt11char_traitsIcEERSt13basic_ostreamIT_T0_ES6_@GLIBCXX_3.4>
    db81:	48 89 d6             	mov    %rdx,%rsi
    db84:	48 89 c7             	mov    %rax,%rdi
    db87:	e8 c4 56 ff ff       	call   3250 <_ZNSolsEPFRSoS_E@plt>
    db8c:	48 8d 85 c0 df ff ff 	lea    -0x2040(%rbp),%rax
    db93:	48 89 c7             	mov    %rax,%rdi
    db96:	e8 95 58 ff ff       	call   3430 <_ZNSt7__cxx1112basic_stringIcSt11char_traitsIcESaIcEED1Ev@plt>
    db9b:	48 8b 85 b8 df ff ff 	mov    -0x2048(%rbp),%rax
    dba2:	48 01 85 b0 df ff ff 	add    %rax,-0x2050(%rbp)
    dba9:	48 8b 85 98 df ff ff 	mov    -0x2068(%rbp),%rax
    dbb0:	48 89 c7             	mov    %rax,%rdi
    dbb3:	e8 88 b0 ff ff       	call   8c40 <_Z9undo_moveP7board_t>
    dbb8:	eb 01                	jmp    dbbb <_Z5perftP7board_tib+0x1a8>
    dbba:	90                   	nop
    dbbb:	ff 85 a8 df ff ff    	incl   -0x2058(%rbp)
    dbc1:	8b 85 a8 df ff ff    	mov    -0x2058(%rbp),%eax
    dbc7:	3b 85 ac df ff ff    	cmp    -0x2054(%rbp),%eax
    dbcd:	0f 8c e6 fe ff ff    	jl     dab9 <_Z5perftP7board_tib+0xa6>
    dbd3:	48 8b 85 b0 df ff ff 	mov    -0x2050(%rbp),%rax
    dbda:	48 8b 55 e8          	mov    -0x18(%rbp),%rdx
    dbde:	64 48 2b 14 25 28 00 	sub    %fs:0x28,%rdx
    dbe5:	00 00 
    dbe7:	74 38                	je     dc21 <_Z5perftP7board_tib+0x20e>
    dbe9:	eb 31                	jmp    dc1c <_Z5perftP7board_tib+0x209>
    dbeb:	48 89 c3             	mov    %rax,%rbx
    dbee:	48 8d 85 c0 df ff ff 	lea    -0x2040(%rbp),%rax
    dbf5:	48 89 c7             	mov    %rax,%rdi
    dbf8:	e8 33 58 ff ff       	call   3430 <_ZNSt7__cxx1112basic_stringIcSt11char_traitsIcESaIcEED1Ev@plt>
    dbfd:	48 89 d8             	mov    %rbx,%rax
    dc00:	48 8b 55 e8          	mov    -0x18(%rbp),%rdx
    dc04:	64 48 2b 14 25 28 00 	sub    %fs:0x28,%rdx
    dc0b:	00 00 
    dc0d:	74 05                	je     dc14 <_Z5perftP7board_tib+0x201>
    dc0f:	e8 8c 56 ff ff       	call   32a0 <__stack_chk_fail@plt>
    dc14:	48 89 c7             	mov    %rax,%rdi
    dc17:	e8 b4 57 ff ff       	call   33d0 <_Unwind_Resume@plt>
    dc1c:	e8 7f 56 ff ff       	call   32a0 <__stack_chk_fail@plt>
    dc21:	48 81 c4 60 20 00 00 	add    $0x2060,%rsp
    dc28:	5b                   	pop    %rbx
    dc29:	41 5c                	pop    %r12
    dc2b:	5d                   	pop    %rbp
    dc2c:	c3                   	ret

000000000000dc2d <_Z41__static_initialization_and_destruction_0v>:
    dc2d:	55                   	push   %rbp
    dc2e:	48 89 e5             	mov    %rsp,%rbp
    dc31:	41 52                	push   %r10
    dc33:	53                   	push   %rbx
    dc34:	48 83 c4 80          	add    $0xffffffffffffff80,%rsp
    dc38:	4c 8d 55 10          	lea    0x10(%rbp),%r10
    dc3c:	64 48 8b 0c 25 28 00 	mov    %fs:0x28,%rcx
    dc43:	00 00 
    dc45:	48 89 4d e8          	mov    %rcx,-0x18(%rbp)
    dc49:	31 c9                	xor    %ecx,%ecx
    dc4b:	48 8d 0d 66 ec 0d 00 	lea    0xdec66(%rip),%rcx        # ec8b8 <_ZGV13char_to_piece>
    dc52:	0f b6 09             	movzbl (%rcx),%ecx
    dc55:	84 c9                	test   %cl,%cl
    dc57:	0f 85 71 01 00 00    	jne    ddce <_Z41__static_initialization_and_destruction_0v+0x1a1>
    dc5d:	48 8d 0d 54 ec 0d 00 	lea    0xdec54(%rip),%rcx        # ec8b8 <_ZGV13char_to_piece>
    dc64:	c6 01 01             	movb   $0x1,(%rcx)
    dc67:	c5 f9 ef c0          	vpxor  %xmm0,%xmm0,%xmm0
    dc6b:	c5 fe 7f 45 80       	vmovdqu %ymm0,-0x80(%rbp)
    dc70:	c5 fe 7f 45 a0       	vmovdqu %ymm0,-0x60(%rbp)
    dc75:	c5 fe 7f 45 c0       	vmovdqu %ymm0,-0x40(%rbp)
    dc7a:	c5 f9 d6 45 e0       	vmovq  %xmm0,-0x20(%rbp)
    dc7f:	c6 45 80 30          	movb   $0x30,-0x80(%rbp)
    dc83:	c6 45 88 50          	movb   $0x50,-0x78(%rbp)
    dc87:	c7 45 8c 01 00 00 00 	movl   $0x1,-0x74(%rbp)
    dc8e:	c6 45 90 52          	movb   $0x52,-0x70(%rbp)
    dc92:	c7 45 94 04 00 00 00 	movl   $0x4,-0x6c(%rbp)
    dc99:	c6 45 98 4e          	movb   $0x4e,-0x68(%rbp)
    dc9d:	c7 45 9c 02 00 00 00 	movl   $0x2,-0x64(%rbp)
    dca4:	c6 45 a0 42          	movb   $0x42,-0x60(%rbp)
    dca8:	c7 45 a4 03 00 00 00 	movl   $0x3,-0x5c(%rbp)
    dcaf:	c6 45 a8 51          	movb   $0x51,-0x58(%rbp)
    dcb3:	c7 45 ac 05 00 00 00 	movl   $0x5,-0x54(%rbp)
    dcba:	c6 45 b0 4b          	movb   $0x4b,-0x50(%rbp)
    dcbe:	c7 45 b4 06 00 00 00 	movl   $0x6,-0x4c(%rbp)
    dcc5:	c6 45 b8 70          	movb   $0x70,-0x48(%rbp)
    dcc9:	c7 45 bc 09 00 00 00 	movl   $0x9,-0x44(%rbp)
    dcd0:	c6 45 c0 6e          	movb   $0x6e,-0x40(%rbp)
    dcd4:	c7 45 c4 0a 00 00 00 	movl   $0xa,-0x3c(%rbp)
    dcdb:	c6 45 c8 72          	movb   $0x72,-0x38(%rbp)
    dcdf:	c7 45 cc 0c 00 00 00 	movl   $0xc,-0x34(%rbp)
    dce6:	c6 45 d0 62          	movb   $0x62,-0x30(%rbp)
    dcea:	c7 45 d4 0b 00 00 00 	movl   $0xb,-0x2c(%rbp)
    dcf1:	c6 45 d8 71          	movb   $0x71,-0x28(%rbp)
    dcf5:	c7 45 dc 0d 00 00 00 	movl   $0xd,-0x24(%rbp)
    dcfc:	c6 45 e0 6b          	movb   $0x6b,-0x20(%rbp)
    dd00:	c7 45 e4 0e 00 00 00 	movl   $0xe,-0x1c(%rbp)
    dd07:	48 8d 4d 80          	lea    -0x80(%rbp),%rcx
    dd0b:	48 89 c8             	mov    %rcx,%rax
    dd0e:	ba 0d 00 00 00       	mov    $0xd,%edx
    dd13:	48 8d 8d 77 ff ff ff 	lea    -0x89(%rbp),%rcx
    dd1a:	48 89 8d 78 ff ff ff 	mov    %rcx,-0x88(%rbp)
    dd21:	90                   	nop
    dd22:	90                   	nop
    dd23:	48 8d b5 76 ff ff ff 	lea    -0x8a(%rbp),%rsi
    dd2a:	48 8d 8d 75 ff ff ff 	lea    -0x8b(%rbp),%rcx
    dd31:	49 89 c0             	mov    %rax,%r8
    dd34:	49 89 d1             	mov    %rdx,%r9
    dd37:	4c 89 c7             	mov    %r8,%rdi
    dd3a:	48 83 ec 08          	sub    $0x8,%rsp
    dd3e:	48 8d 85 77 ff ff ff 	lea    -0x89(%rbp),%rax
    dd45:	50                   	push   %rax
    dd46:	49 89 f1             	mov    %rsi,%r9
    dd49:	49 89 c8             	mov    %rcx,%r8
    dd4c:	b9 00 00 00 00       	mov    $0x0,%ecx
    dd51:	48 89 fe             	mov    %rdi,%rsi
    dd54:	48 8d 05 25 eb 0d 00 	lea    0xdeb25(%rip),%rax        # ec880 <char_to_piece>
    dd5b:	48 89 c7             	mov    %rax,%rdi
    dd5e:	e8 59 65 ff ff       	call   42bc <_ZNSt13unordered_mapIciSt4hashIcESt8equal_toIcESaISt4pairIKciEEEC1ESt16initializer_listIS6_EmRKS1_RKS3_RKS7_>
    dd63:	48 83 c4 10          	add    $0x10,%rsp
    dd67:	48 8d 85 77 ff ff ff 	lea    -0x89(%rbp),%rax
    dd6e:	48 89 c7             	mov    %rax,%rdi
    dd71:	e8 b2 65 ff ff       	call   4328 <_ZNSt15__new_allocatorISt4pairIKciEED1Ev>
    dd76:	90                   	nop
    dd77:	48 8d 05 8a a4 00 00 	lea    0xa48a(%rip),%rax        # 18208 <__dso_handle>
    dd7e:	48 89 c2             	mov    %rax,%rdx
    dd81:	48 8d 05 f8 ea 0d 00 	lea    0xdeaf8(%rip),%rax        # ec880 <char_to_piece>
    dd88:	48 89 c6             	mov    %rax,%rsi
    dd8b:	48 8d 05 22 83 ff ff 	lea    -0x7cde(%rip),%rax        # 60b4 <_ZNSt13unordered_mapIciSt4hashIcESt8equal_toIcESaISt4pairIKciEEED1Ev>
    dd92:	48 89 c7             	mov    %rax,%rdi
    dd95:	e8 66 54 ff ff       	call   3200 <__cxa_atexit@plt>
    dd9a:	eb 32                	jmp    ddce <_Z41__static_initialization_and_destruction_0v+0x1a1>
    dd9c:	48 89 c3             	mov    %rax,%rbx
    dd9f:	48 8d 85 77 ff ff ff 	lea    -0x89(%rbp),%rax
    dda6:	48 89 c7             	mov    %rax,%rdi
    dda9:	e8 7a 65 ff ff       	call   4328 <_ZNSt15__new_allocatorISt4pairIKciEED1Ev>
    ddae:	90                   	nop
    ddaf:	48 89 d8             	mov    %rbx,%rax
    ddb2:	48 8b 55 e8          	mov    -0x18(%rbp),%rdx
    ddb6:	64 48 2b 14 25 28 00 	sub    %fs:0x28,%rdx
    ddbd:	00 00 
    ddbf:	74 05                	je     ddc6 <_Z41__static_initialization_and_destruction_0v+0x199>
    ddc1:	e8 da 54 ff ff       	call   32a0 <__stack_chk_fail@plt>
    ddc6:	48 89 c7             	mov    %rax,%rdi
    ddc9:	e8 02 56 ff ff       	call   33d0 <_Unwind_Resume@plt>
    ddce:	90                   	nop
    ddcf:	48 8b 45 e8          	mov    -0x18(%rbp),%rax
    ddd3:	64 48 2b 04 25 28 00 	sub    %fs:0x28,%rax
    ddda:	00 00 
    dddc:	74 05                	je     dde3 <_Z41__static_initialization_and_destruction_0v+0x1b6>
    ddde:	e8 bd 54 ff ff       	call   32a0 <__stack_chk_fail@plt>
    dde3:	48 8d 65 f0          	lea    -0x10(%rbp),%rsp
    dde7:	5b                   	pop    %rbx
    dde8:	41 5a                	pop    %r10
    ddea:	5d                   	pop    %rbp
    ddeb:	c3                   	ret

000000000000ddec <_GLOBAL__sub_I__Z19generate_promotionsP7board_tP10movelist_t>:
    ddec:	55                   	push   %rbp
    dded:	48 89 e5             	mov    %rsp,%rbp
    ddf0:	e8 38 fe ff ff       	call   dc2d <_Z41__static_initialization_and_destruction_0v>
    ddf5:	5d                   	pop    %rbp
    ddf6:	c3                   	ret
    ddf7:	90                   	nop

000000000000ddf8 <_ZNK10movelist_t4sizeEv>:
    ddf8:	55                   	push   %rbp
    ddf9:	48 89 e5             	mov    %rsp,%rbp
    ddfc:	48 89 7d f8          	mov    %rdi,-0x8(%rbp)
    de00:	48 8b 45 f8          	mov    -0x8(%rbp),%rax
    de04:	48 8b 90 00 20 00 00 	mov    0x2000(%rax),%rdx
    de0b:	48 8b 45 f8          	mov    -0x8(%rbp),%rax
    de0f:	48 29 c2             	sub    %rax,%rdx
    de12:	48 89 d0             	mov    %rdx,%rax
    de15:	48 c1 f8 02          	sar    $0x2,%rax
    de19:	5d                   	pop    %rbp
    de1a:	c3                   	ret
    de1b:	90                   	nop

000000000000de1c <_ZN10movelist_t9push_backERKj>:
    de1c:	55                   	push   %rbp
    de1d:	48 89 e5             	mov    %rsp,%rbp
    de20:	48 83 ec 10          	sub    $0x10,%rsp
    de24:	48 89 7d f8          	mov    %rdi,-0x8(%rbp)
    de28:	48 89 75 f0          	mov    %rsi,-0x10(%rbp)
    de2c:	48 8b 45 f8          	mov    -0x8(%rbp),%rax
    de30:	48 89 c7             	mov    %rax,%rdi
    de33:	e8 c0 ff ff ff       	call   ddf8 <_ZNK10movelist_t4sizeEv>
    de38:	48 3d ff 07 00 00    	cmp    $0x7ff,%rax
    de3e:	0f 97 c0             	seta   %al
    de41:	84 c0                	test   %al,%al
    de43:	0f 84 9b 00 00 00    	je     dee4 <_ZN10movelist_t9push_backERKj+0xc8>
    de49:	48 8d 05 a0 42 00 00 	lea    0x42a0(%rip),%rax        # 120f0 <_ZL14piece_to_ascii+0x10>
    de50:	48 89 c6             	mov    %rax,%rsi
    de53:	48 8d 05 a9 42 00 00 	lea    0x42a9(%rip),%rax        # 12103 <_ZL14piece_to_ascii+0x23>
    de5a:	48 89 c7             	mov    %rax,%rdi
    de5d:	b8 00 00 00 00       	mov    $0x0,%eax
    de62:	e8 e9 51 ff ff       	call   3050 <printf@plt>
    de67:	48 8d 05 a2 42 00 00 	lea    0x42a2(%rip),%rax        # 12110 <_ZL14piece_to_ascii+0x30>
    de6e:	48 89 c6             	mov    %rax,%rsi
    de71:	48 8d 05 a4 42 00 00 	lea    0x42a4(%rip),%rax        # 1211c <_ZL14piece_to_ascii+0x3c>
    de78:	48 89 c7             	mov    %rax,%rdi
    de7b:	b8 00 00 00 00       	mov    $0x0,%eax
    de80:	e8 cb 51 ff ff       	call   3050 <printf@plt>
    de85:	48 8d 05 97 42 00 00 	lea    0x4297(%rip),%rax        # 12123 <_ZL14piece_to_ascii+0x43>
    de8c:	48 89 c6             	mov    %rax,%rsi
    de8f:	48 8d 05 96 42 00 00 	lea    0x4296(%rip),%rax        # 1212c <_ZL14piece_to_ascii+0x4c>
    de96:	48 89 c7             	mov    %rax,%rdi
    de99:	b8 00 00 00 00       	mov    $0x0,%eax
    de9e:	e8 ad 51 ff ff       	call   3050 <printf@plt>
    dea3:	48 8d 05 89 42 00 00 	lea    0x4289(%rip),%rax        # 12133 <_ZL14piece_to_ascii+0x53>
    deaa:	48 89 c6             	mov    %rax,%rsi
    dead:	48 8d 05 8b 42 00 00 	lea    0x428b(%rip),%rax        # 1213f <_ZL14piece_to_ascii+0x5f>
    deb4:	48 89 c7             	mov    %rax,%rdi
    deb7:	b8 00 00 00 00       	mov    $0x0,%eax
    debc:	e8 8f 51 ff ff       	call   3050 <printf@plt>
    dec1:	be da 00 00 00       	mov    $0xda,%esi
    dec6:	48 8d 05 7e 42 00 00 	lea    0x427e(%rip),%rax        # 1214b <_ZL14piece_to_ascii+0x6b>
    decd:	48 89 c7             	mov    %rax,%rdi
    ded0:	b8 00 00 00 00       	mov    $0x0,%eax
    ded5:	e8 76 51 ff ff       	call   3050 <printf@plt>
    deda:	bf 01 00 00 00       	mov    $0x1,%edi
    dedf:	e8 ec 53 ff ff       	call   32d0 <exit@plt>
    dee4:	48 8b 45 f0          	mov    -0x10(%rbp),%rax
    dee8:	8b 08                	mov    (%rax),%ecx
    deea:	48 8b 45 f8          	mov    -0x8(%rbp),%rax
    deee:	48 8b 80 00 20 00 00 	mov    0x2000(%rax),%rax
    def5:	48 8d 50 04          	lea    0x4(%rax),%rdx
    def9:	48 8b 75 f8          	mov    -0x8(%rbp),%rsi
    defd:	48 89 96 00 20 00 00 	mov    %rdx,0x2000(%rsi)
    df04:	89 08                	mov    %ecx,(%rax)
    df06:	90                   	nop
    df07:	c9                   	leave
    df08:	c3                   	ret
    df09:	90                   	nop

000000000000df0a <_ZN10movelist_t5clearEv>:
    df0a:	55                   	push   %rbp
    df0b:	48 89 e5             	mov    %rsp,%rbp
    df0e:	48 89 7d f8          	mov    %rdi,-0x8(%rbp)
    df12:	48 8b 55 f8          	mov    -0x8(%rbp),%rdx
    df16:	48 8b 45 f8          	mov    -0x8(%rbp),%rax
    df1a:	48 89 90 00 20 00 00 	mov    %rdx,0x2000(%rax)
    df21:	90                   	nop
    df22:	5d                   	pop    %rbp
    df23:	c3                   	ret

000000000000df24 <_Z11move_to_strB5cxx11j>:
    df24:	55                   	push   %rbp
    df25:	48 89 e5             	mov    %rsp,%rbp
    df28:	53                   	push   %rbx
    df29:	48 81 ec a8 00 00 00 	sub    $0xa8,%rsp
    df30:	48 89 bd 58 ff ff ff 	mov    %rdi,-0xa8(%rbp)
    df37:	89 b5 54 ff ff ff    	mov    %esi,-0xac(%rbp)
    df3d:	64 48 8b 04 25 28 00 	mov    %fs:0x28,%rax
    df44:	00 00 
    df46:	48 89 45 e8          	mov    %rax,-0x18(%rbp)
    df4a:	31 c0                	xor    %eax,%eax
    df4c:	83 bd 54 ff ff ff 00 	cmpl   $0x0,-0xac(%rbp)
    df53:	75 47                	jne    df9c <_Z11move_to_strB5cxx11j+0x78>
    df55:	48 8d 85 6a ff ff ff 	lea    -0x96(%rbp),%rax
    df5c:	48 89 85 78 ff ff ff 	mov    %rax,-0x88(%rbp)
    df63:	90                   	nop
    df64:	90                   	nop
    df65:	48 8d 85 6a ff ff ff 	lea    -0x96(%rbp),%rax
    df6c:	48 8b 8d 58 ff ff ff 	mov    -0xa8(%rbp),%rcx
    df73:	48 89 c2             	mov    %rax,%rdx
    df76:	48 8d 05 da 41 00 00 	lea    0x41da(%rip),%rax        # 12157 <_ZL14piece_to_ascii+0x77>
    df7d:	48 89 c6             	mov    %rax,%rsi
    df80:	48 89 cf             	mov    %rcx,%rdi
    df83:	e8 3c c8 ff ff       	call   a7c4 <_ZNSt7__cxx1112basic_stringIcSt11char_traitsIcESaIcEEC1IS3_EEPKcRKS3_>
    df88:	48 8d 85 6a ff ff ff 	lea    -0x96(%rbp),%rax
    df8f:	48 89 c7             	mov    %rax,%rdi
    df92:	e8 b1 cb ff ff       	call   ab48 <_ZNSt15__new_allocatorIcED1Ev>
    df97:	e9 b6 01 00 00       	jmp    e152 <_Z11move_to_strB5cxx11j+0x22e>
    df9c:	8b 85 54 ff ff ff    	mov    -0xac(%rbp),%eax
    dfa2:	c1 e8 06             	shr    $0x6,%eax
    dfa5:	83 e0 3f             	and    $0x3f,%eax
    dfa8:	89 85 6c ff ff ff    	mov    %eax,-0x94(%rbp)
    dfae:	8b 85 54 ff ff ff    	mov    -0xac(%rbp),%eax
    dfb4:	83 e0 3f             	and    $0x3f,%eax
    dfb7:	89 85 70 ff ff ff    	mov    %eax,-0x90(%rbp)
    dfbd:	8b 85 54 ff ff ff    	mov    -0xac(%rbp),%eax
    dfc3:	c1 e8 0c             	shr    $0xc,%eax
    dfc6:	83 e0 0f             	and    $0xf,%eax
    dfc9:	89 85 74 ff ff ff    	mov    %eax,-0x8c(%rbp)
    dfcf:	48 8d 45 c0          	lea    -0x40(%rbp),%rax
    dfd3:	8b 95 70 ff ff ff    	mov    -0x90(%rbp),%edx
    dfd9:	89 d6                	mov    %edx,%esi
    dfdb:	48 89 c7             	mov    %rax,%rdi
    dfde:	e8 1e c3 ff ff       	call   a301 <_Z13square_to_strB5cxx11i>
    dfe3:	48 8d 45 a0          	lea    -0x60(%rbp),%rax
    dfe7:	8b 95 6c ff ff ff    	mov    -0x94(%rbp),%edx
    dfed:	89 d6                	mov    %edx,%esi
    dfef:	48 89 c7             	mov    %rax,%rdi
    dff2:	e8 0a c3 ff ff       	call   a301 <_Z13square_to_strB5cxx11i>
    dff7:	48 8d 45 80          	lea    -0x80(%rbp),%rax
    dffb:	48 8d 55 c0          	lea    -0x40(%rbp),%rdx
    dfff:	48 8d 4d a0          	lea    -0x60(%rbp),%rcx
    e003:	48 89 ce             	mov    %rcx,%rsi
    e006:	48 89 c7             	mov    %rax,%rdi
    e009:	e8 5c 02 00 00       	call   e26a <_ZStplIcSt11char_traitsIcESaIcEENSt7__cxx1112basic_stringIT_T0_T1_EEOS8_S9_>
    e00e:	48 8d 45 a0          	lea    -0x60(%rbp),%rax
    e012:	48 89 c7             	mov    %rax,%rdi
    e015:	e8 16 54 ff ff       	call   3430 <_ZNSt7__cxx1112basic_stringIcSt11char_traitsIcESaIcEED1Ev@plt>
    e01a:	48 8d 45 c0          	lea    -0x40(%rbp),%rax
    e01e:	48 89 c7             	mov    %rax,%rdi
    e021:	e8 0a 54 ff ff       	call   3430 <_ZNSt7__cxx1112basic_stringIcSt11char_traitsIcESaIcEED1Ev@plt>
    e026:	8b 85 54 ff ff ff    	mov    -0xac(%rbp),%eax
    e02c:	25 00 80 00 00       	and    $0x8000,%eax
    e031:	85 c0                	test   %eax,%eax
    e033:	74 57                	je     e08c <_Z11move_to_strB5cxx11j+0x168>
    e035:	8b 85 74 ff ff ff    	mov    -0x8c(%rbp),%eax
    e03b:	83 e0 fb             	and    $0xfffffffb,%eax
    e03e:	83 f8 0a             	cmp    $0xa,%eax
    e041:	74 1a                	je     e05d <_Z11move_to_strB5cxx11j+0x139>
    e043:	83 f8 0a             	cmp    $0xa,%eax
    e046:	7f 27                	jg     e06f <_Z11move_to_strB5cxx11j+0x14b>
    e048:	83 f8 08             	cmp    $0x8,%eax
    e04b:	74 07                	je     e054 <_Z11move_to_strB5cxx11j+0x130>
    e04d:	83 f8 09             	cmp    $0x9,%eax
    e050:	74 14                	je     e066 <_Z11move_to_strB5cxx11j+0x142>
    e052:	eb 1b                	jmp    e06f <_Z11move_to_strB5cxx11j+0x14b>
    e054:	c6 85 6b ff ff ff 6e 	movb   $0x6e,-0x95(%rbp)
    e05b:	eb 1a                	jmp    e077 <_Z11move_to_strB5cxx11j+0x153>
    e05d:	c6 85 6b ff ff ff 72 	movb   $0x72,-0x95(%rbp)
    e064:	eb 11                	jmp    e077 <_Z11move_to_strB5cxx11j+0x153>
    e066:	c6 85 6b ff ff ff 62 	movb   $0x62,-0x95(%rbp)
    e06d:	eb 08                	jmp    e077 <_Z11move_to_strB5cxx11j+0x153>
    e06f:	c6 85 6b ff ff ff 71 	movb   $0x71,-0x95(%rbp)
    e076:	90                   	nop
    e077:	0f be 95 6b ff ff ff 	movsbl -0x95(%rbp),%edx
    e07e:	48 8d 45 80          	lea    -0x80(%rbp),%rax
    e082:	89 d6                	mov    %edx,%esi
    e084:	48 89 c7             	mov    %rax,%rdi
    e087:	e8 64 51 ff ff       	call   31f0 <_ZNSt7__cxx1112basic_stringIcSt11char_traitsIcESaIcEE9push_backEc@plt>
    e08c:	48 8d 45 80          	lea    -0x80(%rbp),%rax
    e090:	48 8b 95 58 ff ff ff 	mov    -0xa8(%rbp),%rdx
    e097:	48 89 c6             	mov    %rax,%rsi
    e09a:	48 89 d7             	mov    %rdx,%rdi
    e09d:	e8 7e 50 ff ff       	call   3120 <_ZNSt7__cxx1112basic_stringIcSt11char_traitsIcESaIcEEC1EOS4_@plt>
    e0a2:	48 8d 45 80          	lea    -0x80(%rbp),%rax
    e0a6:	48 89 c7             	mov    %rax,%rdi
    e0a9:	e8 82 53 ff ff       	call   3430 <_ZNSt7__cxx1112basic_stringIcSt11char_traitsIcESaIcEED1Ev@plt>
    e0ae:	e9 9f 00 00 00       	jmp    e152 <_Z11move_to_strB5cxx11j+0x22e>
    e0b3:	48 89 c3             	mov    %rax,%rbx
    e0b6:	48 8d 85 6a ff ff ff 	lea    -0x96(%rbp),%rax
    e0bd:	48 89 c7             	mov    %rax,%rdi
    e0c0:	e8 83 ca ff ff       	call   ab48 <_ZNSt15__new_allocatorIcED1Ev>
    e0c5:	90                   	nop
    e0c6:	48 89 d8             	mov    %rbx,%rax
    e0c9:	48 8b 55 e8          	mov    -0x18(%rbp),%rdx
    e0cd:	64 48 2b 14 25 28 00 	sub    %fs:0x28,%rdx
    e0d4:	00 00 
    e0d6:	74 05                	je     e0dd <_Z11move_to_strB5cxx11j+0x1b9>
    e0d8:	e8 c3 51 ff ff       	call   32a0 <__stack_chk_fail@plt>
    e0dd:	48 89 c7             	mov    %rax,%rdi
    e0e0:	e8 eb 52 ff ff       	call   33d0 <_Unwind_Resume@plt>
    e0e5:	48 89 c3             	mov    %rax,%rbx
    e0e8:	48 8d 45 a0          	lea    -0x60(%rbp),%rax
    e0ec:	48 89 c7             	mov    %rax,%rdi
    e0ef:	e8 3c 53 ff ff       	call   3430 <_ZNSt7__cxx1112basic_stringIcSt11char_traitsIcESaIcEED1Ev@plt>
    e0f4:	eb 03                	jmp    e0f9 <_Z11move_to_strB5cxx11j+0x1d5>
    e0f6:	48 89 c3             	mov    %rax,%rbx
    e0f9:	48 8d 45 c0          	lea    -0x40(%rbp),%rax
    e0fd:	48 89 c7             	mov    %rax,%rdi
    e100:	e8 2b 53 ff ff       	call   3430 <_ZNSt7__cxx1112basic_stringIcSt11char_traitsIcESaIcEED1Ev@plt>
    e105:	48 89 d8             	mov    %rbx,%rax
    e108:	48 8b 55 e8          	mov    -0x18(%rbp),%rdx
    e10c:	64 48 2b 14 25 28 00 	sub    %fs:0x28,%rdx
    e113:	00 00 
    e115:	74 05                	je     e11c <_Z11move_to_strB5cxx11j+0x1f8>
    e117:	e8 84 51 ff ff       	call   32a0 <__stack_chk_fail@plt>
    e11c:	48 89 c7             	mov    %rax,%rdi
    e11f:	e8 ac 52 ff ff       	call   33d0 <_Unwind_Resume@plt>
    e124:	48 89 c3             	mov    %rax,%rbx
    e127:	48 8d 45 80          	lea    -0x80(%rbp),%rax
    e12b:	48 89 c7             	mov    %rax,%rdi
    e12e:	e8 fd 52 ff ff       	call   3430 <_ZNSt7__cxx1112basic_stringIcSt11char_traitsIcESaIcEED1Ev@plt>
    e133:	48 89 d8             	mov    %rbx,%rax
    e136:	48 8b 55 e8          	mov    -0x18(%rbp),%rdx
    e13a:	64 48 2b 14 25 28 00 	sub    %fs:0x28,%rdx
    e141:	00 00 
    e143:	74 05                	je     e14a <_Z11move_to_strB5cxx11j+0x226>
    e145:	e8 56 51 ff ff       	call   32a0 <__stack_chk_fail@plt>
    e14a:	48 89 c7             	mov    %rax,%rdi
    e14d:	e8 7e 52 ff ff       	call   33d0 <_Unwind_Resume@plt>
    e152:	48 8b 45 e8          	mov    -0x18(%rbp),%rax
    e156:	64 48 2b 04 25 28 00 	sub    %fs:0x28,%rax
    e15d:	00 00 
    e15f:	74 05                	je     e166 <_Z11move_to_strB5cxx11j+0x242>
    e161:	e8 3a 51 ff ff       	call   32a0 <__stack_chk_fail@plt>
    e166:	48 8b 85 58 ff ff ff 	mov    -0xa8(%rbp),%rax
    e16d:	48 8b 5d f8          	mov    -0x8(%rbp),%rbx
    e171:	c9                   	leave
    e172:	c3                   	ret

000000000000e173 <_Z13NOT_PROMOTINGi>:
    e173:	55                   	push   %rbp
    e174:	48 89 e5             	mov    %rsp,%rbp
    e177:	89 7d fc             	mov    %edi,-0x4(%rbp)
    e17a:	83 7d fc 00          	cmpl   $0x0,-0x4(%rbp)
    e17e:	74 0c                	je     e18c <_Z13NOT_PROMOTINGi+0x19>
    e180:	48 b8 ff ff ff ff ff 	movabs $0xff00ffffffffffff,%rax
    e187:	ff 00 ff 
    e18a:	eb 07                	jmp    e193 <_Z13NOT_PROMOTINGi+0x20>
    e18c:	48 c7 c0 ff 00 ff ff 	mov    $0xffffffffffff00ff,%rax
    e193:	5d                   	pop    %rbp
    e194:	c3                   	ret

000000000000e195 <_Z9PROMOTINGi>:
    e195:	55                   	push   %rbp
    e196:	48 89 e5             	mov    %rsp,%rbp
    e199:	89 7d fc             	mov    %edi,-0x4(%rbp)
    e19c:	83 7d fc 00          	cmpl   $0x0,-0x4(%rbp)
    e1a0:	74 0c                	je     e1ae <_Z9PROMOTINGi+0x19>
    e1a2:	48 b8 00 00 00 00 00 	movabs $0xff000000000000,%rax
    e1a9:	00 ff 00 
    e1ac:	eb 05                	jmp    e1b3 <_Z9PROMOTINGi+0x1e>
    e1ae:	b8 00 ff 00 00       	mov    $0xff00,%eax
    e1b3:	5d                   	pop    %rbp
    e1b4:	c3                   	ret

000000000000e1b5 <_Z10RANK_TO_BBii>:
    e1b5:	55                   	push   %rbp
    e1b6:	48 89 e5             	mov    %rsp,%rbp
    e1b9:	89 7d fc             	mov    %edi,-0x4(%rbp)
    e1bc:	89 75 f8             	mov    %esi,-0x8(%rbp)
    e1bf:	83 7d f8 00          	cmpl   $0x0,-0x8(%rbp)
    e1c3:	74 07                	je     e1cc <_Z10RANK_TO_BBii+0x17>
    e1c5:	8b 45 fc             	mov    -0x4(%rbp),%eax
    e1c8:	ff c8                	dec    %eax
    e1ca:	eb 08                	jmp    e1d4 <_Z10RANK_TO_BBii+0x1f>
    e1cc:	b8 07 00 00 00       	mov    $0x7,%eax
    e1d1:	2b 45 fc             	sub    -0x4(%rbp),%eax
    e1d4:	48 98                	cltq
    e1d6:	48 8d 14 c5 00 00 00 	lea    0x0(,%rax,8),%rdx
    e1dd:	00 
    e1de:	48 8d 05 1b e7 0d 00 	lea    0xde71b(%rip),%rax        # ec900 <rankBBMask>
    e1e5:	48 8b 04 02          	mov    (%rdx,%rax,1),%rax
    e1e9:	5d                   	pop    %rbp
    e1ea:	c3                   	ret

000000000000e1eb <_Z10all_piecesPK7board_t>:
    e1eb:	55                   	push   %rbp
    e1ec:	48 89 e5             	mov    %rsp,%rbp
    e1ef:	48 89 7d f8          	mov    %rdi,-0x8(%rbp)
    e1f3:	48 8b 45 f8          	mov    -0x8(%rbp),%rax
    e1f7:	48 8b 90 78 01 00 00 	mov    0x178(%rax),%rdx
    e1fe:	48 8b 45 f8          	mov    -0x8(%rbp),%rax
    e202:	48 8b 80 80 01 00 00 	mov    0x180(%rax),%rax
    e209:	48 09 d0             	or     %rdx,%rax
    e20c:	5d                   	pop    %rbp
    e20d:	c3                   	ret

000000000000e20e <_Z7attacksILi2EEmi>:
    e20e:	55                   	push   %rbp
    e20f:	48 89 e5             	mov    %rsp,%rbp
    e212:	89 7d fc             	mov    %edi,-0x4(%rbp)
    e215:	8b 45 fc             	mov    -0x4(%rbp),%eax
    e218:	48 98                	cltq
    e21a:	48 8d 14 c5 00 00 00 	lea    0x0(,%rax,8),%rdx
    e221:	00 
    e222:	48 8d 05 57 aa 00 00 	lea    0xaa57(%rip),%rax        # 18c80 <knight_attacks>
    e229:	48 8b 04 02          	mov    (%rdx,%rax,1),%rax
    e22d:	5d                   	pop    %rbp
    e22e:	c3                   	ret

000000000000e22f <_Z7attacksILi6EEmi>:
    e22f:	55                   	push   %rbp
    e230:	48 89 e5             	mov    %rsp,%rbp
    e233:	89 7d fc             	mov    %edi,-0x4(%rbp)
    e236:	8b 45 fc             	mov    -0x4(%rbp),%eax
    e239:	48 98                	cltq
    e23b:	48 8d 14 c5 00 00 00 	lea    0x0(,%rax,8),%rdx
    e242:	00 
    e243:	48 8d 05 36 ac 00 00 	lea    0xac36(%rip),%rax        # 18e80 <king_attacks>
    e24a:	48 8b 04 02          	mov    (%rdx,%rax,1),%rax
    e24e:	5d                   	pop    %rbp
    e24f:	c3                   	ret

000000000000e250 <_ZN10movelist_tC1Ev>:
    e250:	55                   	push   %rbp
    e251:	48 89 e5             	mov    %rsp,%rbp
    e254:	48 89 7d f8          	mov    %rdi,-0x8(%rbp)
    e258:	48 8b 55 f8          	mov    -0x8(%rbp),%rdx
    e25c:	48 8b 45 f8          	mov    -0x8(%rbp),%rax
    e260:	48 89 90 00 20 00 00 	mov    %rdx,0x2000(%rax)
    e267:	90                   	nop
    e268:	5d                   	pop    %rbp
    e269:	c3                   	ret

000000000000e26a <_ZStplIcSt11char_traitsIcESaIcEENSt7__cxx1112basic_stringIT_T0_T1_EEOS8_S9_>:
    e26a:	55                   	push   %rbp
    e26b:	48 89 e5             	mov    %rsp,%rbp
    e26e:	53                   	push   %rbx
    e26f:	48 83 ec 38          	sub    $0x38,%rsp
    e273:	48 89 7d d8          	mov    %rdi,-0x28(%rbp)
    e277:	48 89 75 d0          	mov    %rsi,-0x30(%rbp)
    e27b:	48 89 55 c8          	mov    %rdx,-0x38(%rbp)
    e27f:	c6 45 e7 00          	movb   $0x0,-0x19(%rbp)
    e283:	c6 45 e7 01          	movb   $0x1,-0x19(%rbp)
    e287:	80 7d e7 00          	cmpb   $0x0,-0x19(%rbp)
    e28b:	0f 84 87 00 00 00    	je     e318 <_ZStplIcSt11char_traitsIcESaIcEENSt7__cxx1112basic_stringIT_T0_T1_EEOS8_S9_+0xae>
    e291:	48 8b 45 d0          	mov    -0x30(%rbp),%rax
    e295:	48 89 c7             	mov    %rax,%rdi
    e298:	e8 e3 4e ff ff       	call   3180 <_ZNKSt7__cxx1112basic_stringIcSt11char_traitsIcESaIcEE4sizeEv@plt>
    e29d:	48 89 c3             	mov    %rax,%rbx
    e2a0:	48 8b 45 c8          	mov    -0x38(%rbp),%rax
    e2a4:	48 89 c7             	mov    %rax,%rdi
    e2a7:	e8 d4 4e ff ff       	call   3180 <_ZNKSt7__cxx1112basic_stringIcSt11char_traitsIcESaIcEE4sizeEv@plt>
    e2ac:	48 01 d8             	add    %rbx,%rax
    e2af:	48 89 45 e8          	mov    %rax,-0x18(%rbp)
    e2b3:	48 8b 45 d0          	mov    -0x30(%rbp),%rax
    e2b7:	48 89 c7             	mov    %rax,%rdi
    e2ba:	e8 71 4d ff ff       	call   3030 <_ZNKSt7__cxx1112basic_stringIcSt11char_traitsIcESaIcEE8capacityEv@plt>
    e2bf:	48 3b 45 e8          	cmp    -0x18(%rbp),%rax
    e2c3:	73 19                	jae    e2de <_ZStplIcSt11char_traitsIcESaIcEENSt7__cxx1112basic_stringIT_T0_T1_EEOS8_S9_+0x74>
    e2c5:	48 8b 45 c8          	mov    -0x38(%rbp),%rax
    e2c9:	48 89 c7             	mov    %rax,%rdi
    e2cc:	e8 5f 4d ff ff       	call   3030 <_ZNKSt7__cxx1112basic_stringIcSt11char_traitsIcESaIcEE8capacityEv@plt>
    e2d1:	48 3b 45 e8          	cmp    -0x18(%rbp),%rax
    e2d5:	72 07                	jb     e2de <_ZStplIcSt11char_traitsIcESaIcEENSt7__cxx1112basic_stringIT_T0_T1_EEOS8_S9_+0x74>
    e2d7:	b8 01 00 00 00       	mov    $0x1,%eax
    e2dc:	eb 05                	jmp    e2e3 <_ZStplIcSt11char_traitsIcESaIcEENSt7__cxx1112basic_stringIT_T0_T1_EEOS8_S9_+0x79>
    e2de:	b8 00 00 00 00       	mov    $0x0,%eax
    e2e3:	84 c0                	test   %al,%al
    e2e5:	74 31                	je     e318 <_ZStplIcSt11char_traitsIcESaIcEENSt7__cxx1112basic_stringIT_T0_T1_EEOS8_S9_+0xae>
    e2e7:	48 8b 55 d0          	mov    -0x30(%rbp),%rdx
    e2eb:	48 8b 45 c8          	mov    -0x38(%rbp),%rax
    e2ef:	be 00 00 00 00       	mov    $0x0,%esi
    e2f4:	48 89 c7             	mov    %rax,%rdi
    e2f7:	e8 74 50 ff ff       	call   3370 <_ZNSt7__cxx1112basic_stringIcSt11char_traitsIcESaIcEE6insertEmRKS4_@plt>
    e2fc:	48 89 c7             	mov    %rax,%rdi
    e2ff:	e8 03 0c 00 00       	call   ef07 <_ZSt4moveIRNSt7__cxx1112basic_stringIcSt11char_traitsIcESaIcEEEEONSt16remove_referenceIT_E4typeEOS8_>
    e304:	48 89 c2             	mov    %rax,%rdx
    e307:	48 8b 45 d8          	mov    -0x28(%rbp),%rax
    e30b:	48 89 d6             	mov    %rdx,%rsi
    e30e:	48 89 c7             	mov    %rax,%rdi
    e311:	e8 0a 4e ff ff       	call   3120 <_ZNSt7__cxx1112basic_stringIcSt11char_traitsIcESaIcEEC1EOS4_@plt>
    e316:	eb 2d                	jmp    e345 <_ZStplIcSt11char_traitsIcESaIcEENSt7__cxx1112basic_stringIT_T0_T1_EEOS8_S9_+0xdb>
    e318:	48 8b 55 c8          	mov    -0x38(%rbp),%rdx
    e31c:	48 8b 45 d0          	mov    -0x30(%rbp),%rax
    e320:	48 89 d6             	mov    %rdx,%rsi
    e323:	48 89 c7             	mov    %rax,%rdi
    e326:	e8 d5 50 ff ff       	call   3400 <_ZNSt7__cxx1112basic_stringIcSt11char_traitsIcESaIcEE6appendERKS4_@plt>
    e32b:	48 89 c7             	mov    %rax,%rdi
    e32e:	e8 d4 0b 00 00       	call   ef07 <_ZSt4moveIRNSt7__cxx1112basic_stringIcSt11char_traitsIcESaIcEEEEONSt16remove_referenceIT_E4typeEOS8_>
    e333:	48 89 c2             	mov    %rax,%rdx
    e336:	48 8b 45 d8          	mov    -0x28(%rbp),%rax
    e33a:	48 89 d6             	mov    %rdx,%rsi
    e33d:	48 89 c7             	mov    %rax,%rdi
    e340:	e8 db 4d ff ff       	call   3120 <_ZNSt7__cxx1112basic_stringIcSt11char_traitsIcESaIcEEC1EOS4_@plt>
    e345:	48 8b 45 d8          	mov    -0x28(%rbp),%rax
    e349:	48 8b 5d f8          	mov    -0x8(%rbp),%rbx
    e34d:	c9                   	leave
    e34e:	c3                   	ret

000000000000e34f <_Z24generate_quiet_moves_forILi2EEvP7board_tP10movelist_t>:
    e34f:	55                   	push   %rbp
    e350:	48 89 e5             	mov    %rsp,%rbp
    e353:	41 54                	push   %r12
    e355:	53                   	push   %rbx
    e356:	48 83 ec 40          	sub    $0x40,%rsp
    e35a:	48 89 7d b8          	mov    %rdi,-0x48(%rbp)
    e35e:	48 89 75 b0          	mov    %rsi,-0x50(%rbp)
    e362:	64 48 8b 04 25 28 00 	mov    %fs:0x28,%rax
    e369:	00 00 
    e36b:	48 89 45 e8          	mov    %rax,-0x18(%rbp)
    e36f:	31 c0                	xor    %eax,%eax
    e371:	48 8b 45 b8          	mov    -0x48(%rbp),%rax
    e375:	8b 80 88 01 00 00    	mov    0x188(%rax),%eax
    e37b:	89 c6                	mov    %eax,%esi
    e37d:	bf 02 00 00 00       	mov    $0x2,%edi
    e382:	e8 60 c0 ff ff       	call   a3e7 <_Z10set_colourii>
    e387:	48 8b 55 b8          	mov    -0x48(%rbp),%rdx
    e38b:	48 98                	cltq
    e38d:	48 8b 04 c2          	mov    (%rdx,%rax,8),%rax
    e391:	48 89 45 d0          	mov    %rax,-0x30(%rbp)
    e395:	48 8b 45 b8          	mov    -0x48(%rbp),%rax
    e399:	48 89 c7             	mov    %rax,%rdi
    e39c:	e8 4a fe ff ff       	call   e1eb <_Z10all_piecesPK7board_t>
    e3a1:	48 89 45 e0          	mov    %rax,-0x20(%rbp)
    e3a5:	eb 7b                	jmp    e422 <_Z24generate_quiet_moves_forILi2EEvP7board_tP10movelist_t+0xd3>
    e3a7:	48 8d 45 d0          	lea    -0x30(%rbp),%rax
    e3ab:	48 89 c7             	mov    %rax,%rdi
    e3ae:	e8 64 7d ff ff       	call   6117 <_Z16bit_drop_forwardRm>
    e3b3:	89 45 cc             	mov    %eax,-0x34(%rbp)
    e3b6:	48 c7 45 d8 00 00 00 	movq   $0x0,-0x28(%rbp)
    e3bd:	00 
    e3be:	8b 45 cc             	mov    -0x34(%rbp),%eax
    e3c1:	89 c7                	mov    %eax,%edi
    e3c3:	e8 46 fe ff ff       	call   e20e <_Z7attacksILi2EEmi>
    e3c8:	48 89 45 d8          	mov    %rax,-0x28(%rbp)
    e3cc:	48 8b 45 e0          	mov    -0x20(%rbp),%rax
    e3d0:	48 f7 d0             	not    %rax
    e3d3:	48 89 c2             	mov    %rax,%rdx
    e3d6:	48 8b 45 d8          	mov    -0x28(%rbp),%rax
    e3da:	48 21 d0             	and    %rdx,%rax
    e3dd:	48 89 45 d8          	mov    %rax,-0x28(%rbp)
    e3e1:	eb 36                	jmp    e419 <_Z24generate_quiet_moves_forILi2EEvP7board_tP10movelist_t+0xca>
    e3e3:	48 8b 5d b0          	mov    -0x50(%rbp),%rbx
    e3e7:	8b 45 cc             	mov    -0x34(%rbp),%eax
    e3ea:	c1 e0 06             	shl    $0x6,%eax
    e3ed:	25 c0 0f 00 00       	and    $0xfc0,%eax
    e3f2:	41 89 c4             	mov    %eax,%r12d
    e3f5:	48 8d 45 d8          	lea    -0x28(%rbp),%rax
    e3f9:	48 89 c7             	mov    %rax,%rdi
    e3fc:	e8 16 7d ff ff       	call   6117 <_Z16bit_drop_forwardRm>
    e401:	83 e0 3f             	and    $0x3f,%eax
    e404:	44 09 e0             	or     %r12d,%eax
    e407:	89 45 c8             	mov    %eax,-0x38(%rbp)
    e40a:	48 8d 45 c8          	lea    -0x38(%rbp),%rax
    e40e:	48 89 c6             	mov    %rax,%rsi
    e411:	48 89 df             	mov    %rbx,%rdi
    e414:	e8 03 fa ff ff       	call   de1c <_ZN10movelist_t9push_backERKj>
    e419:	48 8b 45 d8          	mov    -0x28(%rbp),%rax
    e41d:	48 85 c0             	test   %rax,%rax
    e420:	75 c1                	jne    e3e3 <_Z24generate_quiet_moves_forILi2EEvP7board_tP10movelist_t+0x94>
    e422:	48 8b 45 d0          	mov    -0x30(%rbp),%rax
    e426:	48 85 c0             	test   %rax,%rax
    e429:	0f 85 78 ff ff ff    	jne    e3a7 <_Z24generate_quiet_moves_forILi2EEvP7board_tP10movelist_t+0x58>
    e42f:	90                   	nop
    e430:	48 8b 45 e8          	mov    -0x18(%rbp),%rax
    e434:	64 48 2b 04 25 28 00 	sub    %fs:0x28,%rax
    e43b:	00 00 
    e43d:	74 05                	je     e444 <_Z24generate_quiet_moves_forILi2EEvP7board_tP10movelist_t+0xf5>
    e43f:	e8 5c 4e ff ff       	call   32a0 <__stack_chk_fail@plt>
    e444:	48 83 c4 40          	add    $0x40,%rsp
    e448:	5b                   	pop    %rbx
    e449:	41 5c                	pop    %r12
    e44b:	5d                   	pop    %rbp
    e44c:	c3                   	ret

000000000000e44d <_Z24generate_quiet_moves_forILi6EEvP7board_tP10movelist_t>:
    e44d:	55                   	push   %rbp
    e44e:	48 89 e5             	mov    %rsp,%rbp
    e451:	41 54                	push   %r12
    e453:	53                   	push   %rbx
    e454:	48 83 ec 40          	sub    $0x40,%rsp
    e458:	48 89 7d b8          	mov    %rdi,-0x48(%rbp)
    e45c:	48 89 75 b0          	mov    %rsi,-0x50(%rbp)
    e460:	64 48 8b 04 25 28 00 	mov    %fs:0x28,%rax
    e467:	00 00 
    e469:	48 89 45 e8          	mov    %rax,-0x18(%rbp)
    e46d:	31 c0                	xor    %eax,%eax
    e46f:	48 8b 45 b8          	mov    -0x48(%rbp),%rax
    e473:	8b 80 88 01 00 00    	mov    0x188(%rax),%eax
    e479:	89 c6                	mov    %eax,%esi
    e47b:	bf 06 00 00 00       	mov    $0x6,%edi
    e480:	e8 62 bf ff ff       	call   a3e7 <_Z10set_colourii>
    e485:	48 8b 55 b8          	mov    -0x48(%rbp),%rdx
    e489:	48 98                	cltq
    e48b:	48 8b 04 c2          	mov    (%rdx,%rax,8),%rax
    e48f:	48 89 45 d0          	mov    %rax,-0x30(%rbp)
    e493:	48 8b 45 b8          	mov    -0x48(%rbp),%rax
    e497:	48 89 c7             	mov    %rax,%rdi
    e49a:	e8 4c fd ff ff       	call   e1eb <_Z10all_piecesPK7board_t>
    e49f:	48 89 45 e0          	mov    %rax,-0x20(%rbp)
    e4a3:	eb 7b                	jmp    e520 <_Z24generate_quiet_moves_forILi6EEvP7board_tP10movelist_t+0xd3>
    e4a5:	48 8d 45 d0          	lea    -0x30(%rbp),%rax
    e4a9:	48 89 c7             	mov    %rax,%rdi
    e4ac:	e8 66 7c ff ff       	call   6117 <_Z16bit_drop_forwardRm>
    e4b1:	89 45 cc             	mov    %eax,-0x34(%rbp)
    e4b4:	48 c7 45 d8 00 00 00 	movq   $0x0,-0x28(%rbp)
    e4bb:	00 
    e4bc:	8b 45 cc             	mov    -0x34(%rbp),%eax
    e4bf:	89 c7                	mov    %eax,%edi
    e4c1:	e8 69 fd ff ff       	call   e22f <_Z7attacksILi6EEmi>
    e4c6:	48 89 45 d8          	mov    %rax,-0x28(%rbp)
    e4ca:	48 8b 45 e0          	mov    -0x20(%rbp),%rax
    e4ce:	48 f7 d0             	not    %rax
    e4d1:	48 89 c2             	mov    %rax,%rdx
    e4d4:	48 8b 45 d8          	mov    -0x28(%rbp),%rax
    e4d8:	48 21 d0             	and    %rdx,%rax
    e4db:	48 89 45 d8          	mov    %rax,-0x28(%rbp)
    e4df:	eb 36                	jmp    e517 <_Z24generate_quiet_moves_forILi6EEvP7board_tP10movelist_t+0xca>
    e4e1:	48 8b 5d b0          	mov    -0x50(%rbp),%rbx
    e4e5:	8b 45 cc             	mov    -0x34(%rbp),%eax
    e4e8:	c1 e0 06             	shl    $0x6,%eax
    e4eb:	25 c0 0f 00 00       	and    $0xfc0,%eax
    e4f0:	41 89 c4             	mov    %eax,%r12d
    e4f3:	48 8d 45 d8          	lea    -0x28(%rbp),%rax
    e4f7:	48 89 c7             	mov    %rax,%rdi
    e4fa:	e8 18 7c ff ff       	call   6117 <_Z16bit_drop_forwardRm>
    e4ff:	83 e0 3f             	and    $0x3f,%eax
    e502:	44 09 e0             	or     %r12d,%eax
    e505:	89 45 c8             	mov    %eax,-0x38(%rbp)
    e508:	48 8d 45 c8          	lea    -0x38(%rbp),%rax
    e50c:	48 89 c6             	mov    %rax,%rsi
    e50f:	48 89 df             	mov    %rbx,%rdi
    e512:	e8 05 f9 ff ff       	call   de1c <_ZN10movelist_t9push_backERKj>
    e517:	48 8b 45 d8          	mov    -0x28(%rbp),%rax
    e51b:	48 85 c0             	test   %rax,%rax
    e51e:	75 c1                	jne    e4e1 <_Z24generate_quiet_moves_forILi6EEvP7board_tP10movelist_t+0x94>
    e520:	48 8b 45 d0          	mov    -0x30(%rbp),%rax
    e524:	48 85 c0             	test   %rax,%rax
    e527:	0f 85 78 ff ff ff    	jne    e4a5 <_Z24generate_quiet_moves_forILi6EEvP7board_tP10movelist_t+0x58>
    e52d:	90                   	nop
    e52e:	48 8b 45 e8          	mov    -0x18(%rbp),%rax
    e532:	64 48 2b 04 25 28 00 	sub    %fs:0x28,%rax
    e539:	00 00 
    e53b:	74 05                	je     e542 <_Z24generate_quiet_moves_forILi6EEvP7board_tP10movelist_t+0xf5>
    e53d:	e8 5e 4d ff ff       	call   32a0 <__stack_chk_fail@plt>
    e542:	48 83 c4 40          	add    $0x40,%rsp
    e546:	5b                   	pop    %rbx
    e547:	41 5c                	pop    %r12
    e549:	5d                   	pop    %rbp
    e54a:	c3                   	ret

000000000000e54b <_Z24generate_quiet_moves_forILi4EEvP7board_tP10movelist_t>:
    e54b:	55                   	push   %rbp
    e54c:	48 89 e5             	mov    %rsp,%rbp
    e54f:	41 54                	push   %r12
    e551:	53                   	push   %rbx
    e552:	48 83 ec 40          	sub    $0x40,%rsp
    e556:	48 89 7d b8          	mov    %rdi,-0x48(%rbp)
    e55a:	48 89 75 b0          	mov    %rsi,-0x50(%rbp)
    e55e:	64 48 8b 04 25 28 00 	mov    %fs:0x28,%rax
    e565:	00 00 
    e567:	48 89 45 e8          	mov    %rax,-0x18(%rbp)
    e56b:	31 c0                	xor    %eax,%eax
    e56d:	48 8b 45 b8          	mov    -0x48(%rbp),%rax
    e571:	8b 80 88 01 00 00    	mov    0x188(%rax),%eax
    e577:	89 c6                	mov    %eax,%esi
    e579:	bf 04 00 00 00       	mov    $0x4,%edi
    e57e:	e8 64 be ff ff       	call   a3e7 <_Z10set_colourii>
    e583:	48 8b 55 b8          	mov    -0x48(%rbp),%rdx
    e587:	48 98                	cltq
    e589:	48 8b 04 c2          	mov    (%rdx,%rax,8),%rax
    e58d:	48 89 45 d0          	mov    %rax,-0x30(%rbp)
    e591:	48 8b 45 b8          	mov    -0x48(%rbp),%rax
    e595:	48 89 c7             	mov    %rax,%rdi
    e598:	e8 4e fc ff ff       	call   e1eb <_Z10all_piecesPK7board_t>
    e59d:	48 89 45 e0          	mov    %rax,-0x20(%rbp)
    e5a1:	e9 82 00 00 00       	jmp    e628 <_Z24generate_quiet_moves_forILi4EEvP7board_tP10movelist_t+0xdd>
    e5a6:	48 8d 45 d0          	lea    -0x30(%rbp),%rax
    e5aa:	48 89 c7             	mov    %rax,%rdi
    e5ad:	e8 65 7b ff ff       	call   6117 <_Z16bit_drop_forwardRm>
    e5b2:	89 45 cc             	mov    %eax,-0x34(%rbp)
    e5b5:	48 c7 45 d8 00 00 00 	movq   $0x0,-0x28(%rbp)
    e5bc:	00 
    e5bd:	48 8b 55 e0          	mov    -0x20(%rbp),%rdx
    e5c1:	8b 45 cc             	mov    -0x34(%rbp),%eax
    e5c4:	48 89 d6             	mov    %rdx,%rsi
    e5c7:	89 c7                	mov    %eax,%edi
    e5c9:	e8 92 08 00 00       	call   ee60 <_Z7attacksILi4EEmim>
    e5ce:	48 89 45 d8          	mov    %rax,-0x28(%rbp)
    e5d2:	48 8b 45 e0          	mov    -0x20(%rbp),%rax
    e5d6:	48 f7 d0             	not    %rax
    e5d9:	48 89 c2             	mov    %rax,%rdx
    e5dc:	48 8b 45 d8          	mov    -0x28(%rbp),%rax
    e5e0:	48 21 d0             	and    %rdx,%rax
    e5e3:	48 89 45 d8          	mov    %rax,-0x28(%rbp)
    e5e7:	eb 36                	jmp    e61f <_Z24generate_quiet_moves_forILi4EEvP7board_tP10movelist_t+0xd4>
    e5e9:	48 8b 5d b0          	mov    -0x50(%rbp),%rbx
    e5ed:	8b 45 cc             	mov    -0x34(%rbp),%eax
    e5f0:	c1 e0 06             	shl    $0x6,%eax
    e5f3:	25 c0 0f 00 00       	and    $0xfc0,%eax
    e5f8:	41 89 c4             	mov    %eax,%r12d
    e5fb:	48 8d 45 d8          	lea    -0x28(%rbp),%rax
    e5ff:	48 89 c7             	mov    %rax,%rdi
    e602:	e8 10 7b ff ff       	call   6117 <_Z16bit_drop_forwardRm>
    e607:	83 e0 3f             	and    $0x3f,%eax
    e60a:	44 09 e0             	or     %r12d,%eax
    e60d:	89 45 c8             	mov    %eax,-0x38(%rbp)
    e610:	48 8d 45 c8          	lea    -0x38(%rbp),%rax
    e614:	48 89 c6             	mov    %rax,%rsi
    e617:	48 89 df             	mov    %rbx,%rdi
    e61a:	e8 fd f7 ff ff       	call   de1c <_ZN10movelist_t9push_backERKj>
    e61f:	48 8b 45 d8          	mov    -0x28(%rbp),%rax
    e623:	48 85 c0             	test   %rax,%rax
    e626:	75 c1                	jne    e5e9 <_Z24generate_quiet_moves_forILi4EEvP7board_tP10movelist_t+0x9e>
    e628:	48 8b 45 d0          	mov    -0x30(%rbp),%rax
    e62c:	48 85 c0             	test   %rax,%rax
    e62f:	0f 85 71 ff ff ff    	jne    e5a6 <_Z24generate_quiet_moves_forILi4EEvP7board_tP10movelist_t+0x5b>
    e635:	90                   	nop
    e636:	48 8b 45 e8          	mov    -0x18(%rbp),%rax
    e63a:	64 48 2b 04 25 28 00 	sub    %fs:0x28,%rax
    e641:	00 00 
    e643:	74 05                	je     e64a <_Z24generate_quiet_moves_forILi4EEvP7board_tP10movelist_t+0xff>
    e645:	e8 56 4c ff ff       	call   32a0 <__stack_chk_fail@plt>
    e64a:	48 83 c4 40          	add    $0x40,%rsp
    e64e:	5b                   	pop    %rbx
    e64f:	41 5c                	pop    %r12
    e651:	5d                   	pop    %rbp
    e652:	c3                   	ret

000000000000e653 <_Z24generate_quiet_moves_forILi3EEvP7board_tP10movelist_t>:
    e653:	55                   	push   %rbp
    e654:	48 89 e5             	mov    %rsp,%rbp
    e657:	41 54                	push   %r12
    e659:	53                   	push   %rbx
    e65a:	48 83 ec 40          	sub    $0x40,%rsp
    e65e:	48 89 7d b8          	mov    %rdi,-0x48(%rbp)
    e662:	48 89 75 b0          	mov    %rsi,-0x50(%rbp)
    e666:	64 48 8b 04 25 28 00 	mov    %fs:0x28,%rax
    e66d:	00 00 
    e66f:	48 89 45 e8          	mov    %rax,-0x18(%rbp)
    e673:	31 c0                	xor    %eax,%eax
    e675:	48 8b 45 b8          	mov    -0x48(%rbp),%rax
    e679:	8b 80 88 01 00 00    	mov    0x188(%rax),%eax
    e67f:	89 c6                	mov    %eax,%esi
    e681:	bf 03 00 00 00       	mov    $0x3,%edi
    e686:	e8 5c bd ff ff       	call   a3e7 <_Z10set_colourii>
    e68b:	48 8b 55 b8          	mov    -0x48(%rbp),%rdx
    e68f:	48 98                	cltq
    e691:	48 8b 04 c2          	mov    (%rdx,%rax,8),%rax
    e695:	48 89 45 d0          	mov    %rax,-0x30(%rbp)
    e699:	48 8b 45 b8          	mov    -0x48(%rbp),%rax
    e69d:	48 89 c7             	mov    %rax,%rdi
    e6a0:	e8 46 fb ff ff       	call   e1eb <_Z10all_piecesPK7board_t>
    e6a5:	48 89 45 e0          	mov    %rax,-0x20(%rbp)
    e6a9:	e9 82 00 00 00       	jmp    e730 <_Z24generate_quiet_moves_forILi3EEvP7board_tP10movelist_t+0xdd>
    e6ae:	48 8d 45 d0          	lea    -0x30(%rbp),%rax
    e6b2:	48 89 c7             	mov    %rax,%rdi
    e6b5:	e8 5d 7a ff ff       	call   6117 <_Z16bit_drop_forwardRm>
    e6ba:	89 45 cc             	mov    %eax,-0x34(%rbp)
    e6bd:	48 c7 45 d8 00 00 00 	movq   $0x0,-0x28(%rbp)
    e6c4:	00 
    e6c5:	48 8b 55 e0          	mov    -0x20(%rbp),%rdx
    e6c9:	8b 45 cc             	mov    -0x34(%rbp),%eax
    e6cc:	48 89 d6             	mov    %rdx,%rsi
    e6cf:	89 c7                	mov    %eax,%edi
    e6d1:	e8 21 07 00 00       	call   edf7 <_Z7attacksILi3EEmim>
    e6d6:	48 89 45 d8          	mov    %rax,-0x28(%rbp)
    e6da:	48 8b 45 e0          	mov    -0x20(%rbp),%rax
    e6de:	48 f7 d0             	not    %rax
    e6e1:	48 89 c2             	mov    %rax,%rdx
    e6e4:	48 8b 45 d8          	mov    -0x28(%rbp),%rax
    e6e8:	48 21 d0             	and    %rdx,%rax
    e6eb:	48 89 45 d8          	mov    %rax,-0x28(%rbp)
    e6ef:	eb 36                	jmp    e727 <_Z24generate_quiet_moves_forILi3EEvP7board_tP10movelist_t+0xd4>
    e6f1:	48 8b 5d b0          	mov    -0x50(%rbp),%rbx
    e6f5:	8b 45 cc             	mov    -0x34(%rbp),%eax
    e6f8:	c1 e0 06             	shl    $0x6,%eax
    e6fb:	25 c0 0f 00 00       	and    $0xfc0,%eax
    e700:	41 89 c4             	mov    %eax,%r12d
    e703:	48 8d 45 d8          	lea    -0x28(%rbp),%rax
    e707:	48 89 c7             	mov    %rax,%rdi
    e70a:	e8 08 7a ff ff       	call   6117 <_Z16bit_drop_forwardRm>
    e70f:	83 e0 3f             	and    $0x3f,%eax
    e712:	44 09 e0             	or     %r12d,%eax
    e715:	89 45 c8             	mov    %eax,-0x38(%rbp)
    e718:	48 8d 45 c8          	lea    -0x38(%rbp),%rax
    e71c:	48 89 c6             	mov    %rax,%rsi
    e71f:	48 89 df             	mov    %rbx,%rdi
    e722:	e8 f5 f6 ff ff       	call   de1c <_ZN10movelist_t9push_backERKj>
    e727:	48 8b 45 d8          	mov    -0x28(%rbp),%rax
    e72b:	48 85 c0             	test   %rax,%rax
    e72e:	75 c1                	jne    e6f1 <_Z24generate_quiet_moves_forILi3EEvP7board_tP10movelist_t+0x9e>
    e730:	48 8b 45 d0          	mov    -0x30(%rbp),%rax
    e734:	48 85 c0             	test   %rax,%rax
    e737:	0f 85 71 ff ff ff    	jne    e6ae <_Z24generate_quiet_moves_forILi3EEvP7board_tP10movelist_t+0x5b>
    e73d:	90                   	nop
    e73e:	48 8b 45 e8          	mov    -0x18(%rbp),%rax
    e742:	64 48 2b 04 25 28 00 	sub    %fs:0x28,%rax
    e749:	00 00 
    e74b:	74 05                	je     e752 <_Z24generate_quiet_moves_forILi3EEvP7board_tP10movelist_t+0xff>
    e74d:	e8 4e 4b ff ff       	call   32a0 <__stack_chk_fail@plt>
    e752:	48 83 c4 40          	add    $0x40,%rsp
    e756:	5b                   	pop    %rbx
    e757:	41 5c                	pop    %r12
    e759:	5d                   	pop    %rbp
    e75a:	c3                   	ret

000000000000e75b <_Z24generate_quiet_moves_forILi5EEvP7board_tP10movelist_t>:
    e75b:	55                   	push   %rbp
    e75c:	48 89 e5             	mov    %rsp,%rbp
    e75f:	41 54                	push   %r12
    e761:	53                   	push   %rbx
    e762:	48 83 ec 40          	sub    $0x40,%rsp
    e766:	48 89 7d b8          	mov    %rdi,-0x48(%rbp)
    e76a:	48 89 75 b0          	mov    %rsi,-0x50(%rbp)
    e76e:	64 48 8b 04 25 28 00 	mov    %fs:0x28,%rax
    e775:	00 00 
    e777:	48 89 45 e8          	mov    %rax,-0x18(%rbp)
    e77b:	31 c0                	xor    %eax,%eax
    e77d:	48 8b 45 b8          	mov    -0x48(%rbp),%rax
    e781:	8b 80 88 01 00 00    	mov    0x188(%rax),%eax
    e787:	89 c6                	mov    %eax,%esi
    e789:	bf 05 00 00 00       	mov    $0x5,%edi
    e78e:	e8 54 bc ff ff       	call   a3e7 <_Z10set_colourii>
    e793:	48 8b 55 b8          	mov    -0x48(%rbp),%rdx
    e797:	48 98                	cltq
    e799:	48 8b 04 c2          	mov    (%rdx,%rax,8),%rax
    e79d:	48 89 45 d0          	mov    %rax,-0x30(%rbp)
    e7a1:	48 8b 45 b8          	mov    -0x48(%rbp),%rax
    e7a5:	48 89 c7             	mov    %rax,%rdi
    e7a8:	e8 3e fa ff ff       	call   e1eb <_Z10all_piecesPK7board_t>
    e7ad:	48 89 45 e0          	mov    %rax,-0x20(%rbp)
    e7b1:	e9 82 00 00 00       	jmp    e838 <_Z24generate_quiet_moves_forILi5EEvP7board_tP10movelist_t+0xdd>
    e7b6:	48 8d 45 d0          	lea    -0x30(%rbp),%rax
    e7ba:	48 89 c7             	mov    %rax,%rdi
    e7bd:	e8 55 79 ff ff       	call   6117 <_Z16bit_drop_forwardRm>
    e7c2:	89 45 cc             	mov    %eax,-0x34(%rbp)
    e7c5:	48 c7 45 d8 00 00 00 	movq   $0x0,-0x28(%rbp)
    e7cc:	00 
    e7cd:	48 8b 55 e0          	mov    -0x20(%rbp),%rdx
    e7d1:	8b 45 cc             	mov    -0x34(%rbp),%eax
    e7d4:	48 89 d6             	mov    %rdx,%rsi
    e7d7:	89 c7                	mov    %eax,%edi
    e7d9:	e8 eb 06 00 00       	call   eec9 <_Z7attacksILi5EEmim>
    e7de:	48 89 45 d8          	mov    %rax,-0x28(%rbp)
    e7e2:	48 8b 45 e0          	mov    -0x20(%rbp),%rax
    e7e6:	48 f7 d0             	not    %rax
    e7e9:	48 89 c2             	mov    %rax,%rdx
    e7ec:	48 8b 45 d8          	mov    -0x28(%rbp),%rax
    e7f0:	48 21 d0             	and    %rdx,%rax
    e7f3:	48 89 45 d8          	mov    %rax,-0x28(%rbp)
    e7f7:	eb 36                	jmp    e82f <_Z24generate_quiet_moves_forILi5EEvP7board_tP10movelist_t+0xd4>
    e7f9:	48 8b 5d b0          	mov    -0x50(%rbp),%rbx
    e7fd:	8b 45 cc             	mov    -0x34(%rbp),%eax
    e800:	c1 e0 06             	shl    $0x6,%eax
    e803:	25 c0 0f 00 00       	and    $0xfc0,%eax
    e808:	41 89 c4             	mov    %eax,%r12d
    e80b:	48 8d 45 d8          	lea    -0x28(%rbp),%rax
    e80f:	48 89 c7             	mov    %rax,%rdi
    e812:	e8 00 79 ff ff       	call   6117 <_Z16bit_drop_forwardRm>
    e817:	83 e0 3f             	and    $0x3f,%eax
    e81a:	44 09 e0             	or     %r12d,%eax
    e81d:	89 45 c8             	mov    %eax,-0x38(%rbp)
    e820:	48 8d 45 c8          	lea    -0x38(%rbp),%rax
    e824:	48 89 c6             	mov    %rax,%rsi
    e827:	48 89 df             	mov    %rbx,%rdi
    e82a:	e8 ed f5 ff ff       	call   de1c <_ZN10movelist_t9push_backERKj>
    e82f:	48 8b 45 d8          	mov    -0x28(%rbp),%rax
    e833:	48 85 c0             	test   %rax,%rax
    e836:	75 c1                	jne    e7f9 <_Z24generate_quiet_moves_forILi5EEvP7board_tP10movelist_t+0x9e>
    e838:	48 8b 45 d0          	mov    -0x30(%rbp),%rax
    e83c:	48 85 c0             	test   %rax,%rax
    e83f:	0f 85 71 ff ff ff    	jne    e7b6 <_Z24generate_quiet_moves_forILi5EEvP7board_tP10movelist_t+0x5b>
    e845:	90                   	nop
    e846:	48 8b 45 e8          	mov    -0x18(%rbp),%rax
    e84a:	64 48 2b 04 25 28 00 	sub    %fs:0x28,%rax
    e851:	00 00 
    e853:	74 05                	je     e85a <_Z24generate_quiet_moves_forILi5EEvP7board_tP10movelist_t+0xff>
    e855:	e8 46 4a ff ff       	call   32a0 <__stack_chk_fail@plt>
    e85a:	48 83 c4 40          	add    $0x40,%rsp
    e85e:	5b                   	pop    %rbx
    e85f:	41 5c                	pop    %r12
    e861:	5d                   	pop    %rbp
    e862:	c3                   	ret

000000000000e863 <_Z24generate_noisy_moves_forILi2EEvP7board_tP10movelist_t>:
    e863:	55                   	push   %rbp
    e864:	48 89 e5             	mov    %rsp,%rbp
    e867:	41 54                	push   %r12
    e869:	53                   	push   %rbx
    e86a:	48 83 ec 40          	sub    $0x40,%rsp
    e86e:	48 89 7d b8          	mov    %rdi,-0x48(%rbp)
    e872:	48 89 75 b0          	mov    %rsi,-0x50(%rbp)
    e876:	64 48 8b 04 25 28 00 	mov    %fs:0x28,%rax
    e87d:	00 00 
    e87f:	48 89 45 e8          	mov    %rax,-0x18(%rbp)
    e883:	31 c0                	xor    %eax,%eax
    e885:	48 8b 45 b8          	mov    -0x48(%rbp),%rax
    e889:	8b 80 88 01 00 00    	mov    0x188(%rax),%eax
    e88f:	89 c6                	mov    %eax,%esi
    e891:	bf 02 00 00 00       	mov    $0x2,%edi
    e896:	e8 4c bb ff ff       	call   a3e7 <_Z10set_colourii>
    e89b:	48 8b 55 b8          	mov    -0x48(%rbp),%rdx
    e89f:	48 98                	cltq
    e8a1:	48 8b 04 c2          	mov    (%rdx,%rax,8),%rax
    e8a5:	48 89 45 c8          	mov    %rax,-0x38(%rbp)
    e8a9:	48 8b 45 b8          	mov    -0x48(%rbp),%rax
    e8ad:	8b 80 88 01 00 00    	mov    0x188(%rax),%eax
    e8b3:	83 f0 01             	xor    $0x1,%eax
    e8b6:	89 c2                	mov    %eax,%edx
    e8b8:	48 8b 45 b8          	mov    -0x48(%rbp),%rax
    e8bc:	48 63 d2             	movslq %edx,%rdx
    e8bf:	48 83 c2 2c          	add    $0x2c,%rdx
    e8c3:	48 8b 44 d0 18       	mov    0x18(%rax,%rdx,8),%rax
    e8c8:	48 89 45 d8          	mov    %rax,-0x28(%rbp)
    e8cc:	48 8b 45 b8          	mov    -0x48(%rbp),%rax
    e8d0:	48 89 c7             	mov    %rax,%rdi
    e8d3:	e8 13 f9 ff ff       	call   e1eb <_Z10all_piecesPK7board_t>
    e8d8:	48 89 45 e0          	mov    %rax,-0x20(%rbp)
    e8dc:	eb 75                	jmp    e953 <_Z24generate_noisy_moves_forILi2EEvP7board_tP10movelist_t+0xf0>
    e8de:	48 8d 45 c8          	lea    -0x38(%rbp),%rax
    e8e2:	48 89 c7             	mov    %rax,%rdi
    e8e5:	e8 2d 78 ff ff       	call   6117 <_Z16bit_drop_forwardRm>
    e8ea:	89 45 c4             	mov    %eax,-0x3c(%rbp)
    e8ed:	48 c7 45 d0 00 00 00 	movq   $0x0,-0x30(%rbp)
    e8f4:	00 
    e8f5:	8b 45 c4             	mov    -0x3c(%rbp),%eax
    e8f8:	89 c7                	mov    %eax,%edi
    e8fa:	e8 0f f9 ff ff       	call   e20e <_Z7attacksILi2EEmi>
    e8ff:	48 89 45 d0          	mov    %rax,-0x30(%rbp)
    e903:	48 8b 45 d0          	mov    -0x30(%rbp),%rax
    e907:	48 23 45 d8          	and    -0x28(%rbp),%rax
    e90b:	48 89 45 d0          	mov    %rax,-0x30(%rbp)
    e90f:	eb 39                	jmp    e94a <_Z24generate_noisy_moves_forILi2EEvP7board_tP10movelist_t+0xe7>
    e911:	48 8b 5d b0          	mov    -0x50(%rbp),%rbx
    e915:	8b 45 c4             	mov    -0x3c(%rbp),%eax
    e918:	c1 e0 06             	shl    $0x6,%eax
    e91b:	25 c0 0f 00 00       	and    $0xfc0,%eax
    e920:	80 cc 40             	or     $0x40,%ah
    e923:	41 89 c4             	mov    %eax,%r12d
    e926:	48 8d 45 d0          	lea    -0x30(%rbp),%rax
    e92a:	48 89 c7             	mov    %rax,%rdi
    e92d:	e8 e5 77 ff ff       	call   6117 <_Z16bit_drop_forwardRm>
    e932:	83 e0 3f             	and    $0x3f,%eax
    e935:	44 09 e0             	or     %r12d,%eax
    e938:	89 45 c0             	mov    %eax,-0x40(%rbp)
    e93b:	48 8d 45 c0          	lea    -0x40(%rbp),%rax
    e93f:	48 89 c6             	mov    %rax,%rsi
    e942:	48 89 df             	mov    %rbx,%rdi
    e945:	e8 d2 f4 ff ff       	call   de1c <_ZN10movelist_t9push_backERKj>
    e94a:	48 8b 45 d0          	mov    -0x30(%rbp),%rax
    e94e:	48 85 c0             	test   %rax,%rax
    e951:	75 be                	jne    e911 <_Z24generate_noisy_moves_forILi2EEvP7board_tP10movelist_t+0xae>
    e953:	48 8b 45 c8          	mov    -0x38(%rbp),%rax
    e957:	48 85 c0             	test   %rax,%rax
    e95a:	75 82                	jne    e8de <_Z24generate_noisy_moves_forILi2EEvP7board_tP10movelist_t+0x7b>
    e95c:	90                   	nop
    e95d:	48 8b 45 e8          	mov    -0x18(%rbp),%rax
    e961:	64 48 2b 04 25 28 00 	sub    %fs:0x28,%rax
    e968:	00 00 
    e96a:	74 05                	je     e971 <_Z24generate_noisy_moves_forILi2EEvP7board_tP10movelist_t+0x10e>
    e96c:	e8 2f 49 ff ff       	call   32a0 <__stack_chk_fail@plt>
    e971:	48 83 c4 40          	add    $0x40,%rsp
    e975:	5b                   	pop    %rbx
    e976:	41 5c                	pop    %r12
    e978:	5d                   	pop    %rbp
    e979:	c3                   	ret

000000000000e97a <_Z24generate_noisy_moves_forILi6EEvP7board_tP10movelist_t>:
    e97a:	55                   	push   %rbp
    e97b:	48 89 e5             	mov    %rsp,%rbp
    e97e:	41 54                	push   %r12
    e980:	53                   	push   %rbx
    e981:	48 83 ec 40          	sub    $0x40,%rsp
    e985:	48 89 7d b8          	mov    %rdi,-0x48(%rbp)
    e989:	48 89 75 b0          	mov    %rsi,-0x50(%rbp)
    e98d:	64 48 8b 04 25 28 00 	mov    %fs:0x28,%rax
    e994:	00 00 
    e996:	48 89 45 e8          	mov    %rax,-0x18(%rbp)
    e99a:	31 c0                	xor    %eax,%eax
    e99c:	48 8b 45 b8          	mov    -0x48(%rbp),%rax
    e9a0:	8b 80 88 01 00 00    	mov    0x188(%rax),%eax
    e9a6:	89 c6                	mov    %eax,%esi
    e9a8:	bf 06 00 00 00       	mov    $0x6,%edi
    e9ad:	e8 35 ba ff ff       	call   a3e7 <_Z10set_colourii>
    e9b2:	48 8b 55 b8          	mov    -0x48(%rbp),%rdx
    e9b6:	48 98                	cltq
    e9b8:	48 8b 04 c2          	mov    (%rdx,%rax,8),%rax
    e9bc:	48 89 45 c8          	mov    %rax,-0x38(%rbp)
    e9c0:	48 8b 45 b8          	mov    -0x48(%rbp),%rax
    e9c4:	8b 80 88 01 00 00    	mov    0x188(%rax),%eax
    e9ca:	83 f0 01             	xor    $0x1,%eax
    e9cd:	89 c2                	mov    %eax,%edx
    e9cf:	48 8b 45 b8          	mov    -0x48(%rbp),%rax
    e9d3:	48 63 d2             	movslq %edx,%rdx
    e9d6:	48 83 c2 2c          	add    $0x2c,%rdx
    e9da:	48 8b 44 d0 18       	mov    0x18(%rax,%rdx,8),%rax
    e9df:	48 89 45 d8          	mov    %rax,-0x28(%rbp)
    e9e3:	48 8b 45 b8          	mov    -0x48(%rbp),%rax
    e9e7:	48 89 c7             	mov    %rax,%rdi
    e9ea:	e8 fc f7 ff ff       	call   e1eb <_Z10all_piecesPK7board_t>
    e9ef:	48 89 45 e0          	mov    %rax,-0x20(%rbp)
    e9f3:	eb 75                	jmp    ea6a <_Z24generate_noisy_moves_forILi6EEvP7board_tP10movelist_t+0xf0>
    e9f5:	48 8d 45 c8          	lea    -0x38(%rbp),%rax
    e9f9:	48 89 c7             	mov    %rax,%rdi
    e9fc:	e8 16 77 ff ff       	call   6117 <_Z16bit_drop_forwardRm>
    ea01:	89 45 c4             	mov    %eax,-0x3c(%rbp)
    ea04:	48 c7 45 d0 00 00 00 	movq   $0x0,-0x30(%rbp)
    ea0b:	00 
    ea0c:	8b 45 c4             	mov    -0x3c(%rbp),%eax
    ea0f:	89 c7                	mov    %eax,%edi
    ea11:	e8 19 f8 ff ff       	call   e22f <_Z7attacksILi6EEmi>
    ea16:	48 89 45 d0          	mov    %rax,-0x30(%rbp)
    ea1a:	48 8b 45 d0          	mov    -0x30(%rbp),%rax
    ea1e:	48 23 45 d8          	and    -0x28(%rbp),%rax
    ea22:	48 89 45 d0          	mov    %rax,-0x30(%rbp)
    ea26:	eb 39                	jmp    ea61 <_Z24generate_noisy_moves_forILi6EEvP7board_tP10movelist_t+0xe7>
    ea28:	48 8b 5d b0          	mov    -0x50(%rbp),%rbx
    ea2c:	8b 45 c4             	mov    -0x3c(%rbp),%eax
    ea2f:	c1 e0 06             	shl    $0x6,%eax
    ea32:	25 c0 0f 00 00       	and    $0xfc0,%eax
    ea37:	80 cc 40             	or     $0x40,%ah
    ea3a:	41 89 c4             	mov    %eax,%r12d
    ea3d:	48 8d 45 d0          	lea    -0x30(%rbp),%rax
    ea41:	48 89 c7             	mov    %rax,%rdi
    ea44:	e8 ce 76 ff ff       	call   6117 <_Z16bit_drop_forwardRm>
    ea49:	83 e0 3f             	and    $0x3f,%eax
    ea4c:	44 09 e0             	or     %r12d,%eax
    ea4f:	89 45 c0             	mov    %eax,-0x40(%rbp)
    ea52:	48 8d 45 c0          	lea    -0x40(%rbp),%rax
    ea56:	48 89 c6             	mov    %rax,%rsi
    ea59:	48 89 df             	mov    %rbx,%rdi
    ea5c:	e8 bb f3 ff ff       	call   de1c <_ZN10movelist_t9push_backERKj>
    ea61:	48 8b 45 d0          	mov    -0x30(%rbp),%rax
    ea65:	48 85 c0             	test   %rax,%rax
    ea68:	75 be                	jne    ea28 <_Z24generate_noisy_moves_forILi6EEvP7board_tP10movelist_t+0xae>
    ea6a:	48 8b 45 c8          	mov    -0x38(%rbp),%rax
    ea6e:	48 85 c0             	test   %rax,%rax
    ea71:	75 82                	jne    e9f5 <_Z24generate_noisy_moves_forILi6EEvP7board_tP10movelist_t+0x7b>
    ea73:	90                   	nop
    ea74:	48 8b 45 e8          	mov    -0x18(%rbp),%rax
    ea78:	64 48 2b 04 25 28 00 	sub    %fs:0x28,%rax
    ea7f:	00 00 
    ea81:	74 05                	je     ea88 <_Z24generate_noisy_moves_forILi6EEvP7board_tP10movelist_t+0x10e>
    ea83:	e8 18 48 ff ff       	call   32a0 <__stack_chk_fail@plt>
    ea88:	48 83 c4 40          	add    $0x40,%rsp
    ea8c:	5b                   	pop    %rbx
    ea8d:	41 5c                	pop    %r12
    ea8f:	5d                   	pop    %rbp
    ea90:	c3                   	ret

000000000000ea91 <_Z24generate_noisy_moves_forILi5EEvP7board_tP10movelist_t>:
    ea91:	55                   	push   %rbp
    ea92:	48 89 e5             	mov    %rsp,%rbp
    ea95:	41 54                	push   %r12
    ea97:	53                   	push   %rbx
    ea98:	48 83 ec 40          	sub    $0x40,%rsp
    ea9c:	48 89 7d b8          	mov    %rdi,-0x48(%rbp)
    eaa0:	48 89 75 b0          	mov    %rsi,-0x50(%rbp)
    eaa4:	64 48 8b 04 25 28 00 	mov    %fs:0x28,%rax
    eaab:	00 00 
    eaad:	48 89 45 e8          	mov    %rax,-0x18(%rbp)
    eab1:	31 c0                	xor    %eax,%eax
    eab3:	48 8b 45 b8          	mov    -0x48(%rbp),%rax
    eab7:	8b 80 88 01 00 00    	mov    0x188(%rax),%eax
    eabd:	89 c6                	mov    %eax,%esi
    eabf:	bf 05 00 00 00       	mov    $0x5,%edi
    eac4:	e8 1e b9 ff ff       	call   a3e7 <_Z10set_colourii>
    eac9:	48 8b 55 b8          	mov    -0x48(%rbp),%rdx
    eacd:	48 98                	cltq
    eacf:	48 8b 04 c2          	mov    (%rdx,%rax,8),%rax
    ead3:	48 89 45 c8          	mov    %rax,-0x38(%rbp)
    ead7:	48 8b 45 b8          	mov    -0x48(%rbp),%rax
    eadb:	8b 80 88 01 00 00    	mov    0x188(%rax),%eax
    eae1:	83 f0 01             	xor    $0x1,%eax
    eae4:	89 c2                	mov    %eax,%edx
    eae6:	48 8b 45 b8          	mov    -0x48(%rbp),%rax
    eaea:	48 63 d2             	movslq %edx,%rdx
    eaed:	48 83 c2 2c          	add    $0x2c,%rdx
    eaf1:	48 8b 44 d0 18       	mov    0x18(%rax,%rdx,8),%rax
    eaf6:	48 89 45 d8          	mov    %rax,-0x28(%rbp)
    eafa:	48 8b 45 b8          	mov    -0x48(%rbp),%rax
    eafe:	48 89 c7             	mov    %rax,%rdi
    eb01:	e8 e5 f6 ff ff       	call   e1eb <_Z10all_piecesPK7board_t>
    eb06:	48 89 45 e0          	mov    %rax,-0x20(%rbp)
    eb0a:	eb 7c                	jmp    eb88 <_Z24generate_noisy_moves_forILi5EEvP7board_tP10movelist_t+0xf7>
    eb0c:	48 8d 45 c8          	lea    -0x38(%rbp),%rax
    eb10:	48 89 c7             	mov    %rax,%rdi
    eb13:	e8 ff 75 ff ff       	call   6117 <_Z16bit_drop_forwardRm>
    eb18:	89 45 c4             	mov    %eax,-0x3c(%rbp)
    eb1b:	48 c7 45 d0 00 00 00 	movq   $0x0,-0x30(%rbp)
    eb22:	00 
    eb23:	48 8b 55 e0          	mov    -0x20(%rbp),%rdx
    eb27:	8b 45 c4             	mov    -0x3c(%rbp),%eax
    eb2a:	48 89 d6             	mov    %rdx,%rsi
    eb2d:	89 c7                	mov    %eax,%edi
    eb2f:	e8 95 03 00 00       	call   eec9 <_Z7attacksILi5EEmim>
    eb34:	48 89 45 d0          	mov    %rax,-0x30(%rbp)
    eb38:	48 8b 45 d0          	mov    -0x30(%rbp),%rax
    eb3c:	48 23 45 d8          	and    -0x28(%rbp),%rax
    eb40:	48 89 45 d0          	mov    %rax,-0x30(%rbp)
    eb44:	eb 39                	jmp    eb7f <_Z24generate_noisy_moves_forILi5EEvP7board_tP10movelist_t+0xee>
    eb46:	48 8b 5d b0          	mov    -0x50(%rbp),%rbx
    eb4a:	8b 45 c4             	mov    -0x3c(%rbp),%eax
    eb4d:	c1 e0 06             	shl    $0x6,%eax
    eb50:	25 c0 0f 00 00       	and    $0xfc0,%eax
    eb55:	80 cc 40             	or     $0x40,%ah
    eb58:	41 89 c4             	mov    %eax,%r12d
    eb5b:	48 8d 45 d0          	lea    -0x30(%rbp),%rax
    eb5f:	48 89 c7             	mov    %rax,%rdi
    eb62:	e8 b0 75 ff ff       	call   6117 <_Z16bit_drop_forwardRm>
    eb67:	83 e0 3f             	and    $0x3f,%eax
    eb6a:	44 09 e0             	or     %r12d,%eax
    eb6d:	89 45 c0             	mov    %eax,-0x40(%rbp)
    eb70:	48 8d 45 c0          	lea    -0x40(%rbp),%rax
    eb74:	48 89 c6             	mov    %rax,%rsi
    eb77:	48 89 df             	mov    %rbx,%rdi
    eb7a:	e8 9d f2 ff ff       	call   de1c <_ZN10movelist_t9push_backERKj>
    eb7f:	48 8b 45 d0          	mov    -0x30(%rbp),%rax
    eb83:	48 85 c0             	test   %rax,%rax
    eb86:	75 be                	jne    eb46 <_Z24generate_noisy_moves_forILi5EEvP7board_tP10movelist_t+0xb5>
    eb88:	48 8b 45 c8          	mov    -0x38(%rbp),%rax
    eb8c:	48 85 c0             	test   %rax,%rax
    eb8f:	0f 85 77 ff ff ff    	jne    eb0c <_Z24generate_noisy_moves_forILi5EEvP7board_tP10movelist_t+0x7b>
    eb95:	90                   	nop
    eb96:	48 8b 45 e8          	mov    -0x18(%rbp),%rax
    eb9a:	64 48 2b 04 25 28 00 	sub    %fs:0x28,%rax
    eba1:	00 00 
    eba3:	74 05                	je     ebaa <_Z24generate_noisy_moves_forILi5EEvP7board_tP10movelist_t+0x119>
    eba5:	e8 f6 46 ff ff       	call   32a0 <__stack_chk_fail@plt>
    ebaa:	48 83 c4 40          	add    $0x40,%rsp
    ebae:	5b                   	pop    %rbx
    ebaf:	41 5c                	pop    %r12
    ebb1:	5d                   	pop    %rbp
    ebb2:	c3                   	ret

000000000000ebb3 <_Z24generate_noisy_moves_forILi4EEvP7board_tP10movelist_t>:
    ebb3:	55                   	push   %rbp
    ebb4:	48 89 e5             	mov    %rsp,%rbp
    ebb7:	41 54                	push   %r12
    ebb9:	53                   	push   %rbx
    ebba:	48 83 ec 40          	sub    $0x40,%rsp
    ebbe:	48 89 7d b8          	mov    %rdi,-0x48(%rbp)
    ebc2:	48 89 75 b0          	mov    %rsi,-0x50(%rbp)
    ebc6:	64 48 8b 04 25 28 00 	mov    %fs:0x28,%rax
    ebcd:	00 00 
    ebcf:	48 89 45 e8          	mov    %rax,-0x18(%rbp)
    ebd3:	31 c0                	xor    %eax,%eax
    ebd5:	48 8b 45 b8          	mov    -0x48(%rbp),%rax
    ebd9:	8b 80 88 01 00 00    	mov    0x188(%rax),%eax
    ebdf:	89 c6                	mov    %eax,%esi
    ebe1:	bf 04 00 00 00       	mov    $0x4,%edi
    ebe6:	e8 fc b7 ff ff       	call   a3e7 <_Z10set_colourii>
    ebeb:	48 8b 55 b8          	mov    -0x48(%rbp),%rdx
    ebef:	48 98                	cltq
    ebf1:	48 8b 04 c2          	mov    (%rdx,%rax,8),%rax
    ebf5:	48 89 45 c8          	mov    %rax,-0x38(%rbp)
    ebf9:	48 8b 45 b8          	mov    -0x48(%rbp),%rax
    ebfd:	8b 80 88 01 00 00    	mov    0x188(%rax),%eax
    ec03:	83 f0 01             	xor    $0x1,%eax
    ec06:	89 c2                	mov    %eax,%edx
    ec08:	48 8b 45 b8          	mov    -0x48(%rbp),%rax
    ec0c:	48 63 d2             	movslq %edx,%rdx
    ec0f:	48 83 c2 2c          	add    $0x2c,%rdx
    ec13:	48 8b 44 d0 18       	mov    0x18(%rax,%rdx,8),%rax
    ec18:	48 89 45 d8          	mov    %rax,-0x28(%rbp)
    ec1c:	48 8b 45 b8          	mov    -0x48(%rbp),%rax
    ec20:	48 89 c7             	mov    %rax,%rdi
    ec23:	e8 c3 f5 ff ff       	call   e1eb <_Z10all_piecesPK7board_t>
    ec28:	48 89 45 e0          	mov    %rax,-0x20(%rbp)
    ec2c:	eb 7c                	jmp    ecaa <_Z24generate_noisy_moves_forILi4EEvP7board_tP10movelist_t+0xf7>
    ec2e:	48 8d 45 c8          	lea    -0x38(%rbp),%rax
    ec32:	48 89 c7             	mov    %rax,%rdi
    ec35:	e8 dd 74 ff ff       	call   6117 <_Z16bit_drop_forwardRm>
    ec3a:	89 45 c4             	mov    %eax,-0x3c(%rbp)
    ec3d:	48 c7 45 d0 00 00 00 	movq   $0x0,-0x30(%rbp)
    ec44:	00 
    ec45:	48 8b 55 e0          	mov    -0x20(%rbp),%rdx
    ec49:	8b 45 c4             	mov    -0x3c(%rbp),%eax
    ec4c:	48 89 d6             	mov    %rdx,%rsi
    ec4f:	89 c7                	mov    %eax,%edi
    ec51:	e8 0a 02 00 00       	call   ee60 <_Z7attacksILi4EEmim>
    ec56:	48 89 45 d0          	mov    %rax,-0x30(%rbp)
    ec5a:	48 8b 45 d0          	mov    -0x30(%rbp),%rax
    ec5e:	48 23 45 d8          	and    -0x28(%rbp),%rax
    ec62:	48 89 45 d0          	mov    %rax,-0x30(%rbp)
    ec66:	eb 39                	jmp    eca1 <_Z24generate_noisy_moves_forILi4EEvP7board_tP10movelist_t+0xee>
    ec68:	48 8b 5d b0          	mov    -0x50(%rbp),%rbx
    ec6c:	8b 45 c4             	mov    -0x3c(%rbp),%eax
    ec6f:	c1 e0 06             	shl    $0x6,%eax
    ec72:	25 c0 0f 00 00       	and    $0xfc0,%eax
    ec77:	80 cc 40             	or     $0x40,%ah
    ec7a:	41 89 c4             	mov    %eax,%r12d
    ec7d:	48 8d 45 d0          	lea    -0x30(%rbp),%rax
    ec81:	48 89 c7             	mov    %rax,%rdi
    ec84:	e8 8e 74 ff ff       	call   6117 <_Z16bit_drop_forwardRm>
    ec89:	83 e0 3f             	and    $0x3f,%eax
    ec8c:	44 09 e0             	or     %r12d,%eax
    ec8f:	89 45 c0             	mov    %eax,-0x40(%rbp)
    ec92:	48 8d 45 c0          	lea    -0x40(%rbp),%rax
    ec96:	48 89 c6             	mov    %rax,%rsi
    ec99:	48 89 df             	mov    %rbx,%rdi
    ec9c:	e8 7b f1 ff ff       	call   de1c <_ZN10movelist_t9push_backERKj>
    eca1:	48 8b 45 d0          	mov    -0x30(%rbp),%rax
    eca5:	48 85 c0             	test   %rax,%rax
    eca8:	75 be                	jne    ec68 <_Z24generate_noisy_moves_forILi4EEvP7board_tP10movelist_t+0xb5>
    ecaa:	48 8b 45 c8          	mov    -0x38(%rbp),%rax
    ecae:	48 85 c0             	test   %rax,%rax
    ecb1:	0f 85 77 ff ff ff    	jne    ec2e <_Z24generate_noisy_moves_forILi4EEvP7board_tP10movelist_t+0x7b>
    ecb7:	90                   	nop
    ecb8:	48 8b 45 e8          	mov    -0x18(%rbp),%rax
    ecbc:	64 48 2b 04 25 28 00 	sub    %fs:0x28,%rax
    ecc3:	00 00 
    ecc5:	74 05                	je     eccc <_Z24generate_noisy_moves_forILi4EEvP7board_tP10movelist_t+0x119>
    ecc7:	e8 d4 45 ff ff       	call   32a0 <__stack_chk_fail@plt>
    eccc:	48 83 c4 40          	add    $0x40,%rsp
    ecd0:	5b                   	pop    %rbx
    ecd1:	41 5c                	pop    %r12
    ecd3:	5d                   	pop    %rbp
    ecd4:	c3                   	ret

000000000000ecd5 <_Z24generate_noisy_moves_forILi3EEvP7board_tP10movelist_t>:
    ecd5:	55                   	push   %rbp
    ecd6:	48 89 e5             	mov    %rsp,%rbp
    ecd9:	41 54                	push   %r12
    ecdb:	53                   	push   %rbx
    ecdc:	48 83 ec 40          	sub    $0x40,%rsp
    ece0:	48 89 7d b8          	mov    %rdi,-0x48(%rbp)
    ece4:	48 89 75 b0          	mov    %rsi,-0x50(%rbp)
    ece8:	64 48 8b 04 25 28 00 	mov    %fs:0x28,%rax
    ecef:	00 00 
    ecf1:	48 89 45 e8          	mov    %rax,-0x18(%rbp)
    ecf5:	31 c0                	xor    %eax,%eax
    ecf7:	48 8b 45 b8          	mov    -0x48(%rbp),%rax
    ecfb:	8b 80 88 01 00 00    	mov    0x188(%rax),%eax
    ed01:	89 c6                	mov    %eax,%esi
    ed03:	bf 03 00 00 00       	mov    $0x3,%edi
    ed08:	e8 da b6 ff ff       	call   a3e7 <_Z10set_colourii>
    ed0d:	48 8b 55 b8          	mov    -0x48(%rbp),%rdx
    ed11:	48 98                	cltq
    ed13:	48 8b 04 c2          	mov    (%rdx,%rax,8),%rax
    ed17:	48 89 45 c8          	mov    %rax,-0x38(%rbp)
    ed1b:	48 8b 45 b8          	mov    -0x48(%rbp),%rax
    ed1f:	8b 80 88 01 00 00    	mov    0x188(%rax),%eax
    ed25:	83 f0 01             	xor    $0x1,%eax
    ed28:	89 c2                	mov    %eax,%edx
    ed2a:	48 8b 45 b8          	mov    -0x48(%rbp),%rax
    ed2e:	48 63 d2             	movslq %edx,%rdx
    ed31:	48 83 c2 2c          	add    $0x2c,%rdx
    ed35:	48 8b 44 d0 18       	mov    0x18(%rax,%rdx,8),%rax
    ed3a:	48 89 45 d8          	mov    %rax,-0x28(%rbp)
    ed3e:	48 8b 45 b8          	mov    -0x48(%rbp),%rax
    ed42:	48 89 c7             	mov    %rax,%rdi
    ed45:	e8 a1 f4 ff ff       	call   e1eb <_Z10all_piecesPK7board_t>
    ed4a:	48 89 45 e0          	mov    %rax,-0x20(%rbp)
    ed4e:	eb 7c                	jmp    edcc <_Z24generate_noisy_moves_forILi3EEvP7board_tP10movelist_t+0xf7>
    ed50:	48 8d 45 c8          	lea    -0x38(%rbp),%rax
    ed54:	48 89 c7             	mov    %rax,%rdi
    ed57:	e8 bb 73 ff ff       	call   6117 <_Z16bit_drop_forwardRm>
    ed5c:	89 45 c4             	mov    %eax,-0x3c(%rbp)
    ed5f:	48 c7 45 d0 00 00 00 	movq   $0x0,-0x30(%rbp)
    ed66:	00 
    ed67:	48 8b 55 e0          	mov    -0x20(%rbp),%rdx
    ed6b:	8b 45 c4             	mov    -0x3c(%rbp),%eax
    ed6e:	48 89 d6             	mov    %rdx,%rsi
    ed71:	89 c7                	mov    %eax,%edi
    ed73:	e8 7f 00 00 00       	call   edf7 <_Z7attacksILi3EEmim>
    ed78:	48 89 45 d0          	mov    %rax,-0x30(%rbp)
    ed7c:	48 8b 45 d0          	mov    -0x30(%rbp),%rax
    ed80:	48 23 45 d8          	and    -0x28(%rbp),%rax
    ed84:	48 89 45 d0          	mov    %rax,-0x30(%rbp)
    ed88:	eb 39                	jmp    edc3 <_Z24generate_noisy_moves_forILi3EEvP7board_tP10movelist_t+0xee>
    ed8a:	48 8b 5d b0          	mov    -0x50(%rbp),%rbx
    ed8e:	8b 45 c4             	mov    -0x3c(%rbp),%eax
    ed91:	c1 e0 06             	shl    $0x6,%eax
    ed94:	25 c0 0f 00 00       	and    $0xfc0,%eax
    ed99:	80 cc 40             	or     $0x40,%ah
    ed9c:	41 89 c4             	mov    %eax,%r12d
    ed9f:	48 8d 45 d0          	lea    -0x30(%rbp),%rax
    eda3:	48 89 c7             	mov    %rax,%rdi
    eda6:	e8 6c 73 ff ff       	call   6117 <_Z16bit_drop_forwardRm>
    edab:	83 e0 3f             	and    $0x3f,%eax
    edae:	44 09 e0             	or     %r12d,%eax
    edb1:	89 45 c0             	mov    %eax,-0x40(%rbp)
    edb4:	48 8d 45 c0          	lea    -0x40(%rbp),%rax
    edb8:	48 89 c6             	mov    %rax,%rsi
    edbb:	48 89 df             	mov    %rbx,%rdi
    edbe:	e8 59 f0 ff ff       	call   de1c <_ZN10movelist_t9push_backERKj>
    edc3:	48 8b 45 d0          	mov    -0x30(%rbp),%rax
    edc7:	48 85 c0             	test   %rax,%rax
    edca:	75 be                	jne    ed8a <_Z24generate_noisy_moves_forILi3EEvP7board_tP10movelist_t+0xb5>
    edcc:	48 8b 45 c8          	mov    -0x38(%rbp),%rax
    edd0:	48 85 c0             	test   %rax,%rax
    edd3:	0f 85 77 ff ff ff    	jne    ed50 <_Z24generate_noisy_moves_forILi3EEvP7board_tP10movelist_t+0x7b>
    edd9:	90                   	nop
    edda:	48 8b 45 e8          	mov    -0x18(%rbp),%rax
    edde:	64 48 2b 04 25 28 00 	sub    %fs:0x28,%rax
    ede5:	00 00 
    ede7:	74 05                	je     edee <_Z24generate_noisy_moves_forILi3EEvP7board_tP10movelist_t+0x119>
    ede9:	e8 b2 44 ff ff       	call   32a0 <__stack_chk_fail@plt>
    edee:	48 83 c4 40          	add    $0x40,%rsp
    edf2:	5b                   	pop    %rbx
    edf3:	41 5c                	pop    %r12
    edf5:	5d                   	pop    %rbp
    edf6:	c3                   	ret

000000000000edf7 <_Z7attacksILi3EEmim>:
    edf7:	55                   	push   %rbp
    edf8:	48 89 e5             	mov    %rsp,%rbp
    edfb:	89 7d ec             	mov    %edi,-0x14(%rbp)
    edfe:	48 89 75 e0          	mov    %rsi,-0x20(%rbp)
    ee02:	8b 45 ec             	mov    -0x14(%rbp),%eax
    ee05:	48 98                	cltq
    ee07:	48 c1 e0 05          	shl    $0x5,%rax
    ee0b:	48 89 c2             	mov    %rax,%rdx
    ee0e:	48 8d 05 6b ca 0d 00 	lea    0xdca6b(%rip),%rax        # eb880 <bishop_magics>
    ee15:	48 01 d0             	add    %rdx,%rax
    ee18:	48 89 45 f8          	mov    %rax,-0x8(%rbp)
    ee1c:	48 8b 45 f8          	mov    -0x8(%rbp),%rax
    ee20:	48 8b 00             	mov    (%rax),%rax
    ee23:	48 21 45 e0          	and    %rax,-0x20(%rbp)
    ee27:	48 8b 45 f8          	mov    -0x8(%rbp),%rax
    ee2b:	48 8b 40 10          	mov    0x10(%rax),%rax
    ee2f:	48 8b 55 e0          	mov    -0x20(%rbp),%rdx
    ee33:	48 0f af c2          	imul   %rdx,%rax
    ee37:	48 89 45 e0          	mov    %rax,-0x20(%rbp)
    ee3b:	48 8b 45 f8          	mov    -0x8(%rbp),%rax
    ee3f:	8b 40 18             	mov    0x18(%rax),%eax
    ee42:	89 c1                	mov    %eax,%ecx
    ee44:	48 d3 6d e0          	shrq   %cl,-0x20(%rbp)
    ee48:	48 8b 45 f8          	mov    -0x8(%rbp),%rax
    ee4c:	48 8b 50 08          	mov    0x8(%rax),%rdx
    ee50:	48 8b 45 e0          	mov    -0x20(%rbp),%rax
    ee54:	48 c1 e0 03          	shl    $0x3,%rax
    ee58:	48 01 d0             	add    %rdx,%rax
    ee5b:	48 8b 00             	mov    (%rax),%rax
    ee5e:	5d                   	pop    %rbp
    ee5f:	c3                   	ret

000000000000ee60 <_Z7attacksILi4EEmim>:
    ee60:	55                   	push   %rbp
    ee61:	48 89 e5             	mov    %rsp,%rbp
    ee64:	89 7d ec             	mov    %edi,-0x14(%rbp)
    ee67:	48 89 75 e0          	mov    %rsi,-0x20(%rbp)
    ee6b:	8b 45 ec             	mov    -0x14(%rbp),%eax
    ee6e:	48 98                	cltq
    ee70:	48 c1 e0 05          	shl    $0x5,%rax
    ee74:	48 89 c2             	mov    %rax,%rdx
    ee77:	48 8d 05 02 d2 0d 00 	lea    0xdd202(%rip),%rax        # ec080 <rook_magics>
    ee7e:	48 01 d0             	add    %rdx,%rax
    ee81:	48 89 45 f8          	mov    %rax,-0x8(%rbp)
    ee85:	48 8b 45 f8          	mov    -0x8(%rbp),%rax
    ee89:	48 8b 00             	mov    (%rax),%rax
    ee8c:	48 21 45 e0          	and    %rax,-0x20(%rbp)
    ee90:	48 8b 45 f8          	mov    -0x8(%rbp),%rax
    ee94:	48 8b 40 10          	mov    0x10(%rax),%rax
    ee98:	48 8b 55 e0          	mov    -0x20(%rbp),%rdx
    ee9c:	48 0f af c2          	imul   %rdx,%rax
    eea0:	48 89 45 e0          	mov    %rax,-0x20(%rbp)
    eea4:	48 8b 45 f8          	mov    -0x8(%rbp),%rax
    eea8:	8b 40 18             	mov    0x18(%rax),%eax
    eeab:	89 c1                	mov    %eax,%ecx
    eead:	48 d3 6d e0          	shrq   %cl,-0x20(%rbp)
    eeb1:	48 8b 45 f8          	mov    -0x8(%rbp),%rax
    eeb5:	48 8b 50 08          	mov    0x8(%rax),%rdx
    eeb9:	48 8b 45 e0          	mov    -0x20(%rbp),%rax
    eebd:	48 c1 e0 03          	shl    $0x3,%rax
    eec1:	48 01 d0             	add    %rdx,%rax
    eec4:	48 8b 00             	mov    (%rax),%rax
    eec7:	5d                   	pop    %rbp
    eec8:	c3                   	ret

000000000000eec9 <_Z7attacksILi5EEmim>:
    eec9:	55                   	push   %rbp
    eeca:	48 89 e5             	mov    %rsp,%rbp
    eecd:	53                   	push   %rbx
    eece:	48 83 ec 18          	sub    $0x18,%rsp
    eed2:	89 7d ec             	mov    %edi,-0x14(%rbp)
    eed5:	48 89 75 e0          	mov    %rsi,-0x20(%rbp)
    eed9:	48 8b 55 e0          	mov    -0x20(%rbp),%rdx
    eedd:	8b 45 ec             	mov    -0x14(%rbp),%eax
    eee0:	48 89 d6             	mov    %rdx,%rsi
    eee3:	89 c7                	mov    %eax,%edi
    eee5:	e8 0d ff ff ff       	call   edf7 <_Z7attacksILi3EEmim>
    eeea:	48 89 c3             	mov    %rax,%rbx
    eeed:	48 8b 55 e0          	mov    -0x20(%rbp),%rdx
    eef1:	8b 45 ec             	mov    -0x14(%rbp),%eax
    eef4:	48 89 d6             	mov    %rdx,%rsi
    eef7:	89 c7                	mov    %eax,%edi
    eef9:	e8 62 ff ff ff       	call   ee60 <_Z7attacksILi4EEmim>
    eefe:	48 09 d8             	or     %rbx,%rax
    ef01:	48 8b 5d f8          	mov    -0x8(%rbp),%rbx
    ef05:	c9                   	leave
    ef06:	c3                   	ret

000000000000ef07 <_ZSt4moveIRNSt7__cxx1112basic_stringIcSt11char_traitsIcESaIcEEEEONSt16remove_referenceIT_E4typeEOS8_>:
    ef07:	55                   	push   %rbp
    ef08:	48 89 e5             	mov    %rsp,%rbp
    ef0b:	48 89 7d f8          	mov    %rdi,-0x8(%rbp)
    ef0f:	48 8b 45 f8          	mov    -0x8(%rbp),%rax
    ef13:	5d                   	pop    %rbp
    ef14:	c3                   	ret

000000000000ef15 <_ZN12_GLOBAL__N_113splitmix_nextEv>:
    ef15:	55                   	push   %rbp
    ef16:	48 89 e5             	mov    %rsp,%rbp
    ef19:	48 8b 15 40 01 0e 00 	mov    0xe0140(%rip),%rdx        # ef060 <_ZN12_GLOBAL__N_11xE>
    ef20:	48 b8 15 7c 4a 7f b9 	movabs $0x9e3779b97f4a7c15,%rax
    ef27:	79 37 9e 
    ef2a:	48 01 d0             	add    %rdx,%rax
    ef2d:	48 89 05 2c 01 0e 00 	mov    %rax,0xe012c(%rip)        # ef060 <_ZN12_GLOBAL__N_11xE>
    ef34:	48 8b 05 25 01 0e 00 	mov    0xe0125(%rip),%rax        # ef060 <_ZN12_GLOBAL__N_11xE>
    ef3b:	48 89 45 f8          	mov    %rax,-0x8(%rbp)
    ef3f:	48 8b 45 f8          	mov    -0x8(%rbp),%rax
    ef43:	48 c1 e8 1e          	shr    $0x1e,%rax
    ef47:	48 33 45 f8          	xor    -0x8(%rbp),%rax
    ef4b:	48 ba b9 e5 e4 1c 6d 	movabs $0xbf58476d1ce4e5b9,%rdx
    ef52:	47 58 bf 
    ef55:	48 0f af c2          	imul   %rdx,%rax
    ef59:	48 89 45 f8          	mov    %rax,-0x8(%rbp)
    ef5d:	48 8b 45 f8          	mov    -0x8(%rbp),%rax
    ef61:	48 c1 e8 1b          	shr    $0x1b,%rax
    ef65:	48 33 45 f8          	xor    -0x8(%rbp),%rax
    ef69:	48 ba eb 11 31 13 bb 	movabs $0x94d049bb133111eb,%rdx
    ef70:	49 d0 94 
    ef73:	48 0f af c2          	imul   %rdx,%rax
    ef77:	48 89 45 f8          	mov    %rax,-0x8(%rbp)
    ef7b:	48 8b 45 f8          	mov    -0x8(%rbp),%rax
    ef7f:	48 c1 e8 1f          	shr    $0x1f,%rax
    ef83:	48 33 45 f8          	xor    -0x8(%rbp),%rax
    ef87:	5d                   	pop    %rbp
    ef88:	c3                   	ret

000000000000ef89 <_ZN12_GLOBAL__N_15rol64Emi>:
    ef89:	55                   	push   %rbp
    ef8a:	48 89 e5             	mov    %rsp,%rbp
    ef8d:	48 89 7d f8          	mov    %rdi,-0x8(%rbp)
    ef91:	89 75 f4             	mov    %esi,-0xc(%rbp)
    ef94:	8b 45 f4             	mov    -0xc(%rbp),%eax
    ef97:	48 8b 55 f8          	mov    -0x8(%rbp),%rdx
    ef9b:	89 c1                	mov    %eax,%ecx
    ef9d:	48 d3 c2             	rol    %cl,%rdx
    efa0:	48 89 d0             	mov    %rdx,%rax
    efa3:	5d                   	pop    %rbp
    efa4:	c3                   	ret

000000000000efa5 <_ZN12_GLOBAL__N_112xoshiro256ssEPNS_18xoshiro256ss_stateE>:
    efa5:	55                   	push   %rbp
    efa6:	48 89 e5             	mov    %rsp,%rbp
    efa9:	53                   	push   %rbx
    efaa:	48 83 ec 28          	sub    $0x28,%rsp
    efae:	48 89 7d d0          	mov    %rdi,-0x30(%rbp)
    efb2:	48 8b 45 d0          	mov    -0x30(%rbp),%rax
    efb6:	48 89 45 e0          	mov    %rax,-0x20(%rbp)
    efba:	48 8b 45 e0          	mov    -0x20(%rbp),%rax
    efbe:	48 83 c0 08          	add    $0x8,%rax
    efc2:	48 8b 10             	mov    (%rax),%rdx
    efc5:	48 89 d0             	mov    %rdx,%rax
    efc8:	48 c1 e0 02          	shl    $0x2,%rax
    efcc:	48 01 d0             	add    %rdx,%rax
    efcf:	be 07 00 00 00       	mov    $0x7,%esi
    efd4:	48 89 c7             	mov    %rax,%rdi
    efd7:	e8 ad ff ff ff       	call   ef89 <_ZN12_GLOBAL__N_15rol64Emi>
    efdc:	48 89 c2             	mov    %rax,%rdx
    efdf:	48 89 d0             	mov    %rdx,%rax
    efe2:	48 c1 e0 03          	shl    $0x3,%rax
    efe6:	48 01 d0             	add    %rdx,%rax
    efe9:	48 89 45 e8          	mov    %rax,-0x18(%rbp)
    efed:	48 8b 45 e0          	mov    -0x20(%rbp),%rax
    eff1:	48 83 c0 08          	add    $0x8,%rax
    eff5:	48 8b 00             	mov    (%rax),%rax
    eff8:	48 c1 e0 11          	shl    $0x11,%rax
    effc:	48 89 45 f0          	mov    %rax,-0x10(%rbp)
    f000:	48 8b 45 e0          	mov    -0x20(%rbp),%rax
    f004:	48 83 c0 10          	add    $0x10,%rax
    f008:	48 8b 08             	mov    (%rax),%rcx
    f00b:	48 8b 45 e0          	mov    -0x20(%rbp),%rax
    f00f:	48 8b 10             	mov    (%rax),%rdx
    f012:	48 8b 45 e0          	mov    -0x20(%rbp),%rax
    f016:	48 83 c0 10          	add    $0x10,%rax
    f01a:	48 31 ca             	xor    %rcx,%rdx
    f01d:	48 89 10             	mov    %rdx,(%rax)
    f020:	48 8b 45 e0          	mov    -0x20(%rbp),%rax
    f024:	48 83 c0 18          	add    $0x18,%rax
    f028:	48 8b 08             	mov    (%rax),%rcx
    f02b:	48 8b 45 e0          	mov    -0x20(%rbp),%rax
    f02f:	48 83 c0 08          	add    $0x8,%rax
    f033:	48 8b 10             	mov    (%rax),%rdx
    f036:	48 8b 45 e0          	mov    -0x20(%rbp),%rax
    f03a:	48 83 c0 18          	add    $0x18,%rax
    f03e:	48 31 ca             	xor    %rcx,%rdx
    f041:	48 89 10             	mov    %rdx,(%rax)
    f044:	48 8b 45 e0          	mov    -0x20(%rbp),%rax
    f048:	48 83 c0 08          	add    $0x8,%rax
    f04c:	48 8b 08             	mov    (%rax),%rcx
    f04f:	48 8b 45 e0          	mov    -0x20(%rbp),%rax
    f053:	48 83 c0 10          	add    $0x10,%rax
    f057:	48 8b 10             	mov    (%rax),%rdx
    f05a:	48 8b 45 e0          	mov    -0x20(%rbp),%rax
    f05e:	48 83 c0 08          	add    $0x8,%rax
    f062:	48 31 ca             	xor    %rcx,%rdx
    f065:	48 89 10             	mov    %rdx,(%rax)
    f068:	48 8b 45 e0          	mov    -0x20(%rbp),%rax
    f06c:	48 8b 10             	mov    (%rax),%rdx
    f06f:	48 8b 45 e0          	mov    -0x20(%rbp),%rax
    f073:	48 83 c0 18          	add    $0x18,%rax
    f077:	48 8b 00             	mov    (%rax),%rax
    f07a:	48 31 c2             	xor    %rax,%rdx
    f07d:	48 8b 45 e0          	mov    -0x20(%rbp),%rax
    f081:	48 89 10             	mov    %rdx,(%rax)
    f084:	48 8b 45 e0          	mov    -0x20(%rbp),%rax
    f088:	48 83 c0 10          	add    $0x10,%rax
    f08c:	48 8b 00             	mov    (%rax),%rax
    f08f:	48 8b 55 e0          	mov    -0x20(%rbp),%rdx
    f093:	48 83 c2 10          	add    $0x10,%rdx
    f097:	48 33 45 f0          	xor    -0x10(%rbp),%rax
    f09b:	48 89 02             	mov    %rax,(%rdx)
    f09e:	48 8b 45 e0          	mov    -0x20(%rbp),%rax
    f0a2:	48 83 c0 18          	add    $0x18,%rax
    f0a6:	48 8b 00             	mov    (%rax),%rax
    f0a9:	48 8b 55 e0          	mov    -0x20(%rbp),%rdx
    f0ad:	48 8d 5a 18          	lea    0x18(%rdx),%rbx
    f0b1:	be 2d 00 00 00       	mov    $0x2d,%esi
    f0b6:	48 89 c7             	mov    %rax,%rdi
    f0b9:	e8 cb fe ff ff       	call   ef89 <_ZN12_GLOBAL__N_15rol64Emi>
    f0be:	48 89 03             	mov    %rax,(%rbx)
    f0c1:	48 8b 45 e8          	mov    -0x18(%rbp),%rax
    f0c5:	48 8b 5d f8          	mov    -0x8(%rbp),%rbx
    f0c9:	c9                   	leave
    f0ca:	c3                   	ret

000000000000f0cb <_Z8seed_rngm>:
    f0cb:	55                   	push   %rbp
    f0cc:	48 89 e5             	mov    %rsp,%rbp
    f0cf:	48 83 ec 08          	sub    $0x8,%rsp
    f0d3:	48 89 7d f8          	mov    %rdi,-0x8(%rbp)
    f0d7:	48 8b 45 f8          	mov    -0x8(%rbp),%rax
    f0db:	48 89 05 7e ff 0d 00 	mov    %rax,0xdff7e(%rip)        # ef060 <_ZN12_GLOBAL__N_11xE>
    f0e2:	e8 2e fe ff ff       	call   ef15 <_ZN12_GLOBAL__N_113splitmix_nextEv>
    f0e7:	48 89 05 92 ff 0d 00 	mov    %rax,0xdff92(%rip)        # ef080 <_ZN12_GLOBAL__N_19rng_stateE>
    f0ee:	e8 22 fe ff ff       	call   ef15 <_ZN12_GLOBAL__N_113splitmix_nextEv>
    f0f3:	48 89 05 8e ff 0d 00 	mov    %rax,0xdff8e(%rip)        # ef088 <_ZN12_GLOBAL__N_19rng_stateE+0x8>
    f0fa:	e8 16 fe ff ff       	call   ef15 <_ZN12_GLOBAL__N_113splitmix_nextEv>
    f0ff:	48 89 05 8a ff 0d 00 	mov    %rax,0xdff8a(%rip)        # ef090 <_ZN12_GLOBAL__N_19rng_stateE+0x10>
    f106:	e8 0a fe ff ff       	call   ef15 <_ZN12_GLOBAL__N_113splitmix_nextEv>
    f10b:	48 89 05 86 ff 0d 00 	mov    %rax,0xdff86(%rip)        # ef098 <_ZN12_GLOBAL__N_19rng_stateE+0x18>
    f112:	90                   	nop
    f113:	c9                   	leave
    f114:	c3                   	ret

000000000000f115 <_Z11rand_uint64v>:
    f115:	55                   	push   %rbp
    f116:	48 89 e5             	mov    %rsp,%rbp
    f119:	48 8d 05 60 ff 0d 00 	lea    0xdff60(%rip),%rax        # ef080 <_ZN12_GLOBAL__N_19rng_stateE>
    f120:	48 89 c7             	mov    %rax,%rdi
    f123:	e8 7d fe ff ff       	call   efa5 <_ZN12_GLOBAL__N_112xoshiro256ssEPNS_18xoshiro256ss_stateE>
    f128:	5d                   	pop    %rbp
    f129:	c3                   	ret

000000000000f12a <_Z41__static_initialization_and_destruction_0v>:
    f12a:	55                   	push   %rbp
    f12b:	48 89 e5             	mov    %rsp,%rbp
    f12e:	41 52                	push   %r10
    f130:	53                   	push   %rbx
    f131:	48 83 c4 80          	add    $0xffffffffffffff80,%rsp
    f135:	4c 8d 55 10          	lea    0x10(%rbp),%r10
    f139:	64 48 8b 0c 25 28 00 	mov    %fs:0x28,%rcx
    f140:	00 00 
    f142:	48 89 4d e8          	mov    %rcx,-0x18(%rbp)
    f146:	31 c9                	xor    %ecx,%ecx
    f148:	48 8d 0d 69 d7 0d 00 	lea    0xdd769(%rip),%rcx        # ec8b8 <_ZGV13char_to_piece>
    f14f:	0f b6 09             	movzbl (%rcx),%ecx
    f152:	84 c9                	test   %cl,%cl
    f154:	0f 85 71 01 00 00    	jne    f2cb <_Z41__static_initialization_and_destruction_0v+0x1a1>
    f15a:	48 8d 0d 57 d7 0d 00 	lea    0xdd757(%rip),%rcx        # ec8b8 <_ZGV13char_to_piece>
    f161:	c6 01 01             	movb   $0x1,(%rcx)
    f164:	c5 f9 ef c0          	vpxor  %xmm0,%xmm0,%xmm0
    f168:	c5 fe 7f 45 80       	vmovdqu %ymm0,-0x80(%rbp)
    f16d:	c5 fe 7f 45 a0       	vmovdqu %ymm0,-0x60(%rbp)
    f172:	c5 fe 7f 45 c0       	vmovdqu %ymm0,-0x40(%rbp)
    f177:	c5 f9 d6 45 e0       	vmovq  %xmm0,-0x20(%rbp)
    f17c:	c6 45 80 30          	movb   $0x30,-0x80(%rbp)
    f180:	c6 45 88 50          	movb   $0x50,-0x78(%rbp)
    f184:	c7 45 8c 01 00 00 00 	movl   $0x1,-0x74(%rbp)
    f18b:	c6 45 90 52          	movb   $0x52,-0x70(%rbp)
    f18f:	c7 45 94 04 00 00 00 	movl   $0x4,-0x6c(%rbp)
    f196:	c6 45 98 4e          	movb   $0x4e,-0x68(%rbp)
    f19a:	c7 45 9c 02 00 00 00 	movl   $0x2,-0x64(%rbp)
    f1a1:	c6 45 a0 42          	movb   $0x42,-0x60(%rbp)
    f1a5:	c7 45 a4 03 00 00 00 	movl   $0x3,-0x5c(%rbp)
    f1ac:	c6 45 a8 51          	movb   $0x51,-0x58(%rbp)
    f1b0:	c7 45 ac 05 00 00 00 	movl   $0x5,-0x54(%rbp)
    f1b7:	c6 45 b0 4b          	movb   $0x4b,-0x50(%rbp)
    f1bb:	c7 45 b4 06 00 00 00 	movl   $0x6,-0x4c(%rbp)
    f1c2:	c6 45 b8 70          	movb   $0x70,-0x48(%rbp)
    f1c6:	c7 45 bc 09 00 00 00 	movl   $0x9,-0x44(%rbp)
    f1cd:	c6 45 c0 6e          	movb   $0x6e,-0x40(%rbp)
    f1d1:	c7 45 c4 0a 00 00 00 	movl   $0xa,-0x3c(%rbp)
    f1d8:	c6 45 c8 72          	movb   $0x72,-0x38(%rbp)
    f1dc:	c7 45 cc 0c 00 00 00 	movl   $0xc,-0x34(%rbp)
    f1e3:	c6 45 d0 62          	movb   $0x62,-0x30(%rbp)
    f1e7:	c7 45 d4 0b 00 00 00 	movl   $0xb,-0x2c(%rbp)
    f1ee:	c6 45 d8 71          	movb   $0x71,-0x28(%rbp)
    f1f2:	c7 45 dc 0d 00 00 00 	movl   $0xd,-0x24(%rbp)
    f1f9:	c6 45 e0 6b          	movb   $0x6b,-0x20(%rbp)
    f1fd:	c7 45 e4 0e 00 00 00 	movl   $0xe,-0x1c(%rbp)
    f204:	48 8d 4d 80          	lea    -0x80(%rbp),%rcx
    f208:	48 89 c8             	mov    %rcx,%rax
    f20b:	ba 0d 00 00 00       	mov    $0xd,%edx
    f210:	48 8d 8d 77 ff ff ff 	lea    -0x89(%rbp),%rcx
    f217:	48 89 8d 78 ff ff ff 	mov    %rcx,-0x88(%rbp)
    f21e:	90                   	nop
    f21f:	90                   	nop
    f220:	48 8d b5 76 ff ff ff 	lea    -0x8a(%rbp),%rsi
    f227:	48 8d 8d 75 ff ff ff 	lea    -0x8b(%rbp),%rcx
    f22e:	49 89 c0             	mov    %rax,%r8
    f231:	49 89 d1             	mov    %rdx,%r9
    f234:	4c 89 c7             	mov    %r8,%rdi
    f237:	48 83 ec 08          	sub    $0x8,%rsp
    f23b:	48 8d 85 77 ff ff ff 	lea    -0x89(%rbp),%rax
    f242:	50                   	push   %rax
    f243:	49 89 f1             	mov    %rsi,%r9
    f246:	49 89 c8             	mov    %rcx,%r8
    f249:	b9 00 00 00 00       	mov    $0x0,%ecx
    f24e:	48 89 fe             	mov    %rdi,%rsi
    f251:	48 8d 05 28 d6 0d 00 	lea    0xdd628(%rip),%rax        # ec880 <char_to_piece>
    f258:	48 89 c7             	mov    %rax,%rdi
    f25b:	e8 5c 50 ff ff       	call   42bc <_ZNSt13unordered_mapIciSt4hashIcESt8equal_toIcESaISt4pairIKciEEEC1ESt16initializer_listIS6_EmRKS1_RKS3_RKS7_>
    f260:	48 83 c4 10          	add    $0x10,%rsp
    f264:	48 8d 85 77 ff ff ff 	lea    -0x89(%rbp),%rax
    f26b:	48 89 c7             	mov    %rax,%rdi
    f26e:	e8 b5 50 ff ff       	call   4328 <_ZNSt15__new_allocatorISt4pairIKciEED1Ev>
    f273:	90                   	nop
    f274:	48 8d 05 8d 8f 00 00 	lea    0x8f8d(%rip),%rax        # 18208 <__dso_handle>
    f27b:	48 89 c2             	mov    %rax,%rdx
    f27e:	48 8d 05 fb d5 0d 00 	lea    0xdd5fb(%rip),%rax        # ec880 <char_to_piece>
    f285:	48 89 c6             	mov    %rax,%rsi
    f288:	48 8d 05 25 6e ff ff 	lea    -0x91db(%rip),%rax        # 60b4 <_ZNSt13unordered_mapIciSt4hashIcESt8equal_toIcESaISt4pairIKciEEED1Ev>
    f28f:	48 89 c7             	mov    %rax,%rdi
    f292:	e8 69 3f ff ff       	call   3200 <__cxa_atexit@plt>
    f297:	eb 32                	jmp    f2cb <_Z41__static_initialization_and_destruction_0v+0x1a1>
    f299:	48 89 c3             	mov    %rax,%rbx
    f29c:	48 8d 85 77 ff ff ff 	lea    -0x89(%rbp),%rax
    f2a3:	48 89 c7             	mov    %rax,%rdi
    f2a6:	e8 7d 50 ff ff       	call   4328 <_ZNSt15__new_allocatorISt4pairIKciEED1Ev>
    f2ab:	90                   	nop
    f2ac:	48 89 d8             	mov    %rbx,%rax
    f2af:	48 8b 55 e8          	mov    -0x18(%rbp),%rdx
    f2b3:	64 48 2b 14 25 28 00 	sub    %fs:0x28,%rdx
    f2ba:	00 00 
    f2bc:	74 05                	je     f2c3 <_Z41__static_initialization_and_destruction_0v+0x199>
    f2be:	e8 dd 3f ff ff       	call   32a0 <__stack_chk_fail@plt>
    f2c3:	48 89 c7             	mov    %rax,%rdi
    f2c6:	e8 05 41 ff ff       	call   33d0 <_Unwind_Resume@plt>
    f2cb:	90                   	nop
    f2cc:	48 8b 45 e8          	mov    -0x18(%rbp),%rax
    f2d0:	64 48 2b 04 25 28 00 	sub    %fs:0x28,%rax
    f2d7:	00 00 
    f2d9:	74 05                	je     f2e0 <_Z41__static_initialization_and_destruction_0v+0x1b6>
    f2db:	e8 c0 3f ff ff       	call   32a0 <__stack_chk_fail@plt>
    f2e0:	48 8d 65 f0          	lea    -0x10(%rbp),%rsp
    f2e4:	5b                   	pop    %rbx
    f2e5:	41 5a                	pop    %r10
    f2e7:	5d                   	pop    %rbp
    f2e8:	c3                   	ret

000000000000f2e9 <_GLOBAL__sub_I__Z8seed_rngm>:
    f2e9:	55                   	push   %rbp
    f2ea:	48 89 e5             	mov    %rsp,%rbp
    f2ed:	e8 38 fe ff ff       	call   f12a <_Z41__static_initialization_and_destruction_0v>
    f2f2:	5d                   	pop    %rbp
    f2f3:	c3                   	ret

000000000000f2f4 <_Z4loopiPPc>:
    f2f4:	55                   	push   %rbp
    f2f5:	48 89 e5             	mov    %rsp,%rbp
    f2f8:	41 54                	push   %r12
    f2fa:	53                   	push   %rbx
    f2fb:	48 81 ec 10 24 01 00 	sub    $0x12410,%rsp
    f302:	89 bd ec db fe ff    	mov    %edi,-0x12414(%rbp)
    f308:	48 89 b5 e0 db fe ff 	mov    %rsi,-0x12420(%rbp)
    f30f:	64 48 8b 04 25 28 00 	mov    %fs:0x28,%rax
    f316:	00 00 
    f318:	48 89 45 e8          	mov    %rax,-0x18(%rbp)
    f31c:	31 c0                	xor    %eax,%eax
    f31e:	48 8d 85 30 fe fe ff 	lea    -0x101d0(%rbp),%rax
    f325:	bb 00 00 00 00       	mov    $0x0,%ebx
    f32a:	49 89 c4             	mov    %rax,%r12
    f32d:	eb 12                	jmp    f341 <_Z4loopiPPc+0x4d>
    f32f:	4c 89 e7             	mov    %r12,%rdi
    f332:	e8 1b cc ff ff       	call   bf52 <_ZN7board_tC1Ev>
    f337:	48 ff cb             	dec    %rbx
    f33a:	49 81 c4 b0 01 01 00 	add    $0x101b0,%r12
    f341:	48 85 db             	test   %rbx,%rbx
    f344:	79 e9                	jns    f32f <_Z4loopiPPc+0x3b>
    f346:	48 8d 85 30 fe fe ff 	lea    -0x101d0(%rbp),%rax
    f34d:	48 8d 15 6c fd 0d 00 	lea    0xdfd6c(%rip),%rdx        # ef0c0 <_ZL12kiwipete_FEN>
    f354:	48 89 d6             	mov    %rdx,%rsi
    f357:	48 89 c7             	mov    %rax,%rdi
    f35a:	e8 4d 77 ff ff       	call   6aac <_Z5setupP7board_tRKNSt7__cxx1112basic_stringIcSt11char_traitsIcESaIcEEE>
    f35f:	48 8d 85 34 dc fe ff 	lea    -0x123cc(%rbp),%rax
    f366:	bb 00 00 00 00       	mov    $0x0,%ebx
    f36b:	49 89 c4             	mov    %rax,%r12
    f36e:	eb 0f                	jmp    f37f <_Z4loopiPPc+0x8b>
    f370:	4c 89 e7             	mov    %r12,%rdi
    f373:	e8 ac 0c 00 00       	call   10024 <_ZN12searchinfo_tC1Ev>
    f378:	48 ff cb             	dec    %rbx
    f37b:	49 83 c4 0c          	add    $0xc,%r12
    f37f:	48 85 db             	test   %rbx,%rbx
    f382:	79 ec                	jns    f370 <_Z4loopiPPc+0x7c>
    f384:	48 8d 85 40 dc fe ff 	lea    -0x123c0(%rbp),%rax
    f38b:	48 89 c7             	mov    %rax,%rdi
    f38e:	e8 ad 3f ff ff       	call   3340 <_ZNSt7__cxx1112basic_stringIcSt11char_traitsIcESaIcEEC1Ev@plt>
    f393:	48 8d 85 60 dc fe ff 	lea    -0x123a0(%rbp),%rax
    f39a:	48 89 c7             	mov    %rax,%rdi
    f39d:	e8 9e 3f ff ff       	call   3340 <_ZNSt7__cxx1112basic_stringIcSt11char_traitsIcESaIcEEC1Ev@plt>
    f3a2:	e9 4d 06 00 00       	jmp    f9f4 <_Z4loopiPPc+0x700>
    f3a7:	48 8d 85 40 dc fe ff 	lea    -0x123c0(%rbp),%rax
    f3ae:	48 89 c6             	mov    %rax,%rsi
    f3b1:	48 8d 05 a8 93 00 00 	lea    0x93a8(%rip),%rax        # 18760 <_ZSt3cin@GLIBCXX_3.4>
    f3b8:	48 89 c7             	mov    %rax,%rdi
    f3bb:	e8 a0 3c ff ff       	call   3060 <_ZSt7getlineIcSt11char_traitsIcESaIcEERSt13basic_istreamIT_T0_ES7_RNSt7__cxx1112basic_stringIS4_S5_T1_EE@plt>
    f3c0:	48 8b 10             	mov    (%rax),%rdx
    f3c3:	48 83 ea 18          	sub    $0x18,%rdx
    f3c7:	48 8b 12             	mov    (%rdx),%rdx
    f3ca:	48 01 d0             	add    %rdx,%rax
    f3cd:	48 89 c7             	mov    %rax,%rdi
    f3d0:	e8 0b 3d ff ff       	call   30e0 <_ZNKSt9basic_iosIcSt11char_traitsIcEEntEv@plt>
    f3d5:	84 c0                	test   %al,%al
    f3d7:	74 07                	je     f3e0 <_Z4loopiPPc+0xec>
    f3d9:	c6 85 3c dc fe ff 01 	movb   $0x1,-0x123c4(%rbp)
    f3e0:	48 8d 8d 40 dc fe ff 	lea    -0x123c0(%rbp),%rcx
    f3e7:	48 8d 85 a0 dc fe ff 	lea    -0x12360(%rbp),%rax
    f3ee:	ba 08 00 00 00       	mov    $0x8,%edx
    f3f3:	48 89 ce             	mov    %rcx,%rsi
    f3f6:	48 89 c7             	mov    %rax,%rdi
    f3f9:	e8 b2 3f ff ff       	call   33b0 <_ZNSt7__cxx1119basic_istringstreamIcSt11char_traitsIcESaIcEEC1ERKNS_12basic_stringIcS2_S3_EESt13_Ios_Openmode@plt>
    f3fe:	48 8d 85 60 dc fe ff 	lea    -0x123a0(%rbp),%rax
    f405:	48 89 c7             	mov    %rax,%rdi
    f408:	e8 13 3f ff ff       	call   3320 <_ZNSt7__cxx1112basic_stringIcSt11char_traitsIcESaIcEE5clearEv@plt>
    f40d:	48 8d 85 a0 dc fe ff 	lea    -0x12360(%rbp),%rax
    f414:	48 8d 15 e6 0b 00 00 	lea    0xbe6(%rip),%rdx        # 10001 <_ZSt6skipwsRSt8ios_base>
    f41b:	48 89 d6             	mov    %rdx,%rsi
    f41e:	48 89 c7             	mov    %rax,%rdi
    f421:	e8 7a 3f ff ff       	call   33a0 <_ZNSirsEPFRSt8ios_baseS0_E@plt>
    f426:	48 89 c2             	mov    %rax,%rdx
    f429:	48 8d 85 60 dc fe ff 	lea    -0x123a0(%rbp),%rax
    f430:	48 89 c6             	mov    %rax,%rsi
    f433:	48 89 d7             	mov    %rdx,%rdi
    f436:	e8 b5 3e ff ff       	call   32f0 <_ZStrsIcSt11char_traitsIcESaIcEERSt13basic_istreamIT_T0_ES7_RNSt7__cxx1112basic_stringIS4_S5_T1_EE@plt>
    f43b:	48 8d 85 60 dc fe ff 	lea    -0x123a0(%rbp),%rax
    f442:	48 8d 15 1f 33 00 00 	lea    0x331f(%rip),%rdx        # 12768 <_ZL9BORDER_SQ+0x8>
    f449:	48 89 d6             	mov    %rdx,%rsi
    f44c:	48 89 c7             	mov    %rax,%rdi
    f44f:	e8 ab b4 ff ff       	call   a8ff <_ZSteqIcSt11char_traitsIcESaIcEEbRKNSt7__cxx1112basic_stringIT_T0_T1_EEPKS5_>
    f454:	84 c0                	test   %al,%al
    f456:	0f 84 b0 00 00 00    	je     f50c <_Z4loopiPPc+0x218>
    f45c:	48 8d 05 09 33 00 00 	lea    0x3309(%rip),%rax        # 1276c <_ZL9BORDER_SQ+0xc>
    f463:	48 89 c6             	mov    %rax,%rsi
    f466:	48 8d 05 d3 91 00 00 	lea    0x91d3(%rip),%rax        # 18640 <_ZSt4cout@GLIBCXX_3.4>
    f46d:	48 89 c7             	mov    %rax,%rdi
    f470:	e8 ab 3d ff ff       	call   3220 <_ZStlsISt11char_traitsIcEERSt13basic_ostreamIcT_ES5_PKc@plt>
    f475:	48 89 c2             	mov    %rax,%rdx
    f478:	48 8d 05 f6 32 00 00 	lea    0x32f6(%rip),%rax        # 12775 <_ZL9BORDER_SQ+0x15>
    f47f:	48 89 c6             	mov    %rax,%rsi
    f482:	48 89 d7             	mov    %rdx,%rdi
    f485:	e8 96 3d ff ff       	call   3220 <_ZStlsISt11char_traitsIcEERSt13basic_ostreamIcT_ES5_PKc@plt>
    f48a:	48 8b 15 1f 8b 00 00 	mov    0x8b1f(%rip),%rdx        # 17fb0 <_ZSt4endlIcSt11char_traitsIcEERSt13basic_ostreamIT_T0_ES6_@GLIBCXX_3.4>
    f491:	48 89 d6             	mov    %rdx,%rsi
    f494:	48 89 c7             	mov    %rax,%rdi
    f497:	e8 b4 3d ff ff       	call   3250 <_ZNSolsEPFRSoS_E@plt>
    f49c:	48 8d 05 d9 32 00 00 	lea    0x32d9(%rip),%rax        # 1277c <_ZL9BORDER_SQ+0x1c>
    f4a3:	48 89 c6             	mov    %rax,%rsi
    f4a6:	48 8d 05 93 91 00 00 	lea    0x9193(%rip),%rax        # 18640 <_ZSt4cout@GLIBCXX_3.4>
    f4ad:	48 89 c7             	mov    %rax,%rdi
    f4b0:	e8 6b 3d ff ff       	call   3220 <_ZStlsISt11char_traitsIcEERSt13basic_ostreamIcT_ES5_PKc@plt>
    f4b5:	48 89 c2             	mov    %rax,%rdx
    f4b8:	48 8d 05 c8 32 00 00 	lea    0x32c8(%rip),%rax        # 12787 <_ZL9BORDER_SQ+0x27>
    f4bf:	48 89 c6             	mov    %rax,%rsi
    f4c2:	48 89 d7             	mov    %rdx,%rdi
    f4c5:	e8 56 3d ff ff       	call   3220 <_ZStlsISt11char_traitsIcEERSt13basic_ostreamIcT_ES5_PKc@plt>
    f4ca:	48 8b 15 df 8a 00 00 	mov    0x8adf(%rip),%rdx        # 17fb0 <_ZSt4endlIcSt11char_traitsIcEERSt13basic_ostreamIT_T0_ES6_@GLIBCXX_3.4>
    f4d1:	48 89 d6             	mov    %rdx,%rsi
    f4d4:	48 89 c7             	mov    %rax,%rdi
    f4d7:	e8 74 3d ff ff       	call   3250 <_ZNSolsEPFRSoS_E@plt>
    f4dc:	48 8d 05 b1 32 00 00 	lea    0x32b1(%rip),%rax        # 12794 <_ZL9BORDER_SQ+0x34>
    f4e3:	48 89 c6             	mov    %rax,%rsi
    f4e6:	48 8d 05 53 91 00 00 	lea    0x9153(%rip),%rax        # 18640 <_ZSt4cout@GLIBCXX_3.4>
    f4ed:	48 89 c7             	mov    %rax,%rdi
    f4f0:	e8 2b 3d ff ff       	call   3220 <_ZStlsISt11char_traitsIcEERSt13basic_ostreamIcT_ES5_PKc@plt>
    f4f5:	48 8b 15 b4 8a 00 00 	mov    0x8ab4(%rip),%rdx        # 17fb0 <_ZSt4endlIcSt11char_traitsIcEERSt13basic_ostreamIT_T0_ES6_@GLIBCXX_3.4>
    f4fc:	48 89 d6             	mov    %rdx,%rsi
    f4ff:	48 89 c7             	mov    %rax,%rdi
    f502:	e8 49 3d ff ff       	call   3250 <_ZNSolsEPFRSoS_E@plt>
    f507:	e9 d9 04 00 00       	jmp    f9e5 <_Z4loopiPPc+0x6f1>
    f50c:	48 8d 85 60 dc fe ff 	lea    -0x123a0(%rbp),%rax
    f513:	48 8d 15 80 32 00 00 	lea    0x3280(%rip),%rdx        # 1279a <_ZL9BORDER_SQ+0x3a>
    f51a:	48 89 d6             	mov    %rdx,%rsi
    f51d:	48 89 c7             	mov    %rax,%rdi
    f520:	e8 da b3 ff ff       	call   a8ff <_ZSteqIcSt11char_traitsIcESaIcEEbRKNSt7__cxx1112basic_stringIT_T0_T1_EEPKS5_>
    f525:	84 c0                	test   %al,%al
    f527:	74 30                	je     f559 <_Z4loopiPPc+0x265>
    f529:	48 8d 05 72 32 00 00 	lea    0x3272(%rip),%rax        # 127a2 <_ZL9BORDER_SQ+0x42>
    f530:	48 89 c6             	mov    %rax,%rsi
    f533:	48 8d 05 06 91 00 00 	lea    0x9106(%rip),%rax        # 18640 <_ZSt4cout@GLIBCXX_3.4>
    f53a:	48 89 c7             	mov    %rax,%rdi
    f53d:	e8 de 3c ff ff       	call   3220 <_ZStlsISt11char_traitsIcEERSt13basic_ostreamIcT_ES5_PKc@plt>
    f542:	48 8b 15 67 8a 00 00 	mov    0x8a67(%rip),%rdx        # 17fb0 <_ZSt4endlIcSt11char_traitsIcEERSt13basic_ostreamIT_T0_ES6_@GLIBCXX_3.4>
    f549:	48 89 d6             	mov    %rdx,%rsi
    f54c:	48 89 c7             	mov    %rax,%rdi
    f54f:	e8 fc 3c ff ff       	call   3250 <_ZNSolsEPFRSoS_E@plt>
    f554:	e9 8c 04 00 00       	jmp    f9e5 <_Z4loopiPPc+0x6f1>
    f559:	48 8d 85 60 dc fe ff 	lea    -0x123a0(%rbp),%rax
    f560:	48 8d 15 43 32 00 00 	lea    0x3243(%rip),%rdx        # 127aa <_ZL9BORDER_SQ+0x4a>
    f567:	48 89 d6             	mov    %rdx,%rsi
    f56a:	48 89 c7             	mov    %rax,%rdi
    f56d:	e8 8d b3 ff ff       	call   a8ff <_ZSteqIcSt11char_traitsIcESaIcEEbRKNSt7__cxx1112basic_stringIT_T0_T1_EEPKS5_>
    f572:	84 c0                	test   %al,%al
    f574:	75 1d                	jne    f593 <_Z4loopiPPc+0x29f>
    f576:	48 8d 85 60 dc fe ff 	lea    -0x123a0(%rbp),%rax
    f57d:	48 8d 15 2b 32 00 00 	lea    0x322b(%rip),%rdx        # 127af <_ZL9BORDER_SQ+0x4f>
    f584:	48 89 d6             	mov    %rdx,%rsi
    f587:	48 89 c7             	mov    %rax,%rdi
    f58a:	e8 70 b3 ff ff       	call   a8ff <_ZSteqIcSt11char_traitsIcESaIcEEbRKNSt7__cxx1112basic_stringIT_T0_T1_EEPKS5_>
    f58f:	84 c0                	test   %al,%al
    f591:	74 07                	je     f59a <_Z4loopiPPc+0x2a6>
    f593:	b8 01 00 00 00       	mov    $0x1,%eax
    f598:	eb 05                	jmp    f59f <_Z4loopiPPc+0x2ab>
    f59a:	b8 00 00 00 00       	mov    $0x0,%eax
    f59f:	84 c0                	test   %al,%al
    f5a1:	74 0c                	je     f5af <_Z4loopiPPc+0x2bb>
    f5a3:	c6 85 3c dc fe ff 01 	movb   $0x1,-0x123c4(%rbp)
    f5aa:	e9 36 04 00 00       	jmp    f9e5 <_Z4loopiPPc+0x6f1>
    f5af:	48 8d 85 60 dc fe ff 	lea    -0x123a0(%rbp),%rax
    f5b6:	48 8d 15 f7 31 00 00 	lea    0x31f7(%rip),%rdx        # 127b4 <_ZL9BORDER_SQ+0x54>
    f5bd:	48 89 d6             	mov    %rdx,%rsi
    f5c0:	48 89 c7             	mov    %rax,%rdi
    f5c3:	e8 37 b3 ff ff       	call   a8ff <_ZSteqIcSt11char_traitsIcESaIcEEbRKNSt7__cxx1112basic_stringIT_T0_T1_EEPKS5_>
    f5c8:	84 c0                	test   %al,%al
    f5ca:	75 1d                	jne    f5e9 <_Z4loopiPPc+0x2f5>
    f5cc:	48 8d 85 60 dc fe ff 	lea    -0x123a0(%rbp),%rax
    f5d3:	48 8d 15 e0 31 00 00 	lea    0x31e0(%rip),%rdx        # 127ba <_ZL9BORDER_SQ+0x5a>
    f5da:	48 89 d6             	mov    %rdx,%rsi
    f5dd:	48 89 c7             	mov    %rax,%rdi
    f5e0:	e8 1a b3 ff ff       	call   a8ff <_ZSteqIcSt11char_traitsIcESaIcEEbRKNSt7__cxx1112basic_stringIT_T0_T1_EEPKS5_>
    f5e5:	84 c0                	test   %al,%al
    f5e7:	74 07                	je     f5f0 <_Z4loopiPPc+0x2fc>
    f5e9:	b8 01 00 00 00       	mov    $0x1,%eax
    f5ee:	eb 05                	jmp    f5f5 <_Z4loopiPPc+0x301>
    f5f0:	b8 00 00 00 00       	mov    $0x0,%eax
    f5f5:	84 c0                	test   %al,%al
    f5f7:	74 19                	je     f612 <_Z4loopiPPc+0x31e>
    f5f9:	48 8d 85 30 fe fe ff 	lea    -0x101d0(%rbp),%rax
    f600:	be 01 00 00 00       	mov    $0x1,%esi
    f605:	48 89 c7             	mov    %rax,%rdi
    f608:	e8 4d 7b ff ff       	call   715a <_Z5printPK7board_tb>
    f60d:	e9 d3 03 00 00       	jmp    f9e5 <_Z4loopiPPc+0x6f1>
    f612:	48 8d 85 60 dc fe ff 	lea    -0x123a0(%rbp),%rax
    f619:	48 8d 15 9c 31 00 00 	lea    0x319c(%rip),%rdx        # 127bc <_ZL9BORDER_SQ+0x5c>
    f620:	48 89 d6             	mov    %rdx,%rsi
    f623:	48 89 c7             	mov    %rax,%rdi
    f626:	e8 d4 b2 ff ff       	call   a8ff <_ZSteqIcSt11char_traitsIcESaIcEEbRKNSt7__cxx1112basic_stringIT_T0_T1_EEPKS5_>
    f62b:	84 c0                	test   %al,%al
    f62d:	0f 84 c0 00 00 00    	je     f6f3 <_Z4loopiPPc+0x3ff>
    f633:	48 8d 85 ff db fe ff 	lea    -0x12401(%rbp),%rax
    f63a:	48 89 85 28 dc fe ff 	mov    %rax,-0x123d8(%rbp)
    f641:	90                   	nop
    f642:	90                   	nop
    f643:	48 8d 95 ff db fe ff 	lea    -0x12401(%rbp),%rdx
    f64a:	48 8d 85 20 de fe ff 	lea    -0x121e0(%rbp),%rax
    f651:	48 8d 0d 69 31 00 00 	lea    0x3169(%rip),%rcx        # 127c1 <_ZL9BORDER_SQ+0x61>
    f658:	48 89 ce             	mov    %rcx,%rsi
    f65b:	48 89 c7             	mov    %rax,%rdi
    f65e:	e8 61 b1 ff ff       	call   a7c4 <_ZNSt7__cxx1112basic_stringIcSt11char_traitsIcESaIcEEC1IS3_EEPKcRKS3_>
    f663:	48 8d 85 ff db fe ff 	lea    -0x12401(%rbp),%rax
    f66a:	48 89 c7             	mov    %rax,%rdi
    f66d:	e8 d6 b4 ff ff       	call   ab48 <_ZNSt15__new_allocatorIcED1Ev>
    f672:	90                   	nop
    f673:	48 8d 95 20 de fe ff 	lea    -0x121e0(%rbp),%rdx
    f67a:	48 8d 85 a0 dc fe ff 	lea    -0x12360(%rbp),%rax
    f681:	48 89 d6             	mov    %rdx,%rsi
    f684:	48 89 c7             	mov    %rax,%rdi
    f687:	e8 64 3c ff ff       	call   32f0 <_ZStrsIcSt11char_traitsIcESaIcEERSt13basic_istreamIT_T0_ES7_RNSt7__cxx1112basic_stringIS4_S5_T1_EE@plt>
    f68c:	48 8d 95 20 de fe ff 	lea    -0x121e0(%rbp),%rdx
    f693:	48 8d 85 30 fe fe ff 	lea    -0x101d0(%rbp),%rax
    f69a:	48 89 d6             	mov    %rdx,%rsi
    f69d:	48 89 c7             	mov    %rax,%rdi
    f6a0:	e8 4d 04 00 00       	call   faf2 <_Z11str_to_moveP7board_tRNSt7__cxx1112basic_stringIcSt11char_traitsIcESaIcEEE>
    f6a5:	89 85 0c dc fe ff    	mov    %eax,-0x123f4(%rbp)
    f6ab:	83 bd 0c dc fe ff 00 	cmpl   $0x0,-0x123f4(%rbp)
    f6b2:	74 17                	je     f6cb <_Z4loopiPPc+0x3d7>
    f6b4:	8b 95 0c dc fe ff    	mov    -0x123f4(%rbp),%edx
    f6ba:	48 8d 85 30 fe fe ff 	lea    -0x101d0(%rbp),%rax
    f6c1:	89 d6                	mov    %edx,%esi
    f6c3:	48 89 c7             	mov    %rax,%rdi
    f6c6:	e8 33 88 ff ff       	call   7efe <_Z9make_moveP7board_tj>
    f6cb:	48 8d 85 30 fe fe ff 	lea    -0x101d0(%rbp),%rax
    f6d2:	be 01 00 00 00       	mov    $0x1,%esi
    f6d7:	48 89 c7             	mov    %rax,%rdi
    f6da:	e8 7b 7a ff ff       	call   715a <_Z5printPK7board_tb>
    f6df:	48 8d 85 20 de fe ff 	lea    -0x121e0(%rbp),%rax
    f6e6:	48 89 c7             	mov    %rax,%rdi
    f6e9:	e8 42 3d ff ff       	call   3430 <_ZNSt7__cxx1112basic_stringIcSt11char_traitsIcESaIcEED1Ev@plt>
    f6ee:	e9 f2 02 00 00       	jmp    f9e5 <_Z4loopiPPc+0x6f1>
    f6f3:	48 8d 85 60 dc fe ff 	lea    -0x123a0(%rbp),%rax
    f6fa:	48 8d 15 c1 30 00 00 	lea    0x30c1(%rip),%rdx        # 127c2 <_ZL9BORDER_SQ+0x62>
    f701:	48 89 d6             	mov    %rdx,%rsi
    f704:	48 89 c7             	mov    %rax,%rdi
    f707:	e8 f3 b1 ff ff       	call   a8ff <_ZSteqIcSt11char_traitsIcESaIcEEbRKNSt7__cxx1112basic_stringIT_T0_T1_EEPKS5_>
    f70c:	84 c0                	test   %al,%al
    f70e:	74 28                	je     f738 <_Z4loopiPPc+0x444>
    f710:	48 8d 85 30 fe fe ff 	lea    -0x101d0(%rbp),%rax
    f717:	48 89 c7             	mov    %rax,%rdi
    f71a:	e8 21 95 ff ff       	call   8c40 <_Z9undo_moveP7board_t>
    f71f:	48 8d 85 30 fe fe ff 	lea    -0x101d0(%rbp),%rax
    f726:	be 01 00 00 00       	mov    $0x1,%esi
    f72b:	48 89 c7             	mov    %rax,%rdi
    f72e:	e8 27 7a ff ff       	call   715a <_Z5printPK7board_tb>
    f733:	e9 ad 02 00 00       	jmp    f9e5 <_Z4loopiPPc+0x6f1>
    f738:	48 8d 85 60 dc fe ff 	lea    -0x123a0(%rbp),%rax
    f73f:	48 8d 15 81 30 00 00 	lea    0x3081(%rip),%rdx        # 127c7 <_ZL9BORDER_SQ+0x67>
    f746:	48 89 d6             	mov    %rdx,%rsi
    f749:	48 89 c7             	mov    %rax,%rdi
    f74c:	e8 ae b1 ff ff       	call   a8ff <_ZSteqIcSt11char_traitsIcESaIcEEbRKNSt7__cxx1112basic_stringIT_T0_T1_EEPKS5_>
    f751:	84 c0                	test   %al,%al
    f753:	0f 84 da 00 00 00    	je     f833 <_Z4loopiPPc+0x53f>
    f759:	48 8d 85 20 de fe ff 	lea    -0x121e0(%rbp),%rax
    f760:	48 89 c7             	mov    %rax,%rdi
    f763:	e8 e8 ea ff ff       	call   e250 <_ZN10movelist_tC1Ev>
    f768:	48 8d 95 20 de fe ff 	lea    -0x121e0(%rbp),%rdx
    f76f:	48 8d 85 30 fe fe ff 	lea    -0x101d0(%rbp),%rax
    f776:	48 89 d6             	mov    %rdx,%rsi
    f779:	48 89 c7             	mov    %rax,%rdi
    f77c:	e8 63 df ff ff       	call   d6e4 <_Z14generate_movesP7board_tP10movelist_t>
    f781:	48 8d 85 20 de fe ff 	lea    -0x121e0(%rbp),%rax
    f788:	48 89 c7             	mov    %rax,%rdi
    f78b:	e8 1a 08 00 00       	call   ffaa <_ZNK10movelist_t5beginEv>
    f790:	48 89 85 10 dc fe ff 	mov    %rax,-0x123f0(%rbp)
    f797:	eb 5f                	jmp    f7f8 <_Z4loopiPPc+0x504>
    f799:	48 8b 85 10 dc fe ff 	mov    -0x123f0(%rbp),%rax
    f7a0:	8b 10                	mov    (%rax),%edx
    f7a2:	48 8d 85 80 dc fe ff 	lea    -0x12380(%rbp),%rax
    f7a9:	89 d6                	mov    %edx,%esi
    f7ab:	48 89 c7             	mov    %rax,%rdi
    f7ae:	e8 71 e7 ff ff       	call   df24 <_Z11move_to_strB5cxx11j>
    f7b3:	48 8d 85 80 dc fe ff 	lea    -0x12380(%rbp),%rax
    f7ba:	48 89 c6             	mov    %rax,%rsi
    f7bd:	48 8d 05 7c 8e 00 00 	lea    0x8e7c(%rip),%rax        # 18640 <_ZSt4cout@GLIBCXX_3.4>
    f7c4:	48 89 c7             	mov    %rax,%rdi
    f7c7:	e8 44 3a ff ff       	call   3210 <_ZStlsIcSt11char_traitsIcESaIcEERSt13basic_ostreamIT_T0_ES7_RKNSt7__cxx1112basic_stringIS4_S5_T1_EE@plt>
    f7cc:	48 89 c2             	mov    %rax,%rdx
    f7cf:	48 8d 05 f7 2f 00 00 	lea    0x2ff7(%rip),%rax        # 127cd <_ZL9BORDER_SQ+0x6d>
    f7d6:	48 89 c6             	mov    %rax,%rsi
    f7d9:	48 89 d7             	mov    %rdx,%rdi
    f7dc:	e8 3f 3a ff ff       	call   3220 <_ZStlsISt11char_traitsIcEERSt13basic_ostreamIcT_ES5_PKc@plt>
    f7e1:	48 8d 85 80 dc fe ff 	lea    -0x12380(%rbp),%rax
    f7e8:	48 89 c7             	mov    %rax,%rdi
    f7eb:	e8 40 3c ff ff       	call   3430 <_ZNSt7__cxx1112basic_stringIcSt11char_traitsIcESaIcEED1Ev@plt>
    f7f0:	48 83 85 10 dc fe ff 	addq   $0x4,-0x123f0(%rbp)
    f7f7:	04 
    f7f8:	48 8d 85 20 de fe ff 	lea    -0x121e0(%rbp),%rax
    f7ff:	48 89 c7             	mov    %rax,%rdi
    f802:	e8 b1 07 00 00       	call   ffb8 <_ZNK10movelist_t3endEv>
    f807:	48 39 85 10 dc fe ff 	cmp    %rax,-0x123f0(%rbp)
    f80e:	0f 95 c0             	setne  %al
    f811:	84 c0                	test   %al,%al
    f813:	75 84                	jne    f799 <_Z4loopiPPc+0x4a5>
    f815:	48 8b 05 94 87 00 00 	mov    0x8794(%rip),%rax        # 17fb0 <_ZSt4endlIcSt11char_traitsIcEERSt13basic_ostreamIT_T0_ES6_@GLIBCXX_3.4>
    f81c:	48 89 c6             	mov    %rax,%rsi
    f81f:	48 8d 05 1a 8e 00 00 	lea    0x8e1a(%rip),%rax        # 18640 <_ZSt4cout@GLIBCXX_3.4>
    f826:	48 89 c7             	mov    %rax,%rdi
    f829:	e8 22 3a ff ff       	call   3250 <_ZNSolsEPFRSoS_E@plt>
    f82e:	e9 b2 01 00 00       	jmp    f9e5 <_Z4loopiPPc+0x6f1>
    f833:	48 8d 85 60 dc fe ff 	lea    -0x123a0(%rbp),%rax
    f83a:	48 8d 15 8e 2f 00 00 	lea    0x2f8e(%rip),%rdx        # 127cf <_ZL9BORDER_SQ+0x6f>
    f841:	48 89 d6             	mov    %rdx,%rsi
    f844:	48 89 c7             	mov    %rax,%rdi
    f847:	e8 b3 b0 ff ff       	call   a8ff <_ZSteqIcSt11char_traitsIcESaIcEEbRKNSt7__cxx1112basic_stringIT_T0_T1_EEPKS5_>
    f84c:	84 c0                	test   %al,%al
    f84e:	74 14                	je     f864 <_Z4loopiPPc+0x570>
    f850:	48 8d 85 30 fe fe ff 	lea    -0x101d0(%rbp),%rax
    f857:	48 89 c7             	mov    %rax,%rdi
    f85a:	e8 91 80 ff ff       	call   78f0 <_Z4testP7board_t>
    f85f:	e9 81 01 00 00       	jmp    f9e5 <_Z4loopiPPc+0x6f1>
    f864:	48 8d 85 60 dc fe ff 	lea    -0x123a0(%rbp),%rax
    f86b:	48 8d 15 62 2f 00 00 	lea    0x2f62(%rip),%rdx        # 127d4 <_ZL9BORDER_SQ+0x74>
    f872:	48 89 d6             	mov    %rdx,%rsi
    f875:	48 89 c7             	mov    %rax,%rdi
    f878:	e8 82 b0 ff ff       	call   a8ff <_ZSteqIcSt11char_traitsIcESaIcEEbRKNSt7__cxx1112basic_stringIT_T0_T1_EEPKS5_>
    f87d:	84 c0                	test   %al,%al
    f87f:	0f 84 0b 01 00 00    	je     f990 <_Z4loopiPPc+0x69c>
    f885:	48 8d 85 20 de fe ff 	lea    -0x121e0(%rbp),%rax
    f88c:	48 89 c7             	mov    %rax,%rdi
    f88f:	e8 ac 3a ff ff       	call   3340 <_ZNSt7__cxx1112basic_stringIcSt11char_traitsIcESaIcEEC1Ev@plt>
    f894:	48 8d 95 20 de fe ff 	lea    -0x121e0(%rbp),%rdx
    f89b:	48 8d 85 a0 dc fe ff 	lea    -0x12360(%rbp),%rax
    f8a2:	48 89 d6             	mov    %rdx,%rsi
    f8a5:	48 89 c7             	mov    %rax,%rdi
    f8a8:	e8 43 3a ff ff       	call   32f0 <_ZStrsIcSt11char_traitsIcESaIcEERSt13basic_istreamIT_T0_ES7_RNSt7__cxx1112basic_stringIS4_S5_T1_EE@plt>
    f8ad:	48 8d 85 20 de fe ff 	lea    -0x121e0(%rbp),%rax
    f8b4:	48 89 c7             	mov    %rax,%rdi
    f8b7:	e8 d4 3a ff ff       	call   3390 <_ZNKSt7__cxx1112basic_stringIcSt11char_traitsIcESaIcEE5emptyEv@plt>
    f8bc:	84 c0                	test   %al,%al
    f8be:	74 07                	je     f8c7 <_Z4loopiPPc+0x5d3>
    f8c0:	b8 05 00 00 00       	mov    $0x5,%eax
    f8c5:	eb 19                	jmp    f8e0 <_Z4loopiPPc+0x5ec>
    f8c7:	48 8d 85 20 de fe ff 	lea    -0x121e0(%rbp),%rax
    f8ce:	ba 0a 00 00 00       	mov    $0xa,%edx
    f8d3:	be 00 00 00 00       	mov    $0x0,%esi
    f8d8:	48 89 c7             	mov    %rax,%rdi
    f8db:	e8 ac a9 ff ff       	call   a28c <_ZNSt7__cxx114stoiERKNS_12basic_stringIcSt11char_traitsIcESaIcEEEPmi>
    f8e0:	89 85 04 dc fe ff    	mov    %eax,-0x123fc(%rbp)
    f8e6:	c7 85 00 dc fe ff 00 	movl   $0x0,-0x12400(%rbp)
    f8ed:	00 00 00 
    f8f0:	eb 7b                	jmp    f96d <_Z4loopiPPc+0x679>
    f8f2:	c7 85 08 dc fe ff 00 	movl   $0x0,-0x123f8(%rbp)
    f8f9:	00 00 00 
    f8fc:	8b 8d 00 dc fe ff    	mov    -0x12400(%rbp),%ecx
    f902:	48 8d 85 30 fe fe ff 	lea    -0x101d0(%rbp),%rax
    f909:	ba 00 00 00 00       	mov    $0x0,%edx
    f90e:	89 ce                	mov    %ecx,%esi
    f910:	48 89 c7             	mov    %rax,%rdi
    f913:	e8 fb e0 ff ff       	call   da13 <_Z5perftP7board_tib>
    f918:	48 89 85 18 dc fe ff 	mov    %rax,-0x123e8(%rbp)
    f91f:	48 c7 85 20 dc fe ff 	movq   $0x0,-0x123e0(%rbp)
    f926:	00 00 00 00 
    f92a:	c7 85 08 dc fe ff 00 	movl   $0x0,-0x123f8(%rbp)
    f931:	00 00 00 
    f934:	8b b5 08 dc fe ff    	mov    -0x123f8(%rbp),%esi
    f93a:	48 8b 8d 20 dc fe ff 	mov    -0x123e0(%rbp),%rcx
    f941:	48 8b 95 18 dc fe ff 	mov    -0x123e8(%rbp),%rdx
    f948:	8b 85 00 dc fe ff    	mov    -0x12400(%rbp),%eax
    f94e:	41 89 f0             	mov    %esi,%r8d
    f951:	89 c6                	mov    %eax,%esi
    f953:	48 8d 05 86 2e 00 00 	lea    0x2e86(%rip),%rax        # 127e0 <_ZL9BORDER_SQ+0x80>
    f95a:	48 89 c7             	mov    %rax,%rdi
    f95d:	b8 00 00 00 00       	mov    $0x0,%eax
    f962:	e8 e9 36 ff ff       	call   3050 <printf@plt>
    f967:	ff 85 00 dc fe ff    	incl   -0x12400(%rbp)
    f96d:	8b 85 00 dc fe ff    	mov    -0x12400(%rbp),%eax
    f973:	3b 85 04 dc fe ff    	cmp    -0x123fc(%rbp),%eax
    f979:	0f 8c 73 ff ff ff    	jl     f8f2 <_Z4loopiPPc+0x5fe>
    f97f:	48 8d 85 20 de fe ff 	lea    -0x121e0(%rbp),%rax
    f986:	48 89 c7             	mov    %rax,%rdi
    f989:	e8 a2 3a ff ff       	call   3430 <_ZNSt7__cxx1112basic_stringIcSt11char_traitsIcESaIcEED1Ev@plt>
    f98e:	eb 55                	jmp    f9e5 <_Z4loopiPPc+0x6f1>
    f990:	48 8d 05 78 2e 00 00 	lea    0x2e78(%rip),%rax        # 1280f <_ZL9BORDER_SQ+0xaf>
    f997:	48 89 c6             	mov    %rax,%rsi
    f99a:	48 8d 05 9f 8c 00 00 	lea    0x8c9f(%rip),%rax        # 18640 <_ZSt4cout@GLIBCXX_3.4>
    f9a1:	48 89 c7             	mov    %rax,%rdi
    f9a4:	e8 77 38 ff ff       	call   3220 <_ZStlsISt11char_traitsIcEERSt13basic_ostreamIcT_ES5_PKc@plt>
    f9a9:	48 89 c2             	mov    %rax,%rdx
    f9ac:	48 8d 85 60 dc fe ff 	lea    -0x123a0(%rbp),%rax
    f9b3:	48 89 c6             	mov    %rax,%rsi
    f9b6:	48 89 d7             	mov    %rdx,%rdi
    f9b9:	e8 52 38 ff ff       	call   3210 <_ZStlsIcSt11char_traitsIcESaIcEERSt13basic_ostreamIT_T0_ES7_RKNSt7__cxx1112basic_stringIS4_S5_T1_EE@plt>
    f9be:	48 89 c2             	mov    %rax,%rdx
    f9c1:	48 8d 05 5a 2e 00 00 	lea    0x2e5a(%rip),%rax        # 12822 <_ZL9BORDER_SQ+0xc2>
    f9c8:	48 89 c6             	mov    %rax,%rsi
    f9cb:	48 89 d7             	mov    %rdx,%rdi
    f9ce:	e8 4d 38 ff ff       	call   3220 <_ZStlsISt11char_traitsIcEERSt13basic_ostreamIcT_ES5_PKc@plt>
    f9d3:	48 8b 15 d6 85 00 00 	mov    0x85d6(%rip),%rdx        # 17fb0 <_ZSt4endlIcSt11char_traitsIcEERSt13basic_ostreamIT_T0_ES6_@GLIBCXX_3.4>
    f9da:	48 89 d6             	mov    %rdx,%rsi
    f9dd:	48 89 c7             	mov    %rax,%rdi
    f9e0:	e8 6b 38 ff ff       	call   3250 <_ZNSolsEPFRSoS_E@plt>
    f9e5:	48 8d 85 a0 dc fe ff 	lea    -0x12360(%rbp),%rax
    f9ec:	48 89 c7             	mov    %rax,%rdi
    f9ef:	e8 fc 36 ff ff       	call   30f0 <_ZNSt7__cxx1119basic_istringstreamIcSt11char_traitsIcESaIcEED1Ev@plt>
    f9f4:	0f b6 85 3c dc fe ff 	movzbl -0x123c4(%rbp),%eax
    f9fb:	83 f0 01             	xor    $0x1,%eax
    f9fe:	84 c0                	test   %al,%al
    fa00:	0f 85 a1 f9 ff ff    	jne    f3a7 <_Z4loopiPPc+0xb3>
    fa06:	48 8d 85 60 dc fe ff 	lea    -0x123a0(%rbp),%rax
    fa0d:	48 89 c7             	mov    %rax,%rdi
    fa10:	e8 1b 3a ff ff       	call   3430 <_ZNSt7__cxx1112basic_stringIcSt11char_traitsIcESaIcEED1Ev@plt>
    fa15:	48 8d 85 40 dc fe ff 	lea    -0x123c0(%rbp),%rax
    fa1c:	48 89 c7             	mov    %rax,%rdi
    fa1f:	e8 0c 3a ff ff       	call   3430 <_ZNSt7__cxx1112basic_stringIcSt11char_traitsIcESaIcEED1Ev@plt>
    fa24:	48 8b 45 e8          	mov    -0x18(%rbp),%rax
    fa28:	64 48 2b 04 25 28 00 	sub    %fs:0x28,%rax
    fa2f:	00 00 
    fa31:	0f 84 af 00 00 00    	je     fae6 <_Z4loopiPPc+0x7f2>
    fa37:	e9 a5 00 00 00       	jmp    fae1 <_Z4loopiPPc+0x7ed>
    fa3c:	48 89 c3             	mov    %rax,%rbx
    fa3f:	48 8d 85 ff db fe ff 	lea    -0x12401(%rbp),%rax
    fa46:	48 89 c7             	mov    %rax,%rdi
    fa49:	e8 fa b0 ff ff       	call   ab48 <_ZNSt15__new_allocatorIcED1Ev>
    fa4e:	90                   	nop
    fa4f:	eb 3f                	jmp    fa90 <_Z4loopiPPc+0x79c>
    fa51:	48 89 c3             	mov    %rax,%rbx
    fa54:	48 8d 85 20 de fe ff 	lea    -0x121e0(%rbp),%rax
    fa5b:	48 89 c7             	mov    %rax,%rdi
    fa5e:	e8 cd 39 ff ff       	call   3430 <_ZNSt7__cxx1112basic_stringIcSt11char_traitsIcESaIcEED1Ev@plt>
    fa63:	eb 2b                	jmp    fa90 <_Z4loopiPPc+0x79c>
    fa65:	48 89 c3             	mov    %rax,%rbx
    fa68:	48 8d 85 80 dc fe ff 	lea    -0x12380(%rbp),%rax
    fa6f:	48 89 c7             	mov    %rax,%rdi
    fa72:	e8 b9 39 ff ff       	call   3430 <_ZNSt7__cxx1112basic_stringIcSt11char_traitsIcESaIcEED1Ev@plt>
    fa77:	eb 17                	jmp    fa90 <_Z4loopiPPc+0x79c>
    fa79:	48 89 c3             	mov    %rax,%rbx
    fa7c:	48 8d 85 20 de fe ff 	lea    -0x121e0(%rbp),%rax
    fa83:	48 89 c7             	mov    %rax,%rdi
    fa86:	e8 a5 39 ff ff       	call   3430 <_ZNSt7__cxx1112basic_stringIcSt11char_traitsIcESaIcEED1Ev@plt>
    fa8b:	eb 03                	jmp    fa90 <_Z4loopiPPc+0x79c>
    fa8d:	48 89 c3             	mov    %rax,%rbx
    fa90:	48 8d 85 a0 dc fe ff 	lea    -0x12360(%rbp),%rax
    fa97:	48 89 c7             	mov    %rax,%rdi
    fa9a:	e8 51 36 ff ff       	call   30f0 <_ZNSt7__cxx1119basic_istringstreamIcSt11char_traitsIcESaIcEED1Ev@plt>
    fa9f:	eb 03                	jmp    faa4 <_Z4loopiPPc+0x7b0>
    faa1:	48 89 c3             	mov    %rax,%rbx
    faa4:	48 8d 85 60 dc fe ff 	lea    -0x123a0(%rbp),%rax
    faab:	48 89 c7             	mov    %rax,%rdi
    faae:	e8 7d 39 ff ff       	call   3430 <_ZNSt7__cxx1112basic_stringIcSt11char_traitsIcESaIcEED1Ev@plt>
    fab3:	48 8d 85 40 dc fe ff 	lea    -0x123c0(%rbp),%rax
    faba:	48 89 c7             	mov    %rax,%rdi
    fabd:	e8 6e 39 ff ff       	call   3430 <_ZNSt7__cxx1112basic_stringIcSt11char_traitsIcESaIcEED1Ev@plt>
    fac2:	48 89 d8             	mov    %rbx,%rax
    fac5:	48 8b 55 e8          	mov    -0x18(%rbp),%rdx
    fac9:	64 48 2b 14 25 28 00 	sub    %fs:0x28,%rdx
    fad0:	00 00 
    fad2:	74 05                	je     fad9 <_Z4loopiPPc+0x7e5>
    fad4:	e8 c7 37 ff ff       	call   32a0 <__stack_chk_fail@plt>
    fad9:	48 89 c7             	mov    %rax,%rdi
    fadc:	e8 ef 38 ff ff       	call   33d0 <_Unwind_Resume@plt>
    fae1:	e8 ba 37 ff ff       	call   32a0 <__stack_chk_fail@plt>
    fae6:	48 81 c4 10 24 01 00 	add    $0x12410,%rsp
    faed:	5b                   	pop    %rbx
    faee:	41 5c                	pop    %r12
    faf0:	5d                   	pop    %rbp
    faf1:	c3                   	ret

000000000000faf2 <_Z11str_to_moveP7board_tRNSt7__cxx1112basic_stringIcSt11char_traitsIcESaIcEEE>:
    faf2:	55                   	push   %rbp
    faf3:	48 89 e5             	mov    %rsp,%rbp
    faf6:	53                   	push   %rbx
    faf7:	48 81 ec 58 20 00 00 	sub    $0x2058,%rsp
    fafe:	48 89 bd a8 df ff ff 	mov    %rdi,-0x2058(%rbp)
    fb05:	48 89 b5 a0 df ff ff 	mov    %rsi,-0x2060(%rbp)
    fb0c:	64 48 8b 04 25 28 00 	mov    %fs:0x28,%rax
    fb13:	00 00 
    fb15:	48 89 45 e8          	mov    %rax,-0x18(%rbp)
    fb19:	31 c0                	xor    %eax,%eax
    fb1b:	48 8d 85 e0 df ff ff 	lea    -0x2020(%rbp),%rax
    fb22:	48 89 c7             	mov    %rax,%rdi
    fb25:	e8 26 e7 ff ff       	call   e250 <_ZN10movelist_tC1Ev>
    fb2a:	48 8d 85 e0 df ff ff 	lea    -0x2020(%rbp),%rax
    fb31:	48 8b 95 a8 df ff ff 	mov    -0x2058(%rbp),%rdx
    fb38:	48 89 c6             	mov    %rax,%rsi
    fb3b:	48 89 d7             	mov    %rdx,%rdi
    fb3e:	e8 a1 db ff ff       	call   d6e4 <_Z14generate_movesP7board_tP10movelist_t>
    fb43:	48 8d 85 e0 df ff ff 	lea    -0x2020(%rbp),%rax
    fb4a:	48 89 c7             	mov    %rax,%rdi
    fb4d:	e8 58 04 00 00       	call   ffaa <_ZNK10movelist_t5beginEv>
    fb52:	48 89 85 b8 df ff ff 	mov    %rax,-0x2048(%rbp)
    fb59:	e9 b3 00 00 00       	jmp    fc11 <_Z11str_to_moveP7board_tRNSt7__cxx1112basic_stringIcSt11char_traitsIcESaIcEEE+0x11f>
    fb5e:	48 8b 85 b8 df ff ff 	mov    -0x2048(%rbp),%rax
    fb65:	8b 10                	mov    (%rax),%edx
    fb67:	48 8d 85 c0 df ff ff 	lea    -0x2040(%rbp),%rax
    fb6e:	89 d6                	mov    %edx,%esi
    fb70:	48 89 c7             	mov    %rax,%rdi
    fb73:	e8 ac e3 ff ff       	call   df24 <_Z11move_to_strB5cxx11j>
    fb78:	48 8b 95 a0 df ff ff 	mov    -0x2060(%rbp),%rdx
    fb7f:	48 8d 85 c0 df ff ff 	lea    -0x2040(%rbp),%rax
    fb86:	48 89 d6             	mov    %rdx,%rsi
    fb89:	48 89 c7             	mov    %rax,%rdi
    fb8c:	e8 a6 04 00 00       	call   10037 <_ZSteqIcSt11char_traitsIcESaIcEEbRKNSt7__cxx1112basic_stringIT_T0_T1_EESA_>
    fb91:	89 c3                	mov    %eax,%ebx
    fb93:	48 8d 85 c0 df ff ff 	lea    -0x2040(%rbp),%rax
    fb9a:	48 89 c7             	mov    %rax,%rdi
    fb9d:	e8 8e 38 ff ff       	call   3430 <_ZNSt7__cxx1112basic_stringIcSt11char_traitsIcESaIcEED1Ev@plt>
    fba2:	84 db                	test   %bl,%bl
    fba4:	74 63                	je     fc09 <_Z11str_to_moveP7board_tRNSt7__cxx1112basic_stringIcSt11char_traitsIcESaIcEEE+0x117>
    fba6:	48 8d 05 77 2c 00 00 	lea    0x2c77(%rip),%rax        # 12824 <_ZL9BORDER_SQ+0xc4>
    fbad:	48 89 c6             	mov    %rax,%rsi
    fbb0:	48 8d 05 89 8a 00 00 	lea    0x8a89(%rip),%rax        # 18640 <_ZSt4cout@GLIBCXX_3.4>
    fbb7:	48 89 c7             	mov    %rax,%rdi
    fbba:	e8 61 36 ff ff       	call   3220 <_ZStlsISt11char_traitsIcEERSt13basic_ostreamIcT_ES5_PKc@plt>
    fbbf:	48 89 c2             	mov    %rax,%rdx
    fbc2:	48 8b 85 a0 df ff ff 	mov    -0x2060(%rbp),%rax
    fbc9:	48 89 c6             	mov    %rax,%rsi
    fbcc:	48 89 d7             	mov    %rdx,%rdi
    fbcf:	e8 3c 36 ff ff       	call   3210 <_ZStlsIcSt11char_traitsIcESaIcEERSt13basic_ostreamIT_T0_ES7_RKNSt7__cxx1112basic_stringIS4_S5_T1_EE@plt>
    fbd4:	48 89 c2             	mov    %rax,%rdx
    fbd7:	48 8d 05 4d 2c 00 00 	lea    0x2c4d(%rip),%rax        # 1282b <_ZL9BORDER_SQ+0xcb>
    fbde:	48 89 c6             	mov    %rax,%rsi
    fbe1:	48 89 d7             	mov    %rdx,%rdi
    fbe4:	e8 37 36 ff ff       	call   3220 <_ZStlsISt11char_traitsIcEERSt13basic_ostreamIcT_ES5_PKc@plt>
    fbe9:	48 8b 15 c0 83 00 00 	mov    0x83c0(%rip),%rdx        # 17fb0 <_ZSt4endlIcSt11char_traitsIcEERSt13basic_ostreamIT_T0_ES6_@GLIBCXX_3.4>
    fbf0:	48 89 d6             	mov    %rdx,%rsi
    fbf3:	48 89 c7             	mov    %rax,%rdi
    fbf6:	e8 55 36 ff ff       	call   3250 <_ZNSolsEPFRSoS_E@plt>
    fbfb:	48 8b 85 b8 df ff ff 	mov    -0x2048(%rbp),%rax
    fc02:	8b 00                	mov    (%rax),%eax
    fc04:	e9 83 00 00 00       	jmp    fc8c <_Z11str_to_moveP7board_tRNSt7__cxx1112basic_stringIcSt11char_traitsIcESaIcEEE+0x19a>
    fc09:	48 83 85 b8 df ff ff 	addq   $0x4,-0x2048(%rbp)
    fc10:	04 
    fc11:	48 8d 85 e0 df ff ff 	lea    -0x2020(%rbp),%rax
    fc18:	48 89 c7             	mov    %rax,%rdi
    fc1b:	e8 98 03 00 00       	call   ffb8 <_ZNK10movelist_t3endEv>
    fc20:	48 39 85 b8 df ff ff 	cmp    %rax,-0x2048(%rbp)
    fc27:	0f 95 c0             	setne  %al
    fc2a:	84 c0                	test   %al,%al
    fc2c:	0f 85 2c ff ff ff    	jne    fb5e <_Z11str_to_moveP7board_tRNSt7__cxx1112basic_stringIcSt11char_traitsIcESaIcEEE+0x6c>
    fc32:	48 8d 05 eb 2b 00 00 	lea    0x2beb(%rip),%rax        # 12824 <_ZL9BORDER_SQ+0xc4>
    fc39:	48 89 c6             	mov    %rax,%rsi
    fc3c:	48 8d 05 fd 89 00 00 	lea    0x89fd(%rip),%rax        # 18640 <_ZSt4cout@GLIBCXX_3.4>
    fc43:	48 89 c7             	mov    %rax,%rdi
    fc46:	e8 d5 35 ff ff       	call   3220 <_ZStlsISt11char_traitsIcEERSt13basic_ostreamIcT_ES5_PKc@plt>
    fc4b:	48 89 c2             	mov    %rax,%rdx
    fc4e:	48 8b 85 a0 df ff ff 	mov    -0x2060(%rbp),%rax
    fc55:	48 89 c6             	mov    %rax,%rsi
    fc58:	48 89 d7             	mov    %rdx,%rdi
    fc5b:	e8 b0 35 ff ff       	call   3210 <_ZStlsIcSt11char_traitsIcESaIcEERSt13basic_ostreamIT_T0_ES7_RKNSt7__cxx1112basic_stringIS4_S5_T1_EE@plt>
    fc60:	48 89 c2             	mov    %rax,%rdx
    fc63:	48 8d 05 c9 2b 00 00 	lea    0x2bc9(%rip),%rax        # 12833 <_ZL9BORDER_SQ+0xd3>
    fc6a:	48 89 c6             	mov    %rax,%rsi
    fc6d:	48 89 d7             	mov    %rdx,%rdi
    fc70:	e8 ab 35 ff ff       	call   3220 <_ZStlsISt11char_traitsIcEERSt13basic_ostreamIcT_ES5_PKc@plt>
    fc75:	48 8b 15 34 83 00 00 	mov    0x8334(%rip),%rdx        # 17fb0 <_ZSt4endlIcSt11char_traitsIcEERSt13basic_ostreamIT_T0_ES6_@GLIBCXX_3.4>
    fc7c:	48 89 d6             	mov    %rdx,%rsi
    fc7f:	48 89 c7             	mov    %rax,%rdi
    fc82:	e8 c9 35 ff ff       	call   3250 <_ZNSolsEPFRSoS_E@plt>
    fc87:	b8 00 00 00 00       	mov    $0x0,%eax
    fc8c:	48 8b 55 e8          	mov    -0x18(%rbp),%rdx
    fc90:	64 48 2b 14 25 28 00 	sub    %fs:0x28,%rdx
    fc97:	00 00 
    fc99:	74 05                	je     fca0 <_Z11str_to_moveP7board_tRNSt7__cxx1112basic_stringIcSt11char_traitsIcESaIcEEE+0x1ae>
    fc9b:	e8 00 36 ff ff       	call   32a0 <__stack_chk_fail@plt>
    fca0:	48 8b 5d f8          	mov    -0x8(%rbp),%rbx
    fca4:	c9                   	leave
    fca5:	c3                   	ret

000000000000fca6 <_Z41__static_initialization_and_destruction_0v>:
    fca6:	55                   	push   %rbp
    fca7:	48 89 e5             	mov    %rsp,%rbp
    fcaa:	41 52                	push   %r10
    fcac:	53                   	push   %rbx
    fcad:	48 81 ec 90 00 00 00 	sub    $0x90,%rsp
    fcb4:	4c 8d 55 10          	lea    0x10(%rbp),%r10
    fcb8:	64 48 8b 0c 25 28 00 	mov    %fs:0x28,%rcx
    fcbf:	00 00 
    fcc1:	48 89 4d e8          	mov    %rcx,-0x18(%rbp)
    fcc5:	31 c9                	xor    %ecx,%ecx
    fcc7:	48 8d 0d ea cb 0d 00 	lea    0xdcbea(%rip),%rcx        # ec8b8 <_ZGV13char_to_piece>
    fcce:	0f b6 09             	movzbl (%rcx),%ecx
    fcd1:	84 c9                	test   %cl,%cl
    fcd3:	0f 85 3d 01 00 00    	jne    fe16 <_Z41__static_initialization_and_destruction_0v+0x170>
    fcd9:	48 8d 0d d8 cb 0d 00 	lea    0xdcbd8(%rip),%rcx        # ec8b8 <_ZGV13char_to_piece>
    fce0:	c6 01 01             	movb   $0x1,(%rcx)
    fce3:	c5 f9 ef c0          	vpxor  %xmm0,%xmm0,%xmm0
    fce7:	c5 fe 7f 45 80       	vmovdqu %ymm0,-0x80(%rbp)
    fcec:	c5 fe 7f 45 a0       	vmovdqu %ymm0,-0x60(%rbp)
    fcf1:	c5 fe 7f 45 c0       	vmovdqu %ymm0,-0x40(%rbp)
    fcf6:	c5 f9 d6 45 e0       	vmovq  %xmm0,-0x20(%rbp)
    fcfb:	c6 45 80 30          	movb   $0x30,-0x80(%rbp)
    fcff:	c6 45 88 50          	movb   $0x50,-0x78(%rbp)
    fd03:	c7 45 8c 01 00 00 00 	movl   $0x1,-0x74(%rbp)
    fd0a:	c6 45 90 52          	movb   $0x52,-0x70(%rbp)
    fd0e:	c7 45 94 04 00 00 00 	movl   $0x4,-0x6c(%rbp)
    fd15:	c6 45 98 4e          	movb   $0x4e,-0x68(%rbp)
    fd19:	c7 45 9c 02 00 00 00 	movl   $0x2,-0x64(%rbp)
    fd20:	c6 45 a0 42          	movb   $0x42,-0x60(%rbp)
    fd24:	c7 45 a4 03 00 00 00 	movl   $0x3,-0x5c(%rbp)
    fd2b:	c6 45 a8 51          	movb   $0x51,-0x58(%rbp)
    fd2f:	c7 45 ac 05 00 00 00 	movl   $0x5,-0x54(%rbp)
    fd36:	c6 45 b0 4b          	movb   $0x4b,-0x50(%rbp)
    fd3a:	c7 45 b4 06 00 00 00 	movl   $0x6,-0x4c(%rbp)
    fd41:	c6 45 b8 70          	movb   $0x70,-0x48(%rbp)
    fd45:	c7 45 bc 09 00 00 00 	movl   $0x9,-0x44(%rbp)
    fd4c:	c6 45 c0 6e          	movb   $0x6e,-0x40(%rbp)
    fd50:	c7 45 c4 0a 00 00 00 	movl   $0xa,-0x3c(%rbp)
    fd57:	c6 45 c8 72          	movb   $0x72,-0x38(%rbp)
    fd5b:	c7 45 cc 0c 00 00 00 	movl   $0xc,-0x34(%rbp)
    fd62:	c6 45 d0 62          	movb   $0x62,-0x30(%rbp)
    fd66:	c7 45 d4 0b 00 00 00 	movl   $0xb,-0x2c(%rbp)
    fd6d:	c6 45 d8 71          	movb   $0x71,-0x28(%rbp)
    fd71:	c7 45 dc 0d 00 00 00 	movl   $0xd,-0x24(%rbp)
    fd78:	c6 45 e0 6b          	movb   $0x6b,-0x20(%rbp)
    fd7c:	c7 45 e4 0e 00 00 00 	movl   $0xe,-0x1c(%rbp)
    fd83:	48 8d 4d 80          	lea    -0x80(%rbp),%rcx
    fd87:	48 89 c8             	mov    %rcx,%rax
    fd8a:	ba 0d 00 00 00       	mov    $0xd,%edx
    fd8f:	48 8d 8d 67 ff ff ff 	lea    -0x99(%rbp),%rcx
    fd96:	48 89 8d 68 ff ff ff 	mov    %rcx,-0x98(%rbp)
    fd9d:	90                   	nop
    fd9e:	90                   	nop
    fd9f:	48 8d b5 66 ff ff ff 	lea    -0x9a(%rbp),%rsi
    fda6:	48 8d 8d 65 ff ff ff 	lea    -0x9b(%rbp),%rcx
    fdad:	49 89 c0             	mov    %rax,%r8
    fdb0:	49 89 d1             	mov    %rdx,%r9
    fdb3:	4c 89 c7             	mov    %r8,%rdi
    fdb6:	48 83 ec 08          	sub    $0x8,%rsp
    fdba:	48 8d 85 67 ff ff ff 	lea    -0x99(%rbp),%rax
    fdc1:	50                   	push   %rax
    fdc2:	49 89 f1             	mov    %rsi,%r9
    fdc5:	49 89 c8             	mov    %rcx,%r8
    fdc8:	b9 00 00 00 00       	mov    $0x0,%ecx
    fdcd:	48 89 fe             	mov    %rdi,%rsi
    fdd0:	48 8d 05 a9 ca 0d 00 	lea    0xdcaa9(%rip),%rax        # ec880 <char_to_piece>
    fdd7:	48 89 c7             	mov    %rax,%rdi
    fdda:	e8 dd 44 ff ff       	call   42bc <_ZNSt13unordered_mapIciSt4hashIcESt8equal_toIcESaISt4pairIKciEEEC1ESt16initializer_listIS6_EmRKS1_RKS3_RKS7_>
    fddf:	48 83 c4 10          	add    $0x10,%rsp
    fde3:	48 8d 85 67 ff ff ff 	lea    -0x99(%rbp),%rax
    fdea:	48 89 c7             	mov    %rax,%rdi
    fded:	e8 36 45 ff ff       	call   4328 <_ZNSt15__new_allocatorISt4pairIKciEED1Ev>
    fdf2:	90                   	nop
    fdf3:	48 8d 05 0e 84 00 00 	lea    0x840e(%rip),%rax        # 18208 <__dso_handle>
    fdfa:	48 89 c2             	mov    %rax,%rdx
    fdfd:	48 8d 05 7c ca 0d 00 	lea    0xdca7c(%rip),%rax        # ec880 <char_to_piece>
    fe04:	48 89 c6             	mov    %rax,%rsi
    fe07:	48 8d 05 a6 62 ff ff 	lea    -0x9d5a(%rip),%rax        # 60b4 <_ZNSt13unordered_mapIciSt4hashIcESt8equal_toIcESaISt4pairIKciEEED1Ev>
    fe0e:	48 89 c7             	mov    %rax,%rdi
    fe11:	e8 ea 33 ff ff       	call   3200 <__cxa_atexit@plt>
    fe16:	48 8d 85 67 ff ff ff 	lea    -0x99(%rbp),%rax
    fe1d:	48 89 85 70 ff ff ff 	mov    %rax,-0x90(%rbp)
    fe24:	90                   	nop
    fe25:	90                   	nop
    fe26:	48 8d 85 67 ff ff ff 	lea    -0x99(%rbp),%rax
    fe2d:	48 89 c2             	mov    %rax,%rdx
    fe30:	48 8d 05 49 2a 00 00 	lea    0x2a49(%rip),%rax        # 12880 <_ZL9BORDER_SQ+0x120>
    fe37:	48 89 c6             	mov    %rax,%rsi
    fe3a:	48 8d 05 5f f2 0d 00 	lea    0xdf25f(%rip),%rax        # ef0a0 <_ZL9start_FEN>
    fe41:	48 89 c7             	mov    %rax,%rdi
    fe44:	e8 7b a9 ff ff       	call   a7c4 <_ZNSt7__cxx1112basic_stringIcSt11char_traitsIcESaIcEEC1IS3_EEPKcRKS3_>
    fe49:	48 8d 85 67 ff ff ff 	lea    -0x99(%rbp),%rax
    fe50:	48 89 c7             	mov    %rax,%rdi
    fe53:	e8 f0 ac ff ff       	call   ab48 <_ZNSt15__new_allocatorIcED1Ev>
    fe58:	90                   	nop
    fe59:	48 8d 05 a8 83 00 00 	lea    0x83a8(%rip),%rax        # 18208 <__dso_handle>
    fe60:	48 89 c2             	mov    %rax,%rdx
    fe63:	48 8d 05 36 f2 0d 00 	lea    0xdf236(%rip),%rax        # ef0a0 <_ZL9start_FEN>
    fe6a:	48 89 c6             	mov    %rax,%rsi
    fe6d:	48 8b 05 44 81 00 00 	mov    0x8144(%rip),%rax        # 17fb8 <_ZNSt7__cxx1112basic_stringIcSt11char_traitsIcESaIcEED1Ev@GLIBCXX_3.4.21>
    fe74:	48 89 c7             	mov    %rax,%rdi
    fe77:	e8 84 33 ff ff       	call   3200 <__cxa_atexit@plt>
    fe7c:	48 8d 85 67 ff ff ff 	lea    -0x99(%rbp),%rax
    fe83:	48 89 85 78 ff ff ff 	mov    %rax,-0x88(%rbp)
    fe8a:	90                   	nop
    fe8b:	90                   	nop
    fe8c:	48 8d 85 67 ff ff ff 	lea    -0x99(%rbp),%rax
    fe93:	48 89 c2             	mov    %rax,%rdx
    fe96:	48 8d 05 23 2a 00 00 	lea    0x2a23(%rip),%rax        # 128c0 <_ZL9BORDER_SQ+0x160>
    fe9d:	48 89 c6             	mov    %rax,%rsi
    fea0:	48 8d 05 19 f2 0d 00 	lea    0xdf219(%rip),%rax        # ef0c0 <_ZL12kiwipete_FEN>
    fea7:	48 89 c7             	mov    %rax,%rdi
    feaa:	e8 15 a9 ff ff       	call   a7c4 <_ZNSt7__cxx1112basic_stringIcSt11char_traitsIcESaIcEEC1IS3_EEPKcRKS3_>
    feaf:	48 8d 85 67 ff ff ff 	lea    -0x99(%rbp),%rax
    feb6:	48 89 c7             	mov    %rax,%rdi
    feb9:	e8 8a ac ff ff       	call   ab48 <_ZNSt15__new_allocatorIcED1Ev>
    febe:	90                   	nop
    febf:	48 8d 05 42 83 00 00 	lea    0x8342(%rip),%rax        # 18208 <__dso_handle>
    fec6:	48 89 c2             	mov    %rax,%rdx
    fec9:	48 8d 05 f0 f1 0d 00 	lea    0xdf1f0(%rip),%rax        # ef0c0 <_ZL12kiwipete_FEN>
    fed0:	48 89 c6             	mov    %rax,%rsi
    fed3:	48 8b 05 de 80 00 00 	mov    0x80de(%rip),%rax        # 17fb8 <_ZNSt7__cxx1112basic_stringIcSt11char_traitsIcESaIcEED1Ev@GLIBCXX_3.4.21>
    feda:	48 89 c7             	mov    %rax,%rdi
    fedd:	e8 1e 33 ff ff       	call   3200 <__cxa_atexit@plt>
    fee2:	90                   	nop
    fee3:	48 8b 45 e8          	mov    -0x18(%rbp),%rax
    fee7:	64 48 2b 04 25 28 00 	sub    %fs:0x28,%rax
    feee:	00 00 
    fef0:	0f 84 a0 00 00 00    	je     ff96 <_Z41__static_initialization_and_destruction_0v+0x2f0>
    fef6:	e9 96 00 00 00       	jmp    ff91 <_Z41__static_initialization_and_destruction_0v+0x2eb>
    fefb:	48 89 c3             	mov    %rax,%rbx
    fefe:	48 8d 85 67 ff ff ff 	lea    -0x99(%rbp),%rax
    ff05:	48 89 c7             	mov    %rax,%rdi
    ff08:	e8 1b 44 ff ff       	call   4328 <_ZNSt15__new_allocatorISt4pairIKciEED1Ev>
    ff0d:	90                   	nop
    ff0e:	48 89 d8             	mov    %rbx,%rax
    ff11:	48 8b 55 e8          	mov    -0x18(%rbp),%rdx
    ff15:	64 48 2b 14 25 28 00 	sub    %fs:0x28,%rdx
    ff1c:	00 00 
    ff1e:	74 05                	je     ff25 <_Z41__static_initialization_and_destruction_0v+0x27f>
    ff20:	e8 7b 33 ff ff       	call   32a0 <__stack_chk_fail@plt>
    ff25:	48 89 c7             	mov    %rax,%rdi
    ff28:	e8 a3 34 ff ff       	call   33d0 <_Unwind_Resume@plt>
    ff2d:	48 89 c3             	mov    %rax,%rbx
    ff30:	48 8d 85 67 ff ff ff 	lea    -0x99(%rbp),%rax
    ff37:	48 89 c7             	mov    %rax,%rdi
    ff3a:	e8 09 ac ff ff       	call   ab48 <_ZNSt15__new_allocatorIcED1Ev>
    ff3f:	90                   	nop
    ff40:	48 89 d8             	mov    %rbx,%rax
    ff43:	48 8b 55 e8          	mov    -0x18(%rbp),%rdx
    ff47:	64 48 2b 14 25 28 00 	sub    %fs:0x28,%rdx
    ff4e:	00 00 
    ff50:	74 05                	je     ff57 <_Z41__static_initialization_and_destruction_0v+0x2b1>
    ff52:	e8 49 33 ff ff       	call   32a0 <__stack_chk_fail@plt>
    ff57:	48 89 c7             	mov    %rax,%rdi
    ff5a:	e8 71 34 ff ff       	call   33d0 <_Unwind_Resume@plt>
    ff5f:	48 89 c3             	mov    %rax,%rbx
    ff62:	48 8d 85 67 ff ff ff 	lea    -0x99(%rbp),%rax
    ff69:	48 89 c7             	mov    %rax,%rdi
    ff6c:	e8 d7 ab ff ff       	call   ab48 <_ZNSt15__new_allocatorIcED1Ev>
    ff71:	90                   	nop
    ff72:	48 89 d8             	mov    %rbx,%rax
    ff75:	48 8b 55 e8          	mov    -0x18(%rbp),%rdx
    ff79:	64 48 2b 14 25 28 00 	sub    %fs:0x28,%rdx
    ff80:	00 00 
    ff82:	74 05                	je     ff89 <_Z41__static_initialization_and_destruction_0v+0x2e3>
    ff84:	e8 17 33 ff ff       	call   32a0 <__stack_chk_fail@plt>
    ff89:	48 89 c7             	mov    %rax,%rdi
    ff8c:	e8 3f 34 ff ff       	call   33d0 <_Unwind_Resume@plt>
    ff91:	e8 0a 33 ff ff       	call   32a0 <__stack_chk_fail@plt>
    ff96:	48 8d 65 f0          	lea    -0x10(%rbp),%rsp
    ff9a:	5b                   	pop    %rbx
    ff9b:	41 5a                	pop    %r10
    ff9d:	5d                   	pop    %rbp
    ff9e:	c3                   	ret

000000000000ff9f <_GLOBAL__sub_I__Z4loopiPPc>:
    ff9f:	55                   	push   %rbp
    ffa0:	48 89 e5             	mov    %rsp,%rbp
    ffa3:	e8 fe fc ff ff       	call   fca6 <_Z41__static_initialization_and_destruction_0v>
    ffa8:	5d                   	pop    %rbp
    ffa9:	c3                   	ret

000000000000ffaa <_ZNK10movelist_t5beginEv>:
    ffaa:	55                   	push   %rbp
    ffab:	48 89 e5             	mov    %rsp,%rbp
    ffae:	48 89 7d f8          	mov    %rdi,-0x8(%rbp)
    ffb2:	48 8b 45 f8          	mov    -0x8(%rbp),%rax
    ffb6:	5d                   	pop    %rbp
    ffb7:	c3                   	ret

000000000000ffb8 <_ZNK10movelist_t3endEv>:
    ffb8:	55                   	push   %rbp
    ffb9:	48 89 e5             	mov    %rsp,%rbp
    ffbc:	48 89 7d f8          	mov    %rdi,-0x8(%rbp)
    ffc0:	48 8b 45 f8          	mov    -0x8(%rbp),%rax
    ffc4:	48 8b 80 00 20 00 00 	mov    0x2000(%rax),%rax
    ffcb:	5d                   	pop    %rbp
    ffcc:	c3                   	ret
    ffcd:	90                   	nop

000000000000ffce <_ZNSt8ios_base4setfESt13_Ios_Fmtflags>:
    ffce:	55                   	push   %rbp
    ffcf:	48 89 e5             	mov    %rsp,%rbp
    ffd2:	48 83 ec 20          	sub    $0x20,%rsp
    ffd6:	48 89 7d e8          	mov    %rdi,-0x18(%rbp)
    ffda:	89 75 e4             	mov    %esi,-0x1c(%rbp)
    ffdd:	48 8b 45 e8          	mov    -0x18(%rbp),%rax
    ffe1:	8b 40 18             	mov    0x18(%rax),%eax
    ffe4:	89 45 fc             	mov    %eax,-0x4(%rbp)
    ffe7:	48 8b 45 e8          	mov    -0x18(%rbp),%rax
    ffeb:	48 83 c0 18          	add    $0x18,%rax
    ffef:	8b 55 e4             	mov    -0x1c(%rbp),%edx
    fff2:	89 d6                	mov    %edx,%esi
    fff4:	48 89 c7             	mov    %rax,%rdi
    fff7:	e8 3d a4 ff ff       	call   a439 <_ZStoRRSt13_Ios_FmtflagsS_>
    fffc:	8b 45 fc             	mov    -0x4(%rbp),%eax
    ffff:	c9                   	leave
   10000:	c3                   	ret

0000000000010001 <_ZSt6skipwsRSt8ios_base>:
   10001:	55                   	push   %rbp
   10002:	48 89 e5             	mov    %rsp,%rbp
   10005:	48 83 ec 10          	sub    $0x10,%rsp
   10009:	48 89 7d f8          	mov    %rdi,-0x8(%rbp)
   1000d:	48 8b 45 f8          	mov    -0x8(%rbp),%rax
   10011:	be 00 10 00 00       	mov    $0x1000,%esi
   10016:	48 89 c7             	mov    %rax,%rdi
   10019:	e8 b0 ff ff ff       	call   ffce <_ZNSt8ios_base4setfESt13_Ios_Fmtflags>
   1001e:	48 8b 45 f8          	mov    -0x8(%rbp),%rax
   10022:	c9                   	leave
   10023:	c3                   	ret

0000000000010024 <_ZN12searchinfo_tC1Ev>:
   10024:	55                   	push   %rbp
   10025:	48 89 e5             	mov    %rsp,%rbp
   10028:	48 89 7d f8          	mov    %rdi,-0x8(%rbp)
   1002c:	48 8b 45 f8          	mov    -0x8(%rbp),%rax
   10030:	c6 40 08 00          	movb   $0x0,0x8(%rax)
   10034:	90                   	nop
   10035:	5d                   	pop    %rbp
   10036:	c3                   	ret

0000000000010037 <_ZSteqIcSt11char_traitsIcESaIcEEbRKNSt7__cxx1112basic_stringIT_T0_T1_EESA_>:
   10037:	55                   	push   %rbp
   10038:	48 89 e5             	mov    %rsp,%rbp
   1003b:	41 54                	push   %r12
   1003d:	53                   	push   %rbx
   1003e:	48 83 ec 10          	sub    $0x10,%rsp
   10042:	48 89 7d e8          	mov    %rdi,-0x18(%rbp)
   10046:	48 89 75 e0          	mov    %rsi,-0x20(%rbp)
   1004a:	48 8b 45 e8          	mov    -0x18(%rbp),%rax
   1004e:	48 89 c7             	mov    %rax,%rdi
   10051:	e8 2a 31 ff ff       	call   3180 <_ZNKSt7__cxx1112basic_stringIcSt11char_traitsIcESaIcEE4sizeEv@plt>
   10056:	48 89 c3             	mov    %rax,%rbx
   10059:	48 8b 45 e0          	mov    -0x20(%rbp),%rax
   1005d:	48 89 c7             	mov    %rax,%rdi
   10060:	e8 1b 31 ff ff       	call   3180 <_ZNKSt7__cxx1112basic_stringIcSt11char_traitsIcESaIcEE4sizeEv@plt>
   10065:	48 39 c3             	cmp    %rax,%rbx
   10068:	75 43                	jne    100ad <_ZSteqIcSt11char_traitsIcESaIcEEbRKNSt7__cxx1112basic_stringIT_T0_T1_EESA_+0x76>
   1006a:	48 8b 45 e8          	mov    -0x18(%rbp),%rax
   1006e:	48 89 c7             	mov    %rax,%rdi
   10071:	e8 0a 31 ff ff       	call   3180 <_ZNKSt7__cxx1112basic_stringIcSt11char_traitsIcESaIcEE4sizeEv@plt>
   10076:	49 89 c4             	mov    %rax,%r12
   10079:	48 8b 45 e0          	mov    -0x20(%rbp),%rax
   1007d:	48 89 c7             	mov    %rax,%rdi
   10080:	e8 7b 32 ff ff       	call   3300 <_ZNKSt7__cxx1112basic_stringIcSt11char_traitsIcESaIcEE4dataEv@plt>
   10085:	48 89 c3             	mov    %rax,%rbx
   10088:	48 8b 45 e8          	mov    -0x18(%rbp),%rax
   1008c:	48 89 c7             	mov    %rax,%rdi
   1008f:	e8 6c 32 ff ff       	call   3300 <_ZNKSt7__cxx1112basic_stringIcSt11char_traitsIcESaIcEE4dataEv@plt>
   10094:	4c 89 e2             	mov    %r12,%rdx
   10097:	48 89 de             	mov    %rbx,%rsi
   1009a:	48 89 c7             	mov    %rax,%rdi
   1009d:	e8 ea a0 ff ff       	call   a18c <_ZNSt11char_traitsIcE7compareEPKcS2_m>
   100a2:	85 c0                	test   %eax,%eax
   100a4:	75 07                	jne    100ad <_ZSteqIcSt11char_traitsIcESaIcEEbRKNSt7__cxx1112basic_stringIT_T0_T1_EESA_+0x76>
   100a6:	b8 01 00 00 00       	mov    $0x1,%eax
   100ab:	eb 05                	jmp    100b2 <_ZSteqIcSt11char_traitsIcESaIcEEbRKNSt7__cxx1112basic_stringIT_T0_T1_EESA_+0x7b>
   100ad:	b8 00 00 00 00       	mov    $0x0,%eax
   100b2:	48 83 c4 10          	add    $0x10,%rsp
   100b6:	5b                   	pop    %rbx
   100b7:	41 5c                	pop    %r12
   100b9:	5d                   	pop    %rbp
   100ba:	c3                   	ret

Disassembly of section .fini:

00000000000100bc <_fini>:
   100bc:	f3 0f 1e fa          	endbr64
   100c0:	48 83 ec 08          	sub    $0x8,%rsp
   100c4:	48 83 c4 08          	add    $0x8,%rsp
   100c8:	c3                   	ret
